(lp0
(lp1
(lp2
S'variable_0'
p3
aS':'
p4
ag4
aS'func_0'
p5
aS'('
p6
aS'const'
p7
aS'PRUnichar'
p8
aS'*'
p9
aS'variable_1'
p10
aS','
p11
aS'char'
p12
ag9
ag9
aS'variable_2'
p13
aS')'
p14
aS'nsresult'
p15
aS'variable_3'
p16
aS';'
p17
aS'int32_t'
p18
aS'variable_4'
p19
aS'='
p20
aS'func_1'
p21
ag6
aS'variable_1'
p22
ag14
ag17
aS'int32_t'
p23
aS'variable_5'
p24
ag17
aS'int32_t'
p25
aS'variable_6'
p26
ag20
aS'variable_4'
p27
ag17
aS'int32_t'
p28
aS'variable_7'
p29
ag17
aS'int32_t'
p30
aS'variable_8'
p31
ag11
aS'variable_9'
p32
ag17
aS'variable_3'
p33
ag20
aS'variable_10'
p34
aS'->'
p35
aS'func_2'
p36
ag6
aS'variable_1'
p37
ag11
aS'variable_4'
p38
ag11
aS'&'
p39
aS'variable_7'
p40
ag14
ag17
aS'if'
p41
ag6
aS'func_3'
p42
ag6
aS'variable_3'
p43
ag14
ag14
aS'variable_5'
p44
ag20
aS'variable_7'
p45
aS'+'
p46
aS'variable_11'
p47
ag17
aS'char'
p48
ag9
aS'variable_12'
p49
ag20
ag6
aS'char'
p50
ag9
ag14
aS'func_4'
p51
ag6
aS'variable_5'
p52
ag46
aS'1'
p53
ag14
ag17
aS'if'
p54
ag6
aS'!'
p55
aS'variable_12'
p56
ag14
aS'for'
p57
ag6
aS'variable_8'
p58
ag20
aS'0'
p59
ag11
aS'variable_9'
p60
ag20
ag59
ag17
aS'variable_8'
p61
aS'<'
p62
aS'variable_4'
p63
ag17
ag14
aS'variable_7'
p64
ag20
aS'variable_5'
p65
aS'-'
p66
aS'variable_9'
p67
ag17
aS'variable_3'
p68
ag20
aS'variable_10'
p69
aS'->'
p70
aS'func_5'
p71
ag6
ag39
aS'variable_1'
p72
aS'['
p73
aS'variable_8'
p74
aS']'
p75
ag11
ag39
aS'variable_6'
p76
ag11
ag39
aS'variable_12'
p77
ag73
aS'variable_9'
p78
ag75
ag11
ag39
aS'variable_7'
p79
ag14
ag17
aS'variable_8'
p80
aS'+='
p81
aS'variable_6'
p82
aS'?'
p83
aS'variable_6'
p84
ag4
ag53
ag17
aS'variable_9'
p85
aS'+='
p86
aS'variable_7'
p87
ag17
aS'variable_12'
p88
ag73
aS'variable_9'
p89
ag75
ag20
aS"'"
p90
aS'\\'
p91
ag59
ag90
ag17
aS'if'
p92
ag6
aS'variable_13'
p93
aS'!='
p94
aS'variable_3'
p95
ag14
aS'variable_3'
p96
ag20
aS'variable_14'
p97
ag17
aS'variable_7'
p98
ag20
aS'variable_5'
p99
ag66
aS'variable_9'
p100
ag17
aS'variable_3'
p101
ag20
aS'variable_10'
p102
aS'->'
p103
aS'func_6'
p104
ag6
ag39
aS'variable_12'
p105
ag73
aS'variable_9'
p106
ag75
ag11
ag39
aS'variable_7'
p107
ag14
ag17
aS'if'
p108
ag6
aS'func_7'
p109
ag6
aS'variable_3'
p110
ag14
ag14
aS'variable_9'
p111
aS'+='
p112
aS'variable_7'
p113
ag17
aS'variable_12'
p114
ag73
aS'variable_9'
p115
ag75
ag20
ag90
ag91
ag59
ag90
ag17
aS'variable_6'
p116
ag20
aS'variable_4'
p117
ag66
aS'variable_8'
p118
ag17
aS'if'
p119
ag6
ag55
aS'func_8'
p120
ag6
aS'variable_15'
p121
ag14
ag14
aS'uint32_t'
p122
aS'variable_16'
p123
ag17
aS'if'
p124
ag6
aS'func_9'
p125
ag6
aS'variable_1'
p126
ag73
aS'variable_8'
p127
ag66
ag53
ag75
ag14
aS'&&'
p128
aS'variable_4'
p129
aS'>'
p130
aS'variable_8'
p131
aS'&&'
p132
aS'func_10'
p133
ag6
aS'variable_1'
p134
ag73
aS'variable_8'
p135
ag75
ag14
ag14
aS'variable_16'
p136
ag20
aS'func_11'
p137
ag6
aS'variable_1'
p138
ag73
aS'variable_8'
p139
ag66
ag53
ag75
ag11
aS'variable_1'
p140
ag73
aS'variable_8'
p141
ag75
ag14
ag17
aS'variable_8'
p142
aS'++'
p143
ag17
aS'variable_16'
p144
ag20
aS'variable_1'
p145
ag73
aS'variable_8'
p146
ag66
ag53
ag75
ag17
aS'variable_3'
p147
ag20
aS'variable_10'
p148
aS'->'
p149
aS'func_12'
p150
ag6
aS'variable_1'
p151
ag46
aS'variable_8'
p152
ag11
aS'variable_4'
p153
ag66
aS'variable_8'
p154
ag11
ag39
aS'variable_7'
p155
ag14
ag17
aS'if'
p156
ag6
aS'func_13'
p157
ag6
aS'variable_3'
p158
ag14
ag14
aS'variable_3'
p159
ag20
aS'func_14'
p160
ag6
aS'variable_16'
p161
ag11
ag39
aS'variable_12'
p162
ag11
ag39
aS'variable_5'
p163
ag11
ag39
aS'variable_9'
p164
ag11
aS'variable_7'
p165
ag14
ag17
aS'if'
p166
ag6
aS'func_15'
p167
ag6
aS'variable_3'
p168
ag14
ag14
aS'variable_12'
p169
ag73
aS'variable_9'
p170
ag75
ag20
ag90
ag91
ag59
ag90
ag17
aS'if'
p171
ag6
aS'func_16'
p172
ag6
aS'variable_3'
p173
ag14
ag14
aS'variable_7'
p174
ag20
aS'variable_5'
p175
ag66
aS'variable_9'
p176
ag17
aS'variable_3'
p177
ag20
aS'variable_10'
p178
aS'->'
p179
aS'func_17'
p180
ag6
ag39
aS'variable_12'
p181
ag73
aS'variable_9'
p182
ag75
ag11
ag39
aS'variable_7'
p183
ag14
ag17
aS'if'
p184
ag6
aS'func_18'
p185
ag6
aS'variable_3'
p186
ag14
ag14
aS'variable_9'
p187
aS'+='
p188
aS'variable_7'
p189
ag17
aS'variable_12'
p190
ag73
aS'variable_9'
p191
ag75
ag20
ag90
ag91
ag59
ag90
ag17
aS'if'
p192
ag6
aS'func_19'
p193
ag6
aS'variable_3'
p194
ag14
ag14
aS'func_20'
p195
ag6
aS'variable_12'
p196
ag14
ag17
aS'return'
p197
aS'variable_3'
p198
ag17
ag9
aS'variable_2'
p199
ag20
aS'variable_12'
p200
ag17
aS'return'
p201
aS'variable_3'
p202
ag17
aa(lp203
S'variable_0'
p204
ag4
ag4
aS'func_0'
p205
ag6
aS'const'
p206
aS'PRUnichar'
p207
ag9
aS'variable_1'
p208
ag11
aS'char'
p209
ag9
ag9
aS'variable_2'
p210
ag14
aS'nsresult'
p211
aS'variable_3'
p212
ag17
aS'int32_t'
p213
aS'variable_4'
p214
ag20
aS'func_1'
p215
ag6
aS'variable_1'
p216
ag14
ag17
aS'int32_t'
p217
aS'variable_5'
p218
ag17
aS'int32_t'
p219
aS'variable_6'
p220
ag20
aS'variable_4'
p221
ag17
aS'int32_t'
p222
aS'variable_7'
p223
ag17
aS'int32_t'
p224
aS'variable_8'
p225
ag11
aS'variable_9'
p226
ag17
aS'variable_3'
p227
ag20
aS'variable_10'
p228
aS'->'
p229
aS'func_2'
p230
ag6
aS'variable_1'
p231
ag11
aS'variable_4'
p232
ag11
ag39
aS'variable_7'
p233
ag14
ag17
aS'if'
p234
ag6
aS'func_3'
p235
ag6
aS'variable_3'
p236
ag14
ag14
aS'variable_5'
p237
ag20
aS'variable_7'
p238
ag46
aS'variable_11'
p239
ag17
aS'char'
p240
ag9
aS'variable_12'
p241
ag20
ag6
aS'char'
p242
ag9
ag14
aS'func_4'
p243
ag6
aS'variable_5'
p244
ag46
ag53
ag14
ag17
aS'if'
p245
ag6
ag55
aS'variable_12'
p246
ag14
aS'for'
p247
ag6
aS'variable_8'
p248
ag20
ag59
ag11
aS'variable_9'
p249
ag20
ag59
ag17
aS'variable_8'
p250
ag62
aS'variable_4'
p251
ag17
ag14
aS'variable_7'
p252
ag20
aS'variable_5'
p253
ag66
aS'variable_9'
p254
ag17
aS'variable_3'
p255
ag20
aS'variable_10'
p256
aS'->'
p257
aS'func_5'
p258
ag6
ag39
aS'variable_1'
p259
ag73
aS'variable_8'
p260
ag75
ag11
ag39
aS'variable_6'
p261
ag11
ag39
aS'variable_12'
p262
ag73
aS'variable_9'
p263
ag75
ag11
ag39
aS'variable_7'
p264
ag14
ag17
aS'variable_8'
p265
aS'+='
p266
aS'variable_6'
p267
ag83
aS'variable_6'
p268
ag4
ag53
ag17
aS'variable_9'
p269
aS'+='
p270
aS'variable_7'
p271
ag17
aS'variable_12'
p272
ag73
aS'variable_9'
p273
ag75
ag20
ag90
ag91
ag59
ag90
ag17
aS'if'
p274
ag6
aS'variable_13'
p275
aS'!='
p276
aS'variable_3'
p277
ag14
aS'variable_3'
p278
ag20
aS'variable_14'
p279
ag17
aS'variable_7'
p280
ag20
aS'variable_5'
p281
ag66
aS'variable_9'
p282
ag17
aS'variable_3'
p283
ag20
aS'variable_10'
p284
aS'->'
p285
aS'func_6'
p286
ag6
ag39
aS'variable_12'
p287
ag73
aS'variable_9'
p288
ag75
ag11
ag39
aS'variable_7'
p289
ag14
ag17
aS'if'
p290
ag6
aS'func_7'
p291
ag6
aS'variable_3'
p292
ag14
ag14
aS'variable_9'
p293
aS'+='
p294
aS'variable_7'
p295
ag17
aS'variable_12'
p296
ag73
aS'variable_9'
p297
ag75
ag20
ag90
ag91
ag59
ag90
ag17
aS'variable_6'
p298
ag20
aS'variable_4'
p299
ag66
aS'variable_8'
p300
ag17
aS'if'
p301
ag6
ag55
aS'func_8'
p302
ag6
aS'variable_15'
p303
ag14
ag14
aS'uint32_t'
p304
aS'variable_16'
p305
ag17
aS'if'
p306
ag6
aS'func_9'
p307
ag6
aS'variable_1'
p308
ag73
aS'variable_8'
p309
ag66
ag53
ag75
ag14
aS'&&'
p310
aS'variable_4'
p311
ag130
aS'variable_8'
p312
aS'&&'
p313
aS'func_10'
p314
ag6
aS'variable_1'
p315
ag73
aS'variable_8'
p316
ag75
ag14
ag14
aS'variable_16'
p317
ag20
aS'func_11'
p318
ag6
aS'variable_1'
p319
ag73
aS'variable_8'
p320
ag66
ag53
ag75
ag11
aS'variable_1'
p321
ag73
aS'variable_8'
p322
ag75
ag14
ag17
aS'variable_8'
p323
aS'++'
p324
ag17
aS'variable_16'
p325
ag20
aS'variable_1'
p326
ag73
aS'variable_8'
p327
ag66
ag53
ag75
ag17
aS'variable_3'
p328
ag20
aS'variable_10'
p329
aS'->'
p330
aS'func_12'
p331
ag6
aS'variable_1'
p332
ag46
aS'variable_8'
p333
ag11
aS'variable_4'
p334
ag66
aS'variable_8'
p335
ag11
ag39
aS'variable_7'
p336
ag14
ag17
aS'if'
p337
ag6
aS'func_13'
p338
ag6
aS'variable_3'
p339
ag14
ag14
aS'variable_3'
p340
ag20
aS'func_14'
p341
ag6
aS'variable_16'
p342
ag11
ag39
aS'variable_12'
p343
ag11
ag39
aS'variable_5'
p344
ag11
ag39
aS'variable_9'
p345
ag11
aS'variable_7'
p346
ag14
ag17
aS'if'
p347
ag6
aS'func_15'
p348
ag6
aS'variable_3'
p349
ag14
ag14
aS'if'
p350
ag6
aS'func_16'
p351
ag6
aS'variable_3'
p352
ag14
ag14
aS'if'
p353
ag6
aS'func_17'
p354
ag6
aS'variable_3'
p355
ag14
ag14
aS'return'
p356
aS'variable_3'
p357
ag17
aS'return'
p358
aS'variable_3'
p359
ag17
aa(lp360
S'variable_0'
p361
ag4
ag4
aS'func_0'
p362
ag6
aS'const'
p363
aS'PRUnichar'
p364
ag9
aS'variable_1'
p365
ag11
aS'char'
p366
ag9
ag9
aS'variable_2'
p367
ag14
aS'nsresult'
p368
aS'variable_3'
p369
ag17
aS'int32_t'
p370
aS'variable_4'
p371
ag20
aS'func_1'
p372
ag6
aS'variable_1'
p373
ag14
ag17
aS'int32_t'
p374
aS'variable_5'
p375
ag17
aS'int32_t'
p376
aS'variable_6'
p377
ag20
aS'variable_4'
p378
ag17
aS'int32_t'
p379
aS'variable_7'
p380
ag17
aS'int32_t'
p381
aS'variable_8'
p382
ag11
aS'variable_9'
p383
ag17
aS'variable_3'
p384
ag20
aS'variable_10'
p385
aS'->'
p386
aS'func_2'
p387
ag6
aS'variable_1'
p388
ag11
aS'variable_4'
p389
ag11
ag39
aS'variable_7'
p390
ag14
ag17
aS'if'
p391
ag6
aS'func_3'
p392
ag6
aS'variable_3'
p393
ag14
ag14
aS'variable_5'
p394
ag20
aS'variable_7'
p395
ag46
aS'variable_11'
p396
ag17
aS'char'
p397
ag9
aS'variable_12'
p398
ag20
ag6
aS'char'
p399
ag9
ag14
aS'func_4'
p400
ag6
aS'variable_5'
p401
ag46
ag53
ag14
ag17
aS'if'
p402
ag6
ag55
aS'variable_12'
p403
ag14
aS'for'
p404
ag6
aS'variable_8'
p405
ag20
ag59
ag11
aS'variable_9'
p406
ag20
ag59
ag17
aS'variable_8'
p407
ag62
aS'variable_4'
p408
ag17
ag14
aS'variable_7'
p409
ag20
aS'variable_5'
p410
ag66
aS'variable_9'
p411
ag17
aS'variable_3'
p412
ag20
aS'variable_10'
p413
aS'->'
p414
aS'func_5'
p415
ag6
ag39
aS'variable_1'
p416
ag73
aS'variable_8'
p417
ag75
ag11
ag39
aS'variable_6'
p418
ag11
ag39
aS'variable_12'
p419
ag73
aS'variable_9'
p420
ag75
ag11
ag39
aS'variable_7'
p421
ag14
ag17
aS'variable_8'
p422
aS'+='
p423
aS'variable_6'
p424
ag83
aS'variable_6'
p425
ag4
ag53
ag17
aS'variable_9'
p426
aS'+='
p427
aS'variable_7'
p428
ag17
aS'variable_12'
p429
ag73
aS'variable_9'
p430
ag75
ag20
ag90
ag91
ag59
ag90
ag17
aS'if'
p431
ag6
aS'variable_13'
p432
aS'!='
p433
aS'variable_3'
p434
ag14
aS'variable_14'
p435
ag20
aS'variable_3'
p436
ag17
aS'variable_3'
p437
ag20
aS'variable_15'
p438
ag17
aS'variable_7'
p439
ag20
aS'variable_5'
p440
ag66
aS'variable_9'
p441
ag17
aS'variable_3'
p442
ag20
aS'variable_10'
p443
aS'->'
p444
aS'func_6'
p445
ag6
ag39
aS'variable_12'
p446
ag73
aS'variable_9'
p447
ag75
ag11
ag39
aS'variable_7'
p448
ag14
ag17
aS'if'
p449
ag6
aS'func_7'
p450
ag6
aS'variable_3'
p451
ag14
ag14
aS'variable_9'
p452
aS'+='
p453
aS'variable_7'
p454
ag17
aS'variable_12'
p455
ag73
aS'variable_9'
p456
ag75
ag20
ag90
ag91
ag59
ag90
ag17
aS'variable_6'
p457
ag20
aS'variable_4'
p458
ag66
aS'variable_8'
p459
ag17
aS'if'
p460
ag6
ag55
aS'func_8'
p461
ag6
aS'variable_16'
p462
ag14
ag14
aS'uint32_t'
p463
aS'variable_17'
p464
ag17
aS'if'
p465
ag6
aS'func_9'
p466
ag6
aS'variable_1'
p467
ag73
aS'variable_8'
p468
ag66
ag53
ag75
ag14
aS'&&'
p469
aS'variable_4'
p470
ag130
aS'variable_8'
p471
aS'&&'
p472
aS'func_10'
p473
ag6
aS'variable_1'
p474
ag73
aS'variable_8'
p475
ag75
ag14
ag14
aS'variable_17'
p476
ag20
aS'func_11'
p477
ag6
aS'variable_1'
p478
ag73
aS'variable_8'
p479
ag66
ag53
ag75
ag11
aS'variable_1'
p480
ag73
aS'variable_8'
p481
ag75
ag14
ag17
aS'variable_8'
p482
aS'++'
p483
ag17
aS'variable_17'
p484
ag20
aS'variable_1'
p485
ag73
aS'variable_8'
p486
ag66
ag53
ag75
ag17
aS'variable_3'
p487
ag20
aS'variable_10'
p488
aS'->'
p489
aS'func_12'
p490
ag6
aS'variable_1'
p491
ag46
aS'variable_8'
p492
ag11
aS'variable_4'
p493
ag66
aS'variable_8'
p494
ag11
ag39
aS'variable_7'
p495
ag14
ag17
aS'if'
p496
ag6
aS'func_13'
p497
ag6
aS'variable_3'
p498
ag14
ag14
aS'variable_3'
p499
ag20
aS'func_14'
p500
ag6
aS'variable_17'
p501
ag11
ag39
aS'variable_12'
p502
ag11
ag39
aS'variable_5'
p503
ag11
ag39
aS'variable_9'
p504
ag11
aS'variable_7'
p505
ag14
ag17
aS'if'
p506
ag6
aS'func_15'
p507
ag6
aS'variable_3'
p508
ag14
ag14
aS'if'
p509
ag6
aS'func_16'
p510
ag6
aS'variable_3'
p511
ag14
ag14
aS'if'
p512
ag6
aS'func_17'
p513
ag6
aS'variable_3'
p514
ag14
ag14
aS'return'
p515
aS'variable_3'
p516
ag17
aS'if'
p517
ag6
aS'variable_13'
p518
aS'=='
p519
aS'variable_14'
p520
ag14
aS'return'
p521
aS'variable_3'
p522
ag17
aa(lp523
S'variable_0'
p524
ag4
ag4
aS'func_0'
p525
ag6
aS'const'
p526
aS'PRUnichar'
p527
ag9
aS'variable_1'
p528
ag11
aS'char'
p529
ag9
ag9
aS'variable_2'
p530
ag14
aS'nsresult'
p531
aS'variable_3'
p532
ag17
aS'int32_t'
p533
aS'variable_4'
p534
ag20
aS'func_1'
p535
ag6
aS'variable_1'
p536
ag14
ag17
aS'int32_t'
p537
aS'variable_5'
p538
ag17
aS'int32_t'
p539
aS'variable_6'
p540
ag20
aS'variable_4'
p541
ag17
aS'int32_t'
p542
aS'variable_7'
p543
ag17
aS'int32_t'
p544
aS'variable_8'
p545
ag11
aS'variable_9'
p546
ag17
aS'variable_3'
p547
ag20
aS'variable_10'
p548
aS'->'
p549
aS'func_2'
p550
ag6
aS'variable_1'
p551
ag11
aS'variable_4'
p552
ag11
ag39
aS'variable_7'
p553
ag14
ag17
aS'if'
p554
ag6
aS'func_3'
p555
ag6
aS'variable_3'
p556
ag14
ag14
aS'variable_5'
p557
ag20
aS'variable_7'
p558
ag46
aS'variable_11'
p559
ag17
aS'char'
p560
ag9
aS'variable_12'
p561
ag20
ag6
aS'char'
p562
ag9
ag14
aS'func_4'
p563
ag6
aS'variable_5'
p564
ag46
ag53
ag14
ag17
aS'if'
p565
ag6
ag55
aS'variable_12'
p566
ag14
aS'for'
p567
ag6
aS'variable_8'
p568
ag20
ag59
ag11
aS'variable_9'
p569
ag20
ag59
ag17
aS'variable_8'
p570
ag62
aS'variable_4'
p571
ag17
ag14
aS'variable_7'
p572
ag20
aS'variable_5'
p573
ag66
aS'variable_9'
p574
ag17
aS'func_5'
p575
ag6
aS'variable_7'
p576
ag130
ag20
ag59
ag11
aS'"'
p577
aS'out'
p578
aS'of'
p579
aS'bounds'
p580
aS'write'
p581
ag577
ag14
ag17
aS'variable_3'
p582
ag20
aS'variable_10'
p583
aS'->'
p584
aS'func_6'
p585
ag6
ag39
aS'variable_1'
p586
ag73
aS'variable_8'
p587
ag75
ag11
ag39
aS'variable_6'
p588
ag11
ag39
aS'variable_12'
p589
ag73
aS'variable_9'
p590
ag75
ag11
ag39
aS'variable_7'
p591
ag14
ag17
aS'variable_8'
p592
aS'+='
p593
aS'variable_6'
p594
ag83
aS'variable_6'
p595
ag4
ag53
ag17
aS'variable_9'
p596
aS'+='
p597
aS'variable_7'
p598
ag17
aS'variable_12'
p599
ag73
aS'variable_9'
p600
ag75
ag20
ag90
ag91
ag59
ag90
ag17
aS'if'
p601
ag6
aS'variable_13'
p602
aS'!='
p603
aS'variable_3'
p604
ag14
aS'variable_14'
p605
ag20
aS'variable_3'
p606
ag17
aS'variable_3'
p607
ag20
aS'variable_15'
p608
ag17
aS'variable_7'
p609
ag20
aS'variable_5'
p610
ag66
aS'variable_9'
p611
ag17
aS'variable_3'
p612
ag20
aS'variable_10'
p613
aS'->'
p614
aS'func_7'
p615
ag6
ag39
aS'variable_12'
p616
ag73
aS'variable_9'
p617
ag75
ag11
ag39
aS'variable_7'
p618
ag14
ag17
aS'if'
p619
ag6
aS'func_8'
p620
ag6
aS'variable_3'
p621
ag14
ag14
aS'variable_9'
p622
aS'+='
p623
aS'variable_7'
p624
ag17
aS'variable_12'
p625
ag73
aS'variable_9'
p626
ag75
ag20
ag90
ag91
ag59
ag90
ag17
aS'variable_6'
p627
ag20
aS'variable_4'
p628
ag66
aS'variable_8'
p629
ag17
aS'if'
p630
ag6
ag55
aS'func_9'
p631
ag6
aS'variable_16'
p632
ag14
ag14
aS'uint32_t'
p633
aS'variable_17'
p634
ag17
aS'if'
p635
ag6
aS'func_10'
p636
ag6
aS'variable_1'
p637
ag73
aS'variable_8'
p638
ag66
ag53
ag75
ag14
aS'&&'
p639
aS'variable_4'
p640
ag130
aS'variable_8'
p641
aS'&&'
p642
aS'func_11'
p643
ag6
aS'variable_1'
p644
ag73
aS'variable_8'
p645
ag75
ag14
ag14
aS'variable_17'
p646
ag20
aS'func_12'
p647
ag6
aS'variable_1'
p648
ag73
aS'variable_8'
p649
ag66
ag53
ag75
ag11
aS'variable_1'
p650
ag73
aS'variable_8'
p651
ag75
ag14
ag17
aS'variable_8'
p652
aS'++'
p653
ag17
aS'variable_17'
p654
ag20
aS'variable_1'
p655
ag73
aS'variable_8'
p656
ag66
ag53
ag75
ag17
aS'variable_3'
p657
ag20
aS'variable_10'
p658
aS'->'
p659
aS'func_13'
p660
ag6
aS'variable_1'
p661
ag46
aS'variable_8'
p662
ag11
aS'variable_4'
p663
ag66
aS'variable_8'
p664
ag11
ag39
aS'variable_7'
p665
ag14
ag17
aS'if'
p666
ag6
aS'func_14'
p667
ag6
aS'variable_3'
p668
ag14
ag14
aS'variable_3'
p669
ag20
aS'func_15'
p670
ag6
aS'variable_17'
p671
ag11
ag39
aS'variable_12'
p672
ag11
ag39
aS'variable_5'
p673
ag11
ag39
aS'variable_9'
p674
ag11
aS'variable_7'
p675
ag14
ag17
aS'if'
p676
ag6
aS'func_16'
p677
ag6
aS'variable_3'
p678
ag14
ag14
aS'variable_12'
p679
ag73
aS'variable_9'
p680
ag75
ag20
ag90
ag91
ag59
ag90
ag17
aS'if'
p681
ag6
aS'func_17'
p682
ag6
aS'variable_3'
p683
ag14
ag14
aS'variable_7'
p684
ag20
aS'variable_5'
p685
ag66
aS'variable_9'
p686
ag17
aS'variable_3'
p687
ag20
aS'variable_10'
p688
aS'->'
p689
aS'func_18'
p690
ag6
ag39
aS'variable_12'
p691
ag73
aS'variable_9'
p692
ag75
ag11
ag39
aS'variable_7'
p693
ag14
ag17
aS'if'
p694
ag6
aS'func_19'
p695
ag6
aS'variable_3'
p696
ag14
ag14
aS'variable_9'
p697
aS'+='
p698
aS'variable_7'
p699
ag17
aS'variable_12'
p700
ag73
aS'variable_9'
p701
ag75
ag20
ag90
ag91
ag59
ag90
ag17
aS'if'
p702
ag6
aS'func_20'
p703
ag6
aS'variable_3'
p704
ag14
ag14
aS'func_21'
p705
ag6
aS'variable_12'
p706
ag14
ag17
aS'return'
p707
aS'variable_3'
p708
ag17
ag9
aS'variable_2'
p709
ag20
aS'variable_12'
p710
ag17
aS'if'
p711
ag6
aS'variable_13'
p712
aS'=='
p713
aS'variable_14'
p714
ag14
aS'return'
p715
aS'variable_3'
p716
ag17
aa(lp717
S'variable_0'
p718
ag4
ag4
aS'func_0'
p719
ag6
aS'const'
p720
aS'PRUnichar'
p721
ag9
aS'variable_1'
p722
ag11
aS'char'
p723
ag9
ag9
aS'variable_2'
p724
ag14
aS'nsresult'
p725
aS'variable_3'
p726
ag17
aS'int32_t'
p727
aS'variable_4'
p728
ag20
aS'func_1'
p729
ag6
aS'variable_1'
p730
ag14
ag17
aS'int32_t'
p731
aS'variable_5'
p732
ag17
aS'int32_t'
p733
aS'variable_6'
p734
ag17
aS'variable_3'
p735
ag20
aS'variable_7'
p736
aS'->'
p737
aS'func_2'
p738
ag6
aS'variable_1'
p739
ag11
aS'variable_4'
p740
ag11
ag39
aS'variable_6'
p741
ag14
ag17
aS'if'
p742
ag6
aS'func_3'
p743
ag6
aS'variable_3'
p744
ag14
ag14
aS'variable_5'
p745
ag20
aS'variable_6'
p746
ag46
aS'variable_8'
p747
ag17
aS'char'
p748
ag9
aS'variable_9'
p749
ag20
ag6
aS'char'
p750
ag9
ag14
aS'func_4'
p751
ag6
aS'variable_5'
p752
ag46
ag53
ag14
ag17
aS'if'
p753
ag6
ag55
aS'variable_9'
p754
ag14
aS'variable_6'
p755
ag20
aS'variable_5'
p756
ag66
aS'variable_10'
p757
ag17
aS'func_5'
p758
ag6
aS'variable_6'
p759
ag130
ag20
ag59
ag11
ag577
aS'out'
p760
aS'of'
p761
aS'bounds'
p762
aS'write'
p763
ag577
ag14
ag17
aS'variable_3'
p764
ag20
aS'variable_7'
p765
aS'->'
p766
aS'func_6'
p767
ag6
ag39
aS'variable_1'
p768
ag73
aS'variable_11'
p769
ag75
ag11
ag39
aS'variable_12'
p770
ag11
ag39
aS'variable_9'
p771
ag73
aS'variable_10'
p772
ag75
ag11
ag39
aS'variable_6'
p773
ag14
ag17
aS'variable_10'
p774
aS'+='
p775
aS'variable_6'
p776
ag17
aS'variable_9'
p777
ag73
aS'variable_10'
p778
ag75
ag20
ag90
ag91
ag59
ag90
ag17
aS'if'
p779
ag6
aS'variable_13'
p780
aS'!='
p781
aS'variable_3'
p782
ag14
aS'variable_14'
p783
ag20
aS'variable_3'
p784
ag17
aS'variable_6'
p785
ag20
aS'variable_5'
p786
ag66
aS'variable_10'
p787
ag17
aS'variable_3'
p788
ag20
aS'variable_7'
p789
aS'->'
p790
aS'func_7'
p791
ag6
ag39
aS'variable_9'
p792
ag73
aS'variable_10'
p793
ag75
ag11
ag39
aS'variable_6'
p794
ag14
ag17
aS'if'
p795
ag6
aS'func_8'
p796
ag6
aS'variable_3'
p797
ag14
ag14
aS'variable_10'
p798
aS'+='
p799
aS'variable_6'
p800
ag17
aS'variable_9'
p801
ag73
aS'variable_10'
p802
ag75
ag20
ag90
ag91
ag59
ag90
ag17
aS'variable_3'
p803
ag20
aS'variable_7'
p804
aS'->'
p805
aS'func_9'
p806
ag6
aS'variable_1'
p807
ag46
aS'variable_11'
p808
ag11
aS'variable_4'
p809
ag66
aS'variable_11'
p810
ag11
ag39
aS'variable_6'
p811
ag14
ag17
aS'if'
p812
ag6
aS'func_10'
p813
ag6
aS'variable_3'
p814
ag14
ag14
aS'variable_3'
p815
ag20
aS'func_11'
p816
ag6
aS'variable_15'
p817
ag11
ag39
aS'variable_9'
p818
ag11
ag39
aS'variable_5'
p819
ag11
ag39
aS'variable_10'
p820
ag11
aS'variable_6'
p821
ag14
ag17
aS'if'
p822
ag6
aS'func_12'
p823
ag6
aS'variable_3'
p824
ag14
ag14
aS'variable_9'
p825
ag73
aS'variable_10'
p826
ag75
ag20
ag90
ag91
ag59
ag90
ag17
aS'if'
p827
ag6
aS'func_13'
p828
ag6
aS'variable_3'
p829
ag14
ag14
aS'variable_6'
p830
ag20
aS'variable_5'
p831
ag66
aS'variable_10'
p832
ag17
aS'variable_3'
p833
ag20
aS'variable_7'
p834
aS'->'
p835
aS'func_14'
p836
ag6
ag39
aS'variable_9'
p837
ag73
aS'variable_10'
p838
ag75
ag11
ag39
aS'variable_6'
p839
ag14
ag17
aS'if'
p840
ag6
aS'func_15'
p841
ag6
aS'variable_3'
p842
ag14
ag14
aS'variable_10'
p843
aS'+='
p844
aS'variable_6'
p845
ag17
aS'variable_9'
p846
ag73
aS'variable_10'
p847
ag75
ag20
ag90
ag91
ag59
ag90
ag17
aS'if'
p848
ag6
aS'func_16'
p849
ag6
aS'variable_3'
p850
ag14
ag14
aS'func_17'
p851
ag6
aS'variable_9'
p852
ag14
ag17
aS'return'
p853
aS'variable_3'
p854
ag17
ag9
aS'variable_2'
p855
ag20
aS'variable_9'
p856
ag17
aS'if'
p857
ag6
aS'variable_13'
p858
aS'=='
p859
aS'variable_14'
p860
ag14
aS'return'
p861
aS'variable_3'
p862
ag17
aaa(lp863
I0
aI0
aI0
aI0
aI0
aa(lp864
I351
aI296
aI218
aI189
aI57
aa(lp865
(lp866
S'main'
p867
aa(lp868
g867
aa(lp869
g867
aa(lp870
g867
aa(lp871
g867
aaa(lp872
S'131 ../data/NVD/CVE_2013_0782_PATCHED_nsSaveAsCharset__DoCharsetConversion.c dstLength = bufferLength - pos2 80'
p873
aS'132 ../data/NVD/CVE_2013_0782_PATCHED_nsSaveAsCharset__DoCharsetConversion.c rv = mEncoder -> GetMaxLength ( inString + pos1 , inStringLength - pos1 , & dstLength ) 67'
p874
aS'133 ../data/NVD/CVE_2013_0782_PATCHED_nsSaveAsCharset__DoCharsetConversion.c srcLength = inStringLength - pos1 54'
p875
aS'134 ../data/NVD/CVE_2013_0782_PATCHED_nsSaveAsCharset__DoCharsetConversion.c dstLength = bufferLength - pos2 47'
p876
aS'136 ../data/NVD/CVE_2013_0782_PATCHED_nsSaveAsCharset__DoCharsetConversion.c bufferLength = dstLength + RESERVE_FALLBACK_BYTES 20'
p877
aa.