(lp0
(lp1
(lp2
S'static'
p3
aS'int'
p4
aS'func_0'
p5
aS'('
p6
aS'variable_0'
p7
aS'*'
p8
aS'variable_1'
p9
aS')'
p10
aS'int'
p11
aS'variable_2'
p12
aS';'
p13
aS'if'
p14
ag6
aS'variable_1'
p15
aS'->'
p16
aS'variable_3'
p17
aS'>'
p18
aS'variable_4'
p19
aS'/'
p20
aS'sizeof'
p21
ag6
aS'variable_5'
p22
ag10
ag10
aS'variable_2'
p23
aS'='
p24
aS'variable_1'
p25
aS'->'
p26
aS'variable_3'
p27
ag8
aS'sizeof'
p28
ag6
aS'variable_5'
p29
ag10
ag13
aS'func_1'
p30
ag6
aS'variable_1'
p31
aS'->'
p32
aS'variable_6'
p33
aS','
p34
aS'variable_1'
p35
aS'->'
p36
aS'variable_7'
p37
aS'['
p38
aS'variable_8'
p39
aS']'
p40
ag34
aS'variable_2'
p41
ag34
aS'variable_9'
p42
ag10
ag13
aS'func_2'
p43
ag6
aS'variable_1'
p44
aS'->'
p45
aS'variable_6'
p46
ag34
aS'variable_1'
p47
aS'->'
p48
aS'variable_10'
p49
ag38
aS'variable_8'
p50
ag40
ag34
aS'variable_2'
p51
ag34
aS'variable_9'
p52
ag10
ag13
aS'func_3'
p53
ag6
aS'variable_1'
p54
aS'->'
p55
aS'variable_6'
p56
ag34
aS'variable_1'
p57
aS'->'
p58
aS'variable_11'
p59
ag38
aS'variable_8'
p60
ag40
ag34
aS'variable_2'
p61
ag34
aS'variable_9'
p62
ag10
ag13
aaa(lp63
I0
aa(lp64
I33
aa(lp65
(lp66
S'main'
p67
aaa(lp68
S'178 ../data/NVD/CVE_2013_0855_PATCHED_allocate_buffers.c buf_size = alac -> max_samples_per_frame * sizeof ( int32_t ) 8'
p69
aa.