(lp0
(lp1
(lp2
S'func_0'
p3
aS'('
p4
aS'variable_0'
p5
aS'*'
p6
aS'variable_1'
p7
aS','
p8
aS'unsigned'
p9
aS'variable_2'
p10
ag8
aS'variable_3'
p11
ag6
aS'variable_4'
p12
aS')'
p13
aS'CallArgs'
p14
aS'variable_5'
p15
aS'='
p16
aS'func_1'
p17
ag4
aS'variable_2'
p18
ag8
aS'variable_4'
p19
ag13
aS';'
p20
aS'RootedObject'
p21
aS'func_2'
p22
ag4
aS'variable_1'
p23
ag8
aS'func_3'
p24
ag4
aS'variable_1'
p25
ag8
aS'variable_5'
p26
aS'.'
p27
aS'func_4'
p28
ag4
ag13
ag13
ag13
ag20
aS'if'
p29
ag4
aS'!'
p30
aS'variable_6'
p31
ag13
aS'bool'
p32
aS'variable_7'
p33
ag16
ag4
aS'variable_1'
p34
aS'->'
p35
aS'variable_8'
p36
ag27
aS'count'
p37
ag4
ag13
aS'=='
p38
aS'0'
p39
ag13
ag20
aS'AutoCycleDetector'
p40
aS'func_5'
p41
ag4
aS'variable_1'
p42
ag8
aS'variable_6'
p43
ag13
ag20
aS'if'
p44
ag4
ag30
aS'variable_9'
p45
ag27
aS'func_6'
p46
ag4
ag13
ag13
aS'if'
p47
ag4
aS'variable_9'
p48
ag27
aS'func_7'
p49
ag4
ag13
ag13
aS'StringBuffer'
p50
aS'func_8'
p51
ag4
aS'variable_1'
p52
ag13
ag20
aS'if'
p53
ag4
aS'variable_7'
p54
aS'&&'
p55
ag30
aS'variable_10'
p56
ag27
aS'func_9'
p57
ag4
aS"'"
p58
ag4
ag58
ag13
ag13
aS'if'
p59
ag4
ag30
aS'variable_10'
p60
ag27
aS'func_10'
p61
ag4
ag58
aS'{'
p62
ag58
ag13
ag13
aS'Value'
p63
aS'variable_11'
p64
aS'['
p65
aS'2'
p66
aS']'
p67
ag20
aS'variable_12'
p68
ag6
aS'variable_13'
p69
ag65
ag66
ag67
ag20
aS'AutoIdVector'
p70
aS'func_11'
p71
ag4
aS'variable_1'
p72
ag13
ag20
aS'if'
p73
ag4
ag30
aS'func_12'
p74
ag4
aS'variable_1'
p75
ag8
aS'variable_6'
p76
ag8
aS'variable_14'
p77
ag8
aS'&'
p78
aS'variable_15'
p79
ag13
ag13
aS'bool'
p80
aS'variable_16'
p81
ag16
aS'false'
p82
ag20
aS'for'
p83
ag4
aS'size_t'
p84
aS'variable_17'
p85
ag16
ag39
ag20
aS'variable_17'
p86
aS'<'
p87
aS'variable_15'
p88
ag27
aS'func_13'
p89
ag4
ag13
ag20
aS'++'
p90
aS'variable_17'
p91
ag13
aS'RootedId'
p92
aS'func_14'
p93
ag4
aS'variable_1'
p94
ag8
aS'variable_15'
p95
ag65
aS'variable_17'
p96
ag67
ag13
ag20
aS'RootedObject'
p97
aS'func_15'
p98
ag4
aS'variable_1'
p99
ag13
ag20
aS'RootedShape'
p100
aS'func_16'
p101
ag4
aS'variable_1'
p102
ag13
ag20
aS'if'
p103
ag4
ag30
aS'variable_18'
p104
aS':'
p105
ag105
aS'func_17'
p106
ag4
aS'variable_1'
p107
ag8
aS'variable_6'
p108
ag8
aS'variable_19'
p109
ag8
ag78
aS'variable_20'
p110
ag8
ag78
aS'variable_21'
p111
ag13
ag13
aS'int'
p112
aS'variable_22'
p113
ag16
ag39
ag20
aS'if'
p114
ag4
aS'variable_21'
p115
ag13
aS'bool'
p116
aS'variable_23'
p117
ag16
aS'true'
p118
ag20
aS'if'
p119
ag4
aS'variable_20'
p120
aS'->'
p121
aS'func_18'
p122
ag4
ag13
ag13
aS'unsigned'
p123
aS'variable_24'
p124
ag16
aS'variable_21'
p125
aS'->'
p126
aS'func_19'
p127
ag4
ag13
ag20
aS'if'
p128
ag4
aS'variable_24'
p129
ag78
aS'variable_25'
p130
ag13
aS'variable_23'
p131
ag16
aS'false'
p132
ag20
aS'variable_11'
p133
ag65
aS'variable_22'
p134
ag67
ag16
aS'variable_21'
p135
aS'->'
p136
aS'func_20'
p137
ag4
ag13
ag20
aS'variable_13'
p138
ag65
aS'variable_22'
p139
ag67
ag16
aS'variable_1'
p140
aS'->'
p141
aS'variable_26'
p142
aS'->'
p143
aS'variable_27'
p144
ag27
aS'variable_28'
p145
ag20
aS'variable_22'
p146
aS'++'
p147
ag20
aS'if'
p148
ag4
aS'variable_24'
p149
ag78
aS'variable_29'
p150
ag13
aS'variable_23'
p151
ag16
aS'false'
p152
ag20
aS'variable_11'
p153
ag65
aS'variable_22'
p154
ag67
ag16
aS'variable_21'
p155
aS'->'
p156
aS'func_21'
p157
ag4
ag13
ag20
aS'variable_13'
p158
ag65
aS'variable_22'
p159
ag67
ag16
aS'variable_1'
p160
aS'->'
p161
aS'variable_26'
p162
aS'->'
p163
aS'variable_27'
p164
ag27
aS'variable_30'
p165
ag20
aS'variable_22'
p166
aS'++'
p167
ag20
aS'if'
p168
ag4
aS'variable_23'
p169
ag13
aS'variable_22'
p170
ag16
aS'1'
p171
ag20
aS'variable_13'
p172
ag65
ag39
ag67
ag16
aS'NULL'
p173
ag20
aS'MutableHandleValue'
p174
aS'variable_4'
p175
ag16
aS'variable_31'
p176
ag105
ag105
aS'func_22'
p177
ag4
ag78
aS'variable_11'
p178
ag65
ag39
ag67
ag13
ag20
aS'if'
p179
ag4
ag30
aS'variable_18'
p180
ag105
ag105
aS'func_23'
p181
ag4
aS'variable_1'
p182
ag8
aS'variable_6'
p183
ag8
aS'variable_6'
p184
ag8
aS'variable_19'
p185
ag8
aS'variable_4'
p186
ag13
ag13
aS'RawString'
p187
aS'variable_32'
p188
ag16
aS'func_24'
p189
ag4
aS'variable_1'
p190
ag8
aS'func_25'
p191
ag4
aS'variable_19'
p192
ag13
ag13
ag20
aS'if'
p193
ag4
ag30
aS'variable_32'
p194
ag13
aS'variable_33'
p195
ag87
aS'variable_34'
p196
ag6
aS'>'
p197
aS'func_26'
p198
ag4
aS'variable_1'
p199
ag8
aS'variable_32'
p200
aS'->'
p201
aS'func_27'
p202
ag4
aS'variable_1'
p203
ag13
ag13
ag20
aS'if'
p204
ag4
ag30
aS'variable_35'
p205
ag13
aS'if'
p206
ag4
aS'func_28'
p207
ag4
aS'variable_19'
p208
ag13
aS'?'
p209
ag30
aS'func_29'
p210
ag4
aS'variable_35'
p211
ag13
ag105
ag4
ag30
aS'func_30'
p212
ag4
aS'variable_19'
p213
ag13
aS'||'
p214
aS'func_31'
p215
ag4
aS'variable_19'
p216
ag13
ag87
ag39
ag13
ag13
aS'variable_32'
p217
ag16
aS'func_32'
p218
ag4
aS'variable_1'
p219
ag8
aS'variable_35'
p220
ag8
aS'func_33'
p221
ag4
ag58
aS'\\'
p222
ag58
aS'if'
p223
ag4
ag30
aS'variable_32'
p224
aS'||'
p225
ag30
ag4
aS'variable_35'
p226
ag16
aS'variable_32'
p227
aS'->'
p228
aS'func_34'
p229
ag4
aS'variable_1'
p230
ag13
ag13
ag13
aS'for'
p231
ag4
aS'int'
p232
aS'variable_36'
p233
ag16
ag39
ag20
aS'variable_36'
p234
ag87
aS'variable_22'
p235
ag20
aS'variable_36'
p236
aS'++'
p237
ag13
aS'if'
p238
ag4
aS'variable_13'
p239
ag65
aS'variable_36'
p240
ag67
aS'&&'
p241
aS'variable_11'
p242
ag65
aS'variable_36'
p243
ag67
ag27
aS'func_35'
p244
ag4
ag13
ag13
aS'RootedString'
p245
aS'func_36'
p246
ag4
aS'variable_1'
p247
ag8
aS'func_37'
p248
ag4
aS'variable_1'
p249
ag8
aS'variable_11'
p250
ag65
aS'variable_36'
p251
ag67
ag13
ag13
ag20
aS'if'
p252
ag4
ag30
aS'variable_37'
p253
ag13
aS'const'
p254
aS'jschar'
p255
ag6
aS'variable_38'
p256
ag16
aS'variable_37'
p257
aS'->'
p258
aS'func_38'
p259
ag4
aS'variable_1'
p260
ag13
ag20
aS'if'
p261
ag4
ag30
aS'variable_38'
p262
ag13
aS'size_t'
p263
aS'variable_39'
p264
ag16
aS'variable_37'
p265
aS'->'
p266
aS'func_39'
p267
ag4
ag13
ag20
aS'if'
p268
ag4
aS'variable_13'
p269
ag65
aS'variable_36'
p270
ag67
aS'&&'
p271
aS'func_40'
p272
ag4
aS'variable_11'
p273
ag65
aS'variable_36'
p274
ag67
ag13
ag13
aS'const'
p275
aS'jschar'
p276
ag6
aS'variable_40'
p277
ag16
aS'variable_38'
p278
ag20
aS'const'
p279
aS'jschar'
p280
ag6
aS'variable_41'
p281
ag16
aS'variable_38'
p282
aS'+'
p283
aS'variable_39'
p284
ag20
aS'uint8_t'
p285
aS'variable_42'
p286
ag16
ag39
ag20
aS'if'
p287
ag4
aS'variable_38'
p288
ag65
ag39
ag67
aS'=='
p289
ag58
ag4
ag58
ag13
aS'variable_38'
p290
aS'++'
p291
ag20
aS'variable_42'
p292
ag16
ag171
ag20
aS'if'
p293
ag4
aS'variable_38'
p294
ag13
aS'variable_38'
p295
ag16
aS'func_41'
p296
ag4
aS'variable_38'
p297
ag8
ag58
ag58
ag8
aS'variable_41'
p298
ag13
ag20
aS'if'
p299
ag4
aS'variable_38'
p300
ag13
aS'variable_38'
p301
ag16
aS'func_42'
p302
ag4
aS'variable_38'
p303
ag8
ag58
ag4
ag58
ag8
aS'variable_41'
p304
ag13
ag20
aS'if'
p305
ag4
aS'variable_38'
p306
ag13
aS'if'
p307
ag4
ag6
aS'variable_38'
p308
aS'=='
p309
ag58
ag58
ag13
aS'variable_38'
p310
aS'++'
p311
ag20
aS'variable_39'
p312
ag16
aS'variable_41'
p313
aS'-'
p314
aS'variable_38'
p315
ag314
aS'variable_42'
p316
ag20
aS'variable_13'
p317
ag65
aS'variable_36'
p318
ag67
ag16
aS'NULL'
p319
ag20
aS'variable_38'
p320
ag16
aS'variable_40'
p321
ag20
aS'if'
p322
ag4
aS'variable_16'
p323
aS'&&'
p324
ag30
aS'variable_10'
p325
ag27
aS'func_43'
p326
ag4
aS'"'
p327
ag8
ag327
ag13
ag13
aS'variable_16'
p328
ag16
aS'true'
p329
ag20
aS'if'
p330
ag4
aS'variable_13'
p331
ag65
aS'variable_36'
p332
ag67
ag13
aS'if'
p333
ag4
ag30
aS'variable_10'
p334
ag27
aS'func_44'
p335
ag4
aS'variable_13'
p336
ag65
aS'variable_36'
p337
ag67
ag13
aS'||'
p338
ag30
aS'variable_10'
p339
ag27
aS'func_45'
p340
ag4
ag58
ag58
ag13
ag13
aS'if'
p341
ag4
ag30
aS'variable_10'
p342
ag27
aS'func_46'
p343
ag4
aS'variable_35'
p344
ag13
ag13
aS'if'
p345
ag4
ag30
aS'variable_10'
p346
ag27
aS'func_47'
p347
ag4
aS'variable_13'
p348
ag65
aS'variable_36'
p349
ag67
ag209
ag58
ag58
ag105
ag58
ag105
ag58
ag13
ag13
aS'if'
p350
ag4
ag30
aS'variable_10'
p351
ag27
aS'func_48'
p352
ag4
aS'variable_38'
p353
ag8
aS'variable_39'
p354
ag13
ag13
aaa(lp355
I0
aa(lp356
I659
aa(lp357
(lp358
S'main'
p359
aaa(lp360
S'111 ../data/NVD/CVE_2013_0756_PATCHED_obj_toSource.c vlength = end - vchars - parenChomp 144'
p361
aa.