(lp0
(lp1
(lp2
S'variable_0'
p3
aS'*'
p4
aS'variable_1'
p5
ag4
aS'variable_2'
p6
aS','
p7
aS'variable_1'
p8
ag4
aS'variable_3'
p9
ag7
aS'qcms_intent'
p10
aS'variable_4'
p11
aS')'
p12
aS'bool'
p13
aS'variable_5'
p14
aS'='
p15
aS'false'
p16
aS';'
p17
aS'variable_0'
p18
ag4
aS'variable_6'
p19
ag15
aS'func_0'
p20
aS'('
p21
ag12
ag17
aS'if'
p22
ag21
aS'!'
p23
aS'variable_6'
p24
ag12
aS'if'
p25
ag21
aS'variable_7'
p26
aS'!='
p27
aS'variable_8'
p28
aS'&&'
p29
aS'variable_7'
p30
aS'!='
p31
aS'variable_9'
p32
ag12
aS'if'
p33
ag21
aS'variable_3'
p34
aS'->'
p35
aS'variable_10'
p36
aS'&&'
p37
aS'variable_3'
p38
aS'->'
p39
aS'variable_11'
p40
aS'&&'
p41
aS'variable_3'
p42
aS'->'
p43
aS'variable_12'
p44
ag12
aS'variable_5'
p45
ag15
aS'true'
p46
ag17
aS'if'
p47
ag21
aS'variable_13'
p48
aS'&&'
p49
ag21
aS'variable_2'
p50
aS'->'
p51
aS'variable_14'
p52
aS'||'
p53
aS'variable_3'
p54
aS'->'
p55
aS'variable_15'
p56
aS'||'
p57
aS'variable_2'
p58
aS'->'
p59
aS'variable_16'
p60
aS'||'
p61
aS'variable_3'
p62
aS'->'
p63
aS'variable_16'
p64
ag12
ag12
aS'if'
p65
ag21
aS'variable_5'
p66
ag12
aS'if'
p67
ag21
ag23
aS'variable_3'
p68
aS'->'
p69
aS'variable_17'
p70
aS'||'
p71
ag23
aS'variable_3'
p72
aS'->'
p73
aS'variable_18'
p74
aS'||'
p75
ag23
aS'variable_3'
p76
aS'->'
p77
aS'variable_19'
p78
ag12
aS'if'
p79
ag21
ag23
aS'variable_6'
p80
aS'->'
p81
aS'variable_20'
p82
aS'||'
p83
ag23
aS'variable_6'
p84
aS'->'
p85
aS'variable_21'
p86
aS'||'
p87
ag23
aS'variable_6'
p88
aS'->'
p89
aS'variable_22'
p90
ag12
aS'if'
p91
ag21
aS'variable_2'
p92
aS'->'
p93
aS'variable_23'
p94
aS'=='
p95
aS'variable_24'
p96
ag12
aS'if'
p97
ag21
aS'variable_2'
p98
aS'->'
p99
aS'variable_23'
p100
aS'=='
p101
aS'variable_25'
p102
ag12
aS'assert'
p103
ag21
aS'0'
p104
aS'&&'
p105
aS'"'
p106
aS'unexpected'
p107
aS'colorspace'
p108
ag106
ag12
ag17
aa(lp109
S'variable_0'
p110
ag4
aS'variable_1'
p111
ag4
aS'variable_2'
p112
ag7
aS'variable_1'
p113
ag4
aS'variable_3'
p114
ag7
aS'qcms_intent'
p115
aS'variable_4'
p116
ag12
aS'bool'
p117
aS'variable_5'
p118
ag15
aS'false'
p119
ag17
aS'variable_0'
p120
ag4
aS'variable_6'
p121
ag15
aS'func_0'
p122
ag21
ag12
ag17
aS'if'
p123
ag21
ag23
aS'variable_6'
p124
ag12
aS'if'
p125
ag21
aS'variable_7'
p126
aS'!='
p127
aS'variable_8'
p128
aS'&&'
p129
aS'variable_7'
p130
aS'!='
p131
aS'variable_9'
p132
ag12
aS'if'
p133
ag21
aS'variable_3'
p134
aS'->'
p135
aS'variable_10'
p136
aS'&&'
p137
aS'variable_3'
p138
aS'->'
p139
aS'variable_11'
p140
aS'&&'
p141
aS'variable_3'
p142
aS'->'
p143
aS'variable_12'
p144
ag12
aS'variable_5'
p145
ag15
aS'true'
p146
ag17
aS'if'
p147
ag21
aS'variable_13'
p148
aS'&&'
p149
ag21
aS'variable_2'
p150
aS'->'
p151
aS'variable_14'
p152
aS'||'
p153
aS'variable_3'
p154
aS'->'
p155
aS'variable_15'
p156
aS'||'
p157
aS'variable_2'
p158
aS'->'
p159
aS'variable_16'
p160
aS'||'
p161
aS'variable_3'
p162
aS'->'
p163
aS'variable_16'
p164
ag12
ag12
aS'if'
p165
ag21
aS'variable_5'
p166
ag12
aS'if'
p167
ag21
ag23
aS'variable_3'
p168
aS'->'
p169
aS'variable_17'
p170
aS'||'
p171
ag23
aS'variable_3'
p172
aS'->'
p173
aS'variable_18'
p174
aS'||'
p175
ag23
aS'variable_3'
p176
aS'->'
p177
aS'variable_19'
p178
ag12
aS'if'
p179
ag21
ag23
aS'variable_6'
p180
aS'->'
p181
aS'variable_20'
p182
aS'||'
p183
ag23
aS'variable_6'
p184
aS'->'
p185
aS'variable_21'
p186
aS'||'
p187
ag23
aS'variable_6'
p188
aS'->'
p189
aS'variable_22'
p190
ag12
aS'if'
p191
ag21
aS'variable_2'
p192
aS'->'
p193
aS'variable_23'
p194
aS'=='
p195
aS'variable_24'
p196
ag12
aS'if'
p197
ag21
aS'variable_2'
p198
aS'->'
p199
aS'variable_23'
p200
aS'=='
p201
aS'variable_25'
p202
ag12
aS'if'
p203
ag21
aS'variable_26'
p204
aS'!='
p205
aS'variable_27'
p206
aS'&&'
p207
aS'variable_26'
p208
aS'!='
p209
aS'variable_28'
p210
ag12
aS'assert'
p211
ag21
ag104
aS'&&'
p212
ag106
aS'input'
p213
aS'type'
p214
ag106
ag12
ag17
aa(lp215
S'variable_0'
p216
ag4
aS'variable_1'
p217
ag4
aS'variable_2'
p218
ag7
aS'variable_1'
p219
ag4
aS'variable_3'
p220
ag7
aS'qcms_intent'
p221
aS'variable_4'
p222
ag12
aS'bool'
p223
aS'variable_5'
p224
ag15
aS'false'
p225
ag17
aS'variable_0'
p226
ag4
aS'variable_6'
p227
ag15
aS'func_0'
p228
ag21
ag12
ag17
aS'if'
p229
ag21
ag23
aS'variable_6'
p230
ag12
aS'if'
p231
ag21
aS'variable_7'
p232
aS'!='
p233
aS'variable_8'
p234
aS'&&'
p235
aS'variable_7'
p236
aS'!='
p237
aS'variable_9'
p238
ag12
aS'if'
p239
ag21
aS'variable_3'
p240
aS'->'
p241
aS'variable_10'
p242
aS'&&'
p243
aS'variable_3'
p244
aS'->'
p245
aS'variable_11'
p246
aS'&&'
p247
aS'variable_3'
p248
aS'->'
p249
aS'variable_12'
p250
ag12
aS'variable_5'
p251
ag15
aS'true'
p252
ag17
aS'if'
p253
ag21
aS'variable_13'
p254
aS'&&'
p255
ag21
aS'variable_2'
p256
aS'->'
p257
aS'variable_14'
p258
aS'||'
p259
aS'variable_3'
p260
aS'->'
p261
aS'variable_15'
p262
aS'||'
p263
aS'variable_2'
p264
aS'->'
p265
aS'variable_16'
p266
aS'||'
p267
aS'variable_3'
p268
aS'->'
p269
aS'variable_16'
p270
ag12
ag12
aS'if'
p271
ag21
aS'variable_5'
p272
ag12
aS'if'
p273
ag21
ag23
aS'variable_3'
p274
aS'->'
p275
aS'variable_17'
p276
aS'||'
p277
ag23
aS'variable_3'
p278
aS'->'
p279
aS'variable_18'
p280
aS'||'
p281
ag23
aS'variable_3'
p282
aS'->'
p283
aS'variable_19'
p284
ag12
aS'if'
p285
ag21
ag23
aS'variable_6'
p286
aS'->'
p287
aS'variable_20'
p288
aS'||'
p289
ag23
aS'variable_6'
p290
aS'->'
p291
aS'variable_21'
p292
aS'||'
p293
ag23
aS'variable_6'
p294
aS'->'
p295
aS'variable_22'
p296
ag12
aS'if'
p297
ag21
aS'variable_2'
p298
aS'->'
p299
aS'variable_23'
p300
aS'=='
p301
aS'variable_24'
p302
ag12
aS'if'
p303
ag21
aS'variable_25'
p304
aS'!='
p305
aS'variable_8'
p306
aS'&&'
p307
aS'variable_25'
p308
aS'!='
p309
aS'variable_9'
p310
ag12
aS'assert'
p311
ag21
ag104
aS'&&'
p312
ag106
aS'input'
p313
aS'type'
p314
ag106
ag12
ag17
aa(lp315
S'variable_0'
p316
ag4
aS'variable_1'
p317
ag4
aS'variable_2'
p318
ag7
aS'variable_1'
p319
ag4
aS'variable_3'
p320
ag7
aS'qcms_intent'
p321
aS'variable_4'
p322
ag12
aS'variable_0'
p323
ag4
aS'variable_5'
p324
ag15
aS'func_0'
p325
ag21
ag12
ag17
aS'if'
p326
ag21
ag23
aS'variable_5'
p327
ag12
aS'if'
p328
ag21
aS'variable_6'
p329
aS'!='
p330
aS'variable_7'
p331
aS'&&'
p332
aS'variable_6'
p333
aS'!='
p334
aS'variable_8'
p335
ag12
aS'if'
p336
ag21
aS'variable_9'
p337
aS'&&'
p338
ag21
aS'variable_2'
p339
aS'->'
p340
aS'variable_10'
p341
aS'||'
p342
aS'variable_3'
p343
aS'->'
p344
aS'variable_11'
p345
aS'||'
p346
aS'variable_2'
p347
aS'->'
p348
aS'variable_12'
p349
aS'||'
p350
aS'variable_3'
p351
aS'->'
p352
aS'variable_12'
p353
ag12
ag12
aS'variable_0'
p354
ag4
aS'variable_13'
p355
ag15
aS'func_1'
p356
ag21
aS'variable_5'
p357
ag7
aS'variable_2'
p358
ag7
aS'variable_3'
p359
ag7
aS'33'
p360
ag7
aS'variable_14'
p361
ag12
ag17
aS'if'
p362
ag21
ag23
aS'variable_13'
p363
ag12
aS'assert'
p364
ag21
ag104
aS'&&'
p365
ag106
aS'precacheLUT'
p366
aS'failed'
p367
ag106
ag12
ag17
aaa(lp368
I0
aI0
aI0
aI0
aa(lp369
I135
aI145
aI137
aI80
aa(lp370
(lp371
S'main'
p372
aa(lp373
g372
aa(lp374
g372
aa(lp375
g372
aaa(lp376
S'115 ../data/NVD/CVE_2013_0792_VULN_qcms_transform_create.c assert 160'
p377
aS'116 ../data/NVD/CVE_2013_0792_VULN_qcms_transform_create.c assert 135'
p378
aS'117 ../data/NVD/CVE_2013_0792_VULN_qcms_transform_create.c assert 63'
p379
aS'118 ../data/NVD/CVE_2013_0792_VULN_qcms_transform_create.c assert 33'
p380
aa.