(lp0
(lp1
(lp2
S'static'
p3
aS'int'
p4
aS'func_0'
p5
aS'('
p6
aS'struct'
p7
aS'variable_0'
p8
aS'*'
p9
aS'variable_1'
p10
aS','
p11
aS'struct'
p12
aS'variable_2'
p13
ag9
aS'variable_3'
p14
aS')'
p15
aS'struct'
p16
aS'variable_4'
p17
ag9
aS'variable_5'
p18
aS';'
p19
aS'struct'
p20
aS'variable_6'
p21
ag9
aS'variable_7'
p22
ag19
aS'variable_7'
p23
aS'='
p24
aS'func_1'
p25
ag6
aS'variable_3'
p26
ag11
aS'variable_8'
p27
ag11
aS'sizeof'
p28
ag6
ag9
aS'variable_5'
p29
ag15
aS'+'
p30
ag6
aS'variable_1'
p31
aS'->'
p32
aS'variable_9'
p33
ag30
aS'7'
p34
ag15
aS'/'
p35
aS'8'
p36
ag15
ag19
aS'if'
p37
ag6
aS'!'
p38
aS'variable_7'
p39
ag15
aS'variable_5'
p40
ag24
aS'func_2'
p41
ag6
aS'variable_7'
p42
ag15
ag19
aS'strncpy'
p43
ag6
aS'variable_5'
p44
aS'->'
p45
aS'variable_10'
p46
ag11
aS'variable_1'
p47
aS'->'
p48
aS'variable_10'
p49
ag11
aS'sizeof'
p50
ag6
aS'variable_5'
p51
aS'->'
p52
aS'variable_10'
p53
ag15
ag15
ag19
aS'memcpy'
p54
ag6
aS'variable_5'
p55
aS'->'
p56
aS'variable_11'
p57
ag11
aS'variable_1'
p58
aS'->'
p59
aS'variable_11'
p60
ag11
ag6
aS'variable_1'
p61
aS'->'
p62
aS'variable_9'
p63
ag30
ag34
ag15
ag35
ag36
ag15
ag19
aS'variable_5'
p64
aS'->'
p65
aS'variable_9'
p66
ag24
aS'variable_1'
p67
aS'->'
p68
aS'variable_9'
p69
ag19
aaa(lp70
I0
aa(lp71
I61
aa(lp72
(lp73
S'main'
p74
aaa(lp75
S'75 ../data/NVD/CVE_2012_6538_PATCHED_copy_to_user_auth.c strncpy 12'
p76
aa.