(lp0
(lp1
(lp2
S'uint32_t'
p3
aS'variable_0'
p4
aS':'
p5
ag5
aS'func_0'
p6
aS'('
p7
aS')'
p8
aS'int'
p9
aS'variable_1'
p10
aS','
p11
aS'variable_2'
p12
aS';'
p13
aS'variable_1'
p14
aS'='
p15
aS'variable_2'
p16
ag15
aS'variable_3'
p17
aS'.'
p18
aS'variable_4'
p19
ag13
aS'if'
p20
ag7
ag7
aS'unsigned'
p21
ag8
aS'variable_1'
p22
aS'>'
p23
ag15
aS'variable_3'
p24
ag18
aS'variable_5'
p25
ag8
aS'if'
p26
ag7
aS'!'
p27
aS'variable_3'
p28
ag18
aS'variable_6'
p29
ag8
aS'const'
p30
aS'uint32_t'
p31
aS'variable_7'
p32
ag15
aS'sizeof'
p33
ag7
aS'variable_8'
p34
ag8
aS'*'
p35
aS'variable_3'
p36
ag18
aS'variable_9'
p37
ag13
aS'variable_10'
p38
ag35
aS'variable_11'
p39
ag15
aS'variable_12'
p40
aS'+'
p41
ag7
aS'variable_3'
p42
ag18
aS'variable_4'
p43
ag35
aS'variable_7'
p44
ag8
ag13
aS'variable_10'
p45
ag35
aS'variable_13'
p46
ag15
aS'variable_11'
p47
ag41
aS'variable_3'
p48
ag18
aS'variable_9'
p49
ag13
ag35
aS'--'
p50
aS'variable_14'
p51
ag15
aS'variable_15'
p52
aS'['
p53
ag35
aS'--'
p54
aS'variable_13'
p55
aS']'
p56
ag13
aa(lp57
S'uint32_t'
p58
aS'variable_0'
p59
ag5
ag5
aS'func_0'
p60
ag7
ag8
aS'int'
p61
aS'variable_1'
p62
ag11
aS'variable_2'
p63
ag13
aS'variable_1'
p64
ag15
aS'variable_2'
p65
ag15
aS'variable_3'
p66
ag18
aS'variable_4'
p67
ag13
aS'if'
p68
ag7
ag7
aS'unsigned'
p69
ag8
aS'variable_1'
p70
ag23
ag15
aS'variable_3'
p71
ag18
aS'variable_5'
p72
ag8
aS'if'
p73
ag7
ag27
aS'variable_3'
p74
ag18
aS'variable_6'
p75
ag8
aS'const'
p76
aS'uint32_t'
p77
aS'variable_7'
p78
ag15
aS'sizeof'
p79
ag7
aS'variable_8'
p80
ag8
ag35
aS'variable_3'
p81
ag18
aS'variable_9'
p82
ag13
aS'variable_10'
p83
ag35
aS'variable_11'
p84
ag15
aS'variable_12'
p85
ag41
ag7
aS'variable_3'
p86
ag18
aS'variable_4'
p87
ag35
aS'variable_7'
p88
ag8
ag13
aS'variable_10'
p89
ag35
aS'variable_13'
p90
ag15
aS'variable_11'
p91
ag41
aS'variable_3'
p92
ag18
aS'variable_9'
p93
ag13
aS'variable_8'
p94
ag35
aS'variable_14'
p95
ag15
ag7
ag7
aS'uint32_t'
p96
ag35
ag8
aS'variable_11'
p97
ag8
ag41
aS'variable_3'
p98
ag18
aS'variable_9'
p99
ag13
ag35
aS'--'
p100
aS'variable_14'
p101
ag15
aS'variable_15'
p102
ag53
ag35
aS'--'
p103
aS'variable_13'
p104
ag56
ag13
aS'const'
p105
aS'uint32_t'
p106
ag35
aS'variable_16'
p107
ag15
ag7
aS'uint32_t'
p108
ag35
ag8
aS'variable_11'
p109
ag13
aS'if'
p110
ag7
ag35
aS'variable_16'
p111
aS'++'
p112
aS'=='
p113
aS'0'
p114
ag8
aS'memcpy'
p115
ag7
aS'variable_12'
p116
ag41
ag7
aS'variable_17'
p117
ag35
aS'variable_7'
p118
ag8
ag11
aS'variable_11'
p119
ag11
aS'variable_7'
p120
ag8
ag13
aaa(lp121
I0
aI0
aa(lp122
I74
aI64
aa(lp123
(lp124
S'main'
p125
aa(lp126
g125
aaa(lp127
S'212 ../data/NVD/CVE_2013_0772_PATCHED_nsGIFDecoder2__OutputRow.c uint8_t * from = rowp + mGIFStruct . width ; 43'
p128
aS'213 ../data/NVD/CVE_2013_0772_PATCHED_nsGIFDecoder2__OutputRow.c uint8_t * rowp = mImageData + ( mGIFStruct . irow * bpr ) ; 40'
p129
aa.