(lp0
(lp1
(lp2
S'variable_0'
p3
aS'*'
p4
aS'variable_1'
p5
ag4
aS'variable_2'
p6
aS','
p7
aS'variable_1'
p8
ag4
aS'variable_3'
p9
ag7
aS'qcms_intent'
p10
aS'variable_4'
p11
aS')'
p12
aS'bool'
p13
aS'variable_5'
p14
aS'='
p15
aS'false'
p16
aS';'
p17
aS'variable_0'
p18
ag4
aS'variable_6'
p19
ag15
aS'func_0'
p20
aS'('
p21
ag12
ag17
aS'if'
p22
ag21
aS'!'
p23
aS'variable_6'
p24
ag12
aS'if'
p25
ag21
aS'variable_7'
p26
aS'!='
p27
aS'variable_8'
p28
aS'&&'
p29
aS'variable_7'
p30
aS'!='
p31
aS'variable_9'
p32
ag12
aS'if'
p33
ag21
aS'variable_3'
p34
aS'->'
p35
aS'variable_10'
p36
aS'&&'
p37
aS'variable_3'
p38
aS'->'
p39
aS'variable_11'
p40
aS'&&'
p41
aS'variable_3'
p42
aS'->'
p43
aS'variable_12'
p44
ag12
aS'variable_5'
p45
ag15
aS'true'
p46
ag17
aS'if'
p47
ag21
aS'variable_13'
p48
aS'&&'
p49
ag21
aS'variable_14'
p50
aS'=='
p51
aS'variable_8'
p52
aS'||'
p53
aS'variable_14'
p54
aS'=='
p55
aS'variable_9'
p56
ag12
aS'&&'
p57
ag21
aS'variable_2'
p58
aS'->'
p59
aS'variable_15'
p60
aS'||'
p61
aS'variable_3'
p62
aS'->'
p63
aS'variable_16'
p64
aS'||'
p65
aS'variable_2'
p66
aS'->'
p67
aS'variable_17'
p68
aS'||'
p69
aS'variable_3'
p70
aS'->'
p71
aS'variable_17'
p72
ag12
ag12
aS'if'
p73
ag21
aS'variable_5'
p74
ag12
aS'if'
p75
ag21
ag23
aS'variable_3'
p76
aS'->'
p77
aS'variable_18'
p78
aS'||'
p79
ag23
aS'variable_3'
p80
aS'->'
p81
aS'variable_19'
p82
aS'||'
p83
ag23
aS'variable_3'
p84
aS'->'
p85
aS'variable_20'
p86
ag12
aS'if'
p87
ag21
ag23
aS'variable_6'
p88
aS'->'
p89
aS'variable_21'
p90
aS'||'
p91
ag23
aS'variable_6'
p92
aS'->'
p93
aS'variable_22'
p94
aS'||'
p95
ag23
aS'variable_6'
p96
aS'->'
p97
aS'variable_23'
p98
ag12
aS'if'
p99
ag21
aS'variable_2'
p100
aS'->'
p101
aS'variable_24'
p102
aS'=='
p103
aS'variable_25'
p104
ag12
aS'if'
p105
ag21
aS'variable_2'
p106
aS'->'
p107
aS'variable_24'
p108
aS'=='
p109
aS'variable_26'
p110
ag12
aS'assert'
p111
ag21
aS'0'
p112
aS'&&'
p113
aS'"'
p114
aS'unexpected'
p115
aS'colorspace'
p116
ag114
ag12
ag17
aa(lp117
S'variable_0'
p118
ag4
aS'variable_1'
p119
ag4
aS'variable_2'
p120
ag7
aS'variable_1'
p121
ag4
aS'variable_3'
p122
ag7
aS'qcms_intent'
p123
aS'variable_4'
p124
ag12
aS'bool'
p125
aS'variable_5'
p126
ag15
aS'false'
p127
ag17
aS'variable_0'
p128
ag4
aS'variable_6'
p129
ag15
aS'func_0'
p130
ag21
ag12
ag17
aS'if'
p131
ag21
ag23
aS'variable_6'
p132
ag12
aS'if'
p133
ag21
aS'variable_7'
p134
aS'!='
p135
aS'variable_8'
p136
aS'&&'
p137
aS'variable_7'
p138
aS'!='
p139
aS'variable_9'
p140
ag12
aS'if'
p141
ag21
aS'variable_3'
p142
aS'->'
p143
aS'variable_10'
p144
aS'&&'
p145
aS'variable_3'
p146
aS'->'
p147
aS'variable_11'
p148
aS'&&'
p149
aS'variable_3'
p150
aS'->'
p151
aS'variable_12'
p152
ag12
aS'variable_5'
p153
ag15
aS'true'
p154
ag17
aS'if'
p155
ag21
aS'variable_13'
p156
aS'&&'
p157
ag21
aS'variable_14'
p158
aS'=='
p159
aS'variable_8'
p160
aS'||'
p161
aS'variable_14'
p162
aS'=='
p163
aS'variable_9'
p164
ag12
aS'&&'
p165
ag21
aS'variable_2'
p166
aS'->'
p167
aS'variable_15'
p168
aS'||'
p169
aS'variable_3'
p170
aS'->'
p171
aS'variable_16'
p172
aS'||'
p173
aS'variable_2'
p174
aS'->'
p175
aS'variable_17'
p176
aS'||'
p177
aS'variable_3'
p178
aS'->'
p179
aS'variable_17'
p180
ag12
ag12
aS'if'
p181
ag21
aS'variable_5'
p182
ag12
aS'if'
p183
ag21
ag23
aS'variable_3'
p184
aS'->'
p185
aS'variable_18'
p186
aS'||'
p187
ag23
aS'variable_3'
p188
aS'->'
p189
aS'variable_19'
p190
aS'||'
p191
ag23
aS'variable_3'
p192
aS'->'
p193
aS'variable_20'
p194
ag12
aS'if'
p195
ag21
ag23
aS'variable_6'
p196
aS'->'
p197
aS'variable_21'
p198
aS'||'
p199
ag23
aS'variable_6'
p200
aS'->'
p201
aS'variable_22'
p202
aS'||'
p203
ag23
aS'variable_6'
p204
aS'->'
p205
aS'variable_23'
p206
ag12
aS'if'
p207
ag21
aS'variable_2'
p208
aS'->'
p209
aS'variable_24'
p210
aS'=='
p211
aS'variable_25'
p212
ag12
aS'if'
p213
ag21
aS'variable_2'
p214
aS'->'
p215
aS'variable_24'
p216
aS'=='
p217
aS'variable_26'
p218
ag12
aS'if'
p219
ag21
aS'variable_14'
p220
aS'!='
p221
aS'variable_27'
p222
aS'&&'
p223
aS'variable_14'
p224
aS'!='
p225
aS'variable_28'
p226
ag12
aS'assert'
p227
ag21
ag112
aS'&&'
p228
ag114
aS'input'
p229
aS'type'
p230
ag114
ag12
ag17
aa(lp231
S'variable_0'
p232
ag4
aS'variable_1'
p233
ag4
aS'variable_2'
p234
ag7
aS'variable_1'
p235
ag4
aS'variable_3'
p236
ag7
aS'qcms_intent'
p237
aS'variable_4'
p238
ag12
aS'bool'
p239
aS'variable_5'
p240
ag15
aS'false'
p241
ag17
aS'variable_0'
p242
ag4
aS'variable_6'
p243
ag15
aS'func_0'
p244
ag21
ag12
ag17
aS'if'
p245
ag21
ag23
aS'variable_6'
p246
ag12
aS'if'
p247
ag21
aS'variable_7'
p248
aS'!='
p249
aS'variable_8'
p250
aS'&&'
p251
aS'variable_7'
p252
aS'!='
p253
aS'variable_9'
p254
ag12
aS'if'
p255
ag21
aS'variable_3'
p256
aS'->'
p257
aS'variable_10'
p258
aS'&&'
p259
aS'variable_3'
p260
aS'->'
p261
aS'variable_11'
p262
aS'&&'
p263
aS'variable_3'
p264
aS'->'
p265
aS'variable_12'
p266
ag12
aS'variable_5'
p267
ag15
aS'true'
p268
ag17
aS'if'
p269
ag21
aS'variable_13'
p270
aS'&&'
p271
ag21
aS'variable_14'
p272
aS'=='
p273
aS'variable_8'
p274
aS'||'
p275
aS'variable_14'
p276
aS'=='
p277
aS'variable_9'
p278
ag12
aS'&&'
p279
ag21
aS'variable_2'
p280
aS'->'
p281
aS'variable_15'
p282
aS'||'
p283
aS'variable_3'
p284
aS'->'
p285
aS'variable_16'
p286
aS'||'
p287
aS'variable_2'
p288
aS'->'
p289
aS'variable_17'
p290
aS'||'
p291
aS'variable_3'
p292
aS'->'
p293
aS'variable_17'
p294
ag12
ag12
aS'if'
p295
ag21
aS'variable_5'
p296
ag12
aS'if'
p297
ag21
ag23
aS'variable_3'
p298
aS'->'
p299
aS'variable_18'
p300
aS'||'
p301
ag23
aS'variable_3'
p302
aS'->'
p303
aS'variable_19'
p304
aS'||'
p305
ag23
aS'variable_3'
p306
aS'->'
p307
aS'variable_20'
p308
ag12
aS'if'
p309
ag21
ag23
aS'variable_6'
p310
aS'->'
p311
aS'variable_21'
p312
aS'||'
p313
ag23
aS'variable_6'
p314
aS'->'
p315
aS'variable_22'
p316
aS'||'
p317
ag23
aS'variable_6'
p318
aS'->'
p319
aS'variable_23'
p320
ag12
aS'if'
p321
ag21
aS'variable_2'
p322
aS'->'
p323
aS'variable_24'
p324
aS'=='
p325
aS'variable_25'
p326
ag12
aS'if'
p327
ag21
aS'variable_14'
p328
aS'!='
p329
aS'variable_8'
p330
aS'&&'
p331
aS'variable_14'
p332
aS'!='
p333
aS'variable_9'
p334
ag12
aS'assert'
p335
ag21
ag112
aS'&&'
p336
ag114
aS'input'
p337
aS'type'
p338
ag114
ag12
ag17
aa(lp339
S'variable_0'
p340
ag4
aS'variable_1'
p341
ag4
aS'variable_2'
p342
ag7
aS'variable_1'
p343
ag4
aS'variable_3'
p344
ag7
aS'qcms_intent'
p345
aS'variable_4'
p346
ag12
aS'variable_0'
p347
ag4
aS'variable_5'
p348
ag15
aS'func_0'
p349
ag21
ag12
ag17
aS'if'
p350
ag21
ag23
aS'variable_5'
p351
ag12
aS'if'
p352
ag21
aS'variable_6'
p353
aS'!='
p354
aS'variable_7'
p355
aS'&&'
p356
aS'variable_6'
p357
aS'!='
p358
aS'variable_8'
p359
ag12
aS'if'
p360
ag21
aS'variable_9'
p361
aS'&&'
p362
ag21
aS'variable_10'
p363
aS'=='
p364
aS'variable_7'
p365
aS'||'
p366
aS'variable_10'
p367
aS'=='
p368
aS'variable_8'
p369
ag12
aS'&&'
p370
ag21
aS'variable_2'
p371
aS'->'
p372
aS'variable_11'
p373
aS'||'
p374
aS'variable_3'
p375
aS'->'
p376
aS'variable_12'
p377
aS'||'
p378
aS'variable_2'
p379
aS'->'
p380
aS'variable_13'
p381
aS'||'
p382
aS'variable_3'
p383
aS'->'
p384
aS'variable_13'
p385
ag12
ag12
aS'variable_0'
p386
ag4
aS'variable_14'
p387
ag15
aS'func_1'
p388
ag21
aS'variable_5'
p389
ag7
aS'variable_2'
p390
ag7
aS'variable_3'
p391
ag7
aS'33'
p392
ag7
aS'variable_10'
p393
ag12
ag17
aS'if'
p394
ag21
ag23
aS'variable_14'
p395
ag12
aS'assert'
p396
ag21
ag112
aS'&&'
p397
ag114
aS'precacheLUT'
p398
aS'failed'
p399
ag114
ag12
ag17
aa(lp400
S'variable_0'
p401
ag4
aS'variable_1'
p402
ag4
aS'variable_2'
p403
ag7
aS'variable_1'
p404
ag4
aS'variable_3'
p405
ag7
aS'qcms_intent'
p406
aS'variable_4'
p407
ag12
aS'variable_0'
p408
ag4
aS'variable_5'
p409
ag15
aS'func_0'
p410
ag21
ag12
ag17
aS'if'
p411
ag21
ag23
aS'variable_5'
p412
ag12
aS'if'
p413
ag21
aS'variable_6'
p414
aS'!='
p415
aS'variable_7'
p416
aS'&&'
p417
aS'variable_6'
p418
aS'!='
p419
aS'variable_8'
p420
ag12
aS'assert'
p421
ag21
ag112
aS'&&'
p422
ag114
aS'output'
p423
aS'type'
p424
ag114
ag12
ag17
aaa(lp425
I0
aI0
aI0
aI0
aI0
aa(lp426
I145
aI155
aI147
aI90
aI36
aa(lp427
(lp428
S'main'
p429
aa(lp430
g429
aa(lp431
g429
aa(lp432
g429
aa(lp433
g429
aaa(lp434
S'110 ../data/NVD/CVE_2013_0792_PATCHED_qcms_transform_create.c assert 164'
p435
aS'111 ../data/NVD/CVE_2013_0792_PATCHED_qcms_transform_create.c assert 139'
p436
aS'112 ../data/NVD/CVE_2013_0792_PATCHED_qcms_transform_create.c assert 67'
p437
aS'113 ../data/NVD/CVE_2013_0792_PATCHED_qcms_transform_create.c assert 37'
p438
aS'114 ../data/NVD/CVE_2013_0792_PATCHED_qcms_transform_create.c assert 14'
p439
aa.