(lp0
I44
aI45
aI46
aI47
aI48
aI49
aI50
aI74
aI82
aI92
aI98
aI104
aI106
aI109
aI134
aI140
aI149
aI151
aI152
aI153
aI159
aI160
aI162
aI164
aI165
aI166
aI183
aI196
aI198
aI202
aI203
aI226
aI228
aI232
aI235
a.