(lp0
(lp1
(lp2
S'func_0'
p3
aS'('
p4
aS'variable_0'
p5
aS'*'
p6
aS'variable_1'
p7
aS','
p8
aS'variable_2'
p9
ag6
aS'variable_3'
p10
ag8
aS'int'
p11
aS'variable_4'
p12
ag8
aS'unsigned'
p13
aS'int'
p14
aS'variable_5'
p15
ag8
aS'unsigned'
p16
aS'int'
p17
aS'variable_6'
p18
ag8
aS'guint32'
p19
aS'variable_7'
p20
aS')'
p21
aS'unsigned'
p22
aS'int'
p23
aS'variable_8'
p24
aS';'
p25
aS'char'
p26
aS'variable_9'
p27
aS'['
p28
aS'5'
p29
aS']'
p30
ag25
aS'guint'
p31
aS'variable_10'
p32
ag25
aS'guint'
p33
aS'variable_11'
p34
ag25
aS'static'
p35
aS'const'
p36
aS'char'
p37
aS'variable_12'
p38
ag28
ag30
aS'='
p39
aS'"'
p40
aS'PoC1'
p41
ag40
ag25
aS'variable_4'
p42
aS'+='
p43
aS'4'
p44
ag25
aS'variable_6'
p45
aS'-='
p46
ag44
ag25
aS'for'
p47
ag4
aS'variable_8'
p48
ag39
aS'0'
p49
ag25
aS'variable_8'
p50
aS'<'
p51
ag44
ag25
aS'variable_8'
p52
aS'++'
p53
ag21
aS'variable_9'
p54
ag28
aS'variable_8'
p55
ag30
ag39
aS'func_1'
p56
ag4
aS'variable_1'
p57
ag8
aS'variable_4'
p58
aS'+'
p59
aS'variable_8'
p60
ag21
ag25
aS'variable_9'
p61
ag28
ag44
ag30
ag39
aS"'"
p62
aS'\\'
p63
ag49
ag62
ag25
aS'if'
p64
ag4
aS'func_2'
p65
ag4
aS'variable_9'
p66
ag8
aS'variable_12'
p67
ag8
ag44
ag21
aS'=='
p68
ag49
ag21
aS'guint8'
p69
aS'variable_13'
p70
ag8
aS'variable_14'
p71
ag25
aS'variable_4'
p72
aS'+='
p73
ag44
ag25
aS'variable_6'
p74
aS'-='
p75
ag44
ag25
aS'if'
p76
ag4
aS'variable_6'
p77
aS'=='
p78
ag49
ag21
aS'if'
p79
ag4
aS'variable_5'
p80
ag21
aS'variable_6'
p81
aS'-='
p82
aS'func_3'
p83
ag4
aS'variable_1'
p84
ag8
aS'variable_4'
p85
ag59
aS'variable_6'
p86
aS'-'
p87
aS'1'
p88
ag21
ag25
aS'switch'
p89
ag4
aS'variable_15'
p90
ag21
aS'guint8'
p91
aS'variable_16'
p92
ag25
aS'if'
p93
ag4
aS'func_4'
p94
ag4
aS'variable_1'
p95
ag8
aS'variable_4'
p96
ag21
aS'=='
p97
ag49
ag21
aS'variable_16'
p98
ag39
aS'func_5'
p99
ag4
aS'variable_1'
p100
ag8
aS'variable_4'
p101
ag21
ag25
aS'variable_4'
p102
aS'+='
p103
ag88
ag25
aS'variable_6'
p104
aS'-='
p105
ag88
ag25
aS'if'
p106
ag4
aS'variable_16'
p107
aS'=='
p108
aS'102'
p109
ag21
aS'variable_11'
p110
ag39
aS'func_6'
p111
ag4
aS'variable_1'
p112
ag8
aS'variable_4'
p113
ag21
ag25
aS'variable_4'
p114
aS'+='
p115
ag88
ag25
aS'variable_6'
p116
aS'-='
p117
ag88
ag25
aS'if'
p118
ag4
aS'variable_11'
p119
aS'!='
p120
aS'2'
p121
ag21
aS'variable_4'
p122
aS'+='
p123
ag121
ag25
aS'variable_6'
p124
aS'-='
p125
ag121
ag25
aS'if'
p126
ag4
aS'func_7'
p127
ag4
aS'variable_1'
p128
ag8
aS'variable_4'
p129
ag21
aS'=='
p130
ag49
ag21
aS'variable_16'
p131
ag39
aS'func_8'
p132
ag4
aS'variable_1'
p133
ag8
aS'variable_4'
p134
ag21
ag25
aS'variable_4'
p135
aS'+='
p136
ag88
ag25
aS'variable_6'
p137
aS'-='
p138
ag88
ag25
aS'if'
p139
ag4
aS'variable_16'
p140
aS'=='
p141
aS'103'
p142
ag21
aS'variable_11'
p143
ag39
aS'func_9'
p144
ag4
aS'variable_1'
p145
ag8
aS'variable_4'
p146
ag21
ag25
aS'variable_4'
p147
aS'+='
p148
ag88
ag25
aS'variable_6'
p149
aS'-='
p150
ag88
ag25
aS'if'
p151
ag4
aS'variable_11'
p152
aS'!='
p153
aS'8'
p154
ag21
aS'variable_4'
p155
aS'+='
p156
ag154
ag25
aS'variable_6'
p157
aS'-='
p158
ag154
ag25
aS'variable_13'
p159
ag39
aS'func_10'
p160
ag4
aS'variable_1'
p161
ag8
aS'variable_4'
p162
ag21
ag25
aS'variable_4'
p163
aS'+='
p164
ag88
ag25
aS'variable_6'
p165
aS'-='
p166
ag88
ag25
aS'if'
p167
ag4
aS'variable_13'
p168
aS'!='
p169
aS'101'
p170
ag21
aS'variable_11'
p171
ag39
aS'func_11'
p172
ag4
aS'variable_1'
p173
ag8
aS'variable_4'
p174
ag21
ag25
aS'variable_4'
p175
aS'+='
p176
ag88
ag25
aS'variable_6'
p177
aS'-='
p178
ag88
ag25
aS'if'
p179
ag4
aS'variable_11'
p180
aS'!='
p181
ag121
ag21
aS'variable_4'
p182
aS'+='
p183
aS'variable_11'
p184
ag25
aS'variable_6'
p185
aS'-='
p186
aS'variable_11'
p187
ag25
aS'if'
p188
ag4
aS'func_12'
p189
ag4
aS'variable_1'
p190
ag8
aS'variable_4'
p191
ag21
aS'=='
p192
ag49
ag21
aS'variable_14'
p193
ag39
aS'func_13'
p194
ag4
aS'variable_1'
p195
ag8
aS'variable_4'
p196
ag21
ag25
aS'variable_4'
p197
aS'+='
p198
ag88
ag25
aS'variable_6'
p199
aS'-='
p200
ag88
ag25
aS'if'
p201
ag4
aS'variable_14'
p202
aS'!='
p203
aS'100'
p204
ag21
aS'variable_11'
p205
ag39
aS'func_14'
p206
ag4
aS'variable_1'
p207
ag8
aS'variable_4'
p208
ag21
ag25
aS'variable_4'
p209
aS'+='
p210
ag88
ag25
aS'variable_6'
p211
aS'-='
p212
ag88
ag25
aS'if'
p213
ag4
aS'variable_11'
p214
aS'!='
p215
ag121
ag21
aS'variable_4'
p216
aS'+='
p217
aS'variable_11'
p218
ag25
aS'variable_6'
p219
aS'-='
p220
aS'variable_11'
p221
ag25
aS'variable_4'
p222
aS'+='
p223
ag44
ag25
aS'variable_6'
p224
aS'-='
p225
ag44
ag25
aS'variable_10'
p226
ag39
aS'func_15'
p227
ag4
aS'variable_1'
p228
ag8
aS'variable_4'
p229
ag21
ag25
aS'variable_4'
p230
aS'++'
p231
ag25
aS'variable_6'
p232
aS'--'
p233
ag25
aS'if'
p234
ag4
aS'variable_10'
p235
aS'!='
p236
aS'variable_17'
p237
ag21
aS'variable_11'
p238
ag39
aS'func_16'
p239
ag4
aS'variable_1'
p240
ag8
aS'variable_4'
p241
ag21
ag25
aS'variable_4'
p242
aS'++'
p243
ag25
aS'variable_4'
p244
aS'+='
p245
aS'variable_11'
p246
ag25
aS'variable_6'
p247
ag39
aS'variable_6'
p248
ag87
aS'variable_11'
p249
ag87
ag88
ag25
aS'if'
p250
ag4
aS'variable_6'
p251
aS'=='
p252
ag49
ag21
aS'variable_10'
p253
ag39
aS'func_17'
p254
ag4
aS'variable_1'
p255
ag8
aS'variable_4'
p256
ag21
ag25
aS'if'
p257
ag4
aS'variable_10'
p258
aS'=='
p259
aS'variable_18'
p260
ag21
aS'variable_4'
p261
aS'++'
p262
ag25
aS'variable_6'
p263
aS'--'
p264
ag25
aS'variable_11'
p265
ag39
aS'func_18'
p266
ag4
aS'variable_1'
p267
ag8
aS'variable_4'
p268
ag21
ag25
aS'variable_6'
p269
ag39
aS'variable_6'
p270
ag87
aS'variable_11'
p271
ag87
ag88
ag25
aS'if'
p272
ag4
aS'variable_6'
p273
aS'=='
p274
ag49
ag21
aS'variable_6'
p275
aS'-='
p276
aS'variable_19'
p277
ag25
aS'variable_6'
p278
aS'-='
p279
ag88
ag25
aS'variable_6'
p280
aS'-='
p281
ag88
ag25
aS'variable_6'
p282
aS'-='
p283
aS'variable_11'
p284
ag25
aS'if'
p285
ag4
ag4
aS'int'
p286
ag21
ag4
aS'variable_4'
p287
ag59
aS'variable_6'
p288
ag21
aS'>'
p289
ag39
aS'variable_4'
p290
ag21
aS'variable_4'
p291
aS'+='
p292
aS'variable_6'
p293
ag25
aS'return'
p294
aS'variable_4'
p295
ag25
aS'variable_4'
p296
aS'+='
p297
ag44
ag25
aS'variable_6'
p298
aS'-='
p299
aS'func_19'
p300
ag4
aS'variable_1'
p301
ag8
aS'variable_4'
p302
ag59
aS'variable_6'
p303
ag87
ag88
ag21
ag25
aS'if'
p304
ag4
aS'variable_6'
p305
aS'=='
p306
ag44
ag21
aS'variable_20'
p307
ag6
aS'variable_21'
p308
ag39
aS'func_20'
p309
ag4
aS'variable_22'
p310
ag8
aS'variable_23'
p311
ag8
aS'variable_1'
p312
ag8
aS'variable_4'
p313
ag8
aS'variable_6'
p314
ag8
aS'variable_24'
p315
ag21
ag25
aS'variable_25'
p316
ag6
aS'variable_26'
p317
ag39
aS'func_21'
p318
ag4
aS'variable_21'
p319
ag8
aS'variable_27'
p320
ag21
ag25
aS'func_22'
p321
ag4
aS'variable_26'
p322
ag8
aS'variable_28'
p323
ag8
aS'variable_1'
p324
ag8
aS'variable_4'
p325
ag8
ag88
ag8
aS'variable_29'
p326
ag21
ag25
aS'func_23'
p327
ag4
aS'variable_26'
p328
ag8
aS'variable_30'
p329
ag8
aS'variable_1'
p330
ag8
aS'variable_4'
p331
ag8
ag88
ag8
aS'variable_29'
p332
ag21
ag25
aS'func_24'
p333
ag4
aS'variable_26'
p334
ag8
aS'variable_31'
p335
ag8
aS'variable_1'
p336
ag8
aS'variable_4'
p337
ag8
ag88
ag8
aS'variable_29'
p338
ag21
ag25
aS'variable_32'
p339
ag39
aS'func_25'
p340
ag4
aS'variable_1'
p341
ag8
aS'variable_4'
p342
ag59
ag121
ag21
ag25
aS'func_26'
p343
ag4
aS'variable_26'
p344
ag8
aS'variable_33'
p345
ag8
aS'variable_1'
p346
ag8
aS'variable_4'
p347
ag59
ag121
ag8
ag121
ag8
aS'variable_32'
p348
ag6
ag121
ag21
ag25
aS'func_27'
p349
ag4
aS'variable_22'
p350
ag8
aS'variable_34'
p351
ag8
aS'variable_1'
p352
ag8
aS'variable_4'
p353
ag8
aS'variable_6'
p354
ag8
aS'variable_24'
p355
ag21
ag25
aS'if'
p356
ag4
ag4
aS'int'
p357
ag21
ag4
aS'variable_4'
p358
ag59
aS'variable_6'
p359
ag21
ag289
ag39
aS'variable_4'
p360
ag21
aS'variable_4'
p361
aS'+='
p362
aS'variable_6'
p363
ag25
aS'return'
p364
aS'variable_4'
p365
ag25
aa(lp366
S'func_0'
p367
ag4
aS'variable_0'
p368
ag6
aS'variable_1'
p369
ag8
aS'variable_2'
p370
ag6
aS'variable_3'
p371
ag8
aS'int'
p372
aS'variable_4'
p373
ag8
aS'unsigned'
p374
aS'int'
p375
aS'variable_5'
p376
ag8
aS'unsigned'
p377
aS'int'
p378
aS'variable_6'
p379
ag8
aS'guint32'
p380
aS'variable_7'
p381
ag21
aS'unsigned'
p382
aS'int'
p383
aS'variable_8'
p384
ag25
aS'char'
p385
aS'variable_9'
p386
ag28
ag29
ag30
ag25
aS'guint'
p387
aS'variable_10'
p388
ag25
aS'guint'
p389
aS'variable_11'
p390
ag25
aS'static'
p391
aS'const'
p392
aS'char'
p393
aS'variable_12'
p394
ag28
ag30
ag39
ag40
aS'PoC1'
p395
ag40
ag25
aS'variable_4'
p396
aS'+='
p397
ag44
ag25
aS'variable_6'
p398
aS'-='
p399
ag44
ag25
aS'for'
p400
ag4
aS'variable_8'
p401
ag39
ag49
ag25
aS'variable_8'
p402
ag51
ag44
ag25
aS'variable_8'
p403
aS'++'
p404
ag21
aS'variable_9'
p405
ag28
aS'variable_8'
p406
ag30
ag39
aS'func_1'
p407
ag4
aS'variable_1'
p408
ag8
aS'variable_4'
p409
ag59
aS'variable_8'
p410
ag21
ag25
aS'variable_9'
p411
ag28
ag44
ag30
ag39
ag62
ag63
ag49
ag62
ag25
aS'if'
p412
ag4
aS'func_2'
p413
ag4
aS'variable_9'
p414
ag8
aS'variable_12'
p415
ag8
ag44
ag21
aS'=='
p416
ag49
ag21
aS'guint8'
p417
aS'variable_13'
p418
ag8
aS'variable_14'
p419
ag25
aS'variable_4'
p420
aS'+='
p421
ag44
ag25
aS'variable_6'
p422
aS'-='
p423
ag44
ag25
aS'if'
p424
ag4
aS'variable_6'
p425
aS'=='
p426
ag49
ag21
aS'if'
p427
ag4
aS'variable_5'
p428
ag21
aS'variable_6'
p429
aS'-='
p430
aS'func_3'
p431
ag4
aS'variable_1'
p432
ag8
aS'variable_4'
p433
ag59
aS'variable_6'
p434
ag87
ag88
ag21
ag25
aS'switch'
p435
ag4
aS'variable_15'
p436
ag21
aS'guint8'
p437
aS'variable_16'
p438
ag25
aS'if'
p439
ag4
aS'func_4'
p440
ag4
aS'variable_1'
p441
ag8
aS'variable_4'
p442
ag21
aS'=='
p443
ag49
ag21
aS'variable_16'
p444
ag39
aS'func_5'
p445
ag4
aS'variable_1'
p446
ag8
aS'variable_4'
p447
ag21
ag25
aS'variable_4'
p448
aS'+='
p449
ag88
ag25
aS'variable_6'
p450
aS'-='
p451
ag88
ag25
aS'if'
p452
ag4
aS'variable_16'
p453
aS'=='
p454
aS'102'
p455
ag21
aS'variable_11'
p456
ag39
aS'func_6'
p457
ag4
aS'variable_1'
p458
ag8
aS'variable_4'
p459
ag21
ag25
aS'variable_4'
p460
aS'+='
p461
ag88
ag25
aS'variable_6'
p462
aS'-='
p463
ag88
ag25
aS'if'
p464
ag4
aS'variable_11'
p465
aS'!='
p466
ag121
ag21
aS'variable_4'
p467
aS'+='
p468
ag121
ag25
aS'variable_6'
p469
aS'-='
p470
ag121
ag25
aS'if'
p471
ag4
aS'func_7'
p472
ag4
aS'variable_1'
p473
ag8
aS'variable_4'
p474
ag21
aS'=='
p475
ag49
ag21
aS'variable_16'
p476
ag39
aS'func_8'
p477
ag4
aS'variable_1'
p478
ag8
aS'variable_4'
p479
ag21
ag25
aS'variable_4'
p480
aS'+='
p481
ag88
ag25
aS'variable_6'
p482
aS'-='
p483
ag88
ag25
aS'if'
p484
ag4
aS'variable_16'
p485
aS'=='
p486
aS'103'
p487
ag21
aS'variable_11'
p488
ag39
aS'func_9'
p489
ag4
aS'variable_1'
p490
ag8
aS'variable_4'
p491
ag21
ag25
aS'variable_4'
p492
aS'+='
p493
ag88
ag25
aS'variable_6'
p494
aS'-='
p495
ag88
ag25
aS'if'
p496
ag4
aS'variable_11'
p497
aS'!='
p498
ag154
ag21
aS'variable_4'
p499
aS'+='
p500
ag154
ag25
aS'variable_6'
p501
aS'-='
p502
ag154
ag25
aS'variable_13'
p503
ag39
aS'func_10'
p504
ag4
aS'variable_1'
p505
ag8
aS'variable_4'
p506
ag21
ag25
aS'variable_4'
p507
aS'+='
p508
ag88
ag25
aS'variable_6'
p509
aS'-='
p510
ag88
ag25
aS'if'
p511
ag4
aS'variable_13'
p512
aS'!='
p513
aS'101'
p514
ag21
aS'variable_11'
p515
ag39
aS'func_11'
p516
ag4
aS'variable_1'
p517
ag8
aS'variable_4'
p518
ag21
ag25
aS'variable_4'
p519
aS'+='
p520
ag88
ag25
aS'variable_6'
p521
aS'-='
p522
ag88
ag25
aS'if'
p523
ag4
aS'variable_11'
p524
aS'!='
p525
ag121
ag21
aS'variable_4'
p526
aS'+='
p527
aS'variable_11'
p528
ag25
aS'variable_6'
p529
aS'-='
p530
aS'variable_11'
p531
ag25
aS'if'
p532
ag4
aS'func_12'
p533
ag4
aS'variable_1'
p534
ag8
aS'variable_4'
p535
ag21
aS'=='
p536
ag49
ag21
aS'variable_14'
p537
ag39
aS'func_13'
p538
ag4
aS'variable_1'
p539
ag8
aS'variable_4'
p540
ag21
ag25
aS'variable_4'
p541
aS'+='
p542
ag88
ag25
aS'variable_6'
p543
aS'-='
p544
ag88
ag25
aS'if'
p545
ag4
aS'variable_14'
p546
aS'!='
p547
aS'100'
p548
ag21
aS'variable_11'
p549
ag39
aS'func_14'
p550
ag4
aS'variable_1'
p551
ag8
aS'variable_4'
p552
ag21
ag25
aS'variable_4'
p553
aS'+='
p554
ag88
ag25
aS'variable_6'
p555
aS'-='
p556
ag88
ag25
aS'if'
p557
ag4
aS'variable_11'
p558
aS'!='
p559
ag121
ag21
aS'variable_4'
p560
aS'+='
p561
aS'variable_11'
p562
ag25
aS'variable_6'
p563
aS'-='
p564
aS'variable_11'
p565
ag25
aS'variable_4'
p566
aS'+='
p567
ag44
ag25
aS'variable_6'
p568
aS'-='
p569
ag44
ag25
aS'variable_10'
p570
ag39
aS'func_15'
p571
ag4
aS'variable_1'
p572
ag8
aS'variable_4'
p573
ag21
ag25
aS'variable_4'
p574
aS'++'
p575
ag25
aS'variable_6'
p576
aS'--'
p577
ag25
aS'if'
p578
ag4
aS'variable_10'
p579
aS'!='
p580
aS'variable_17'
p581
ag21
aS'variable_11'
p582
ag39
aS'func_16'
p583
ag4
aS'variable_1'
p584
ag8
aS'variable_4'
p585
ag21
ag25
aS'variable_6'
p586
ag39
aS'variable_6'
p587
ag87
aS'variable_11'
p588
ag87
ag88
ag25
aS'if'
p589
ag4
aS'variable_6'
p590
aS'=='
p591
ag49
ag21
aS'variable_6'
p592
aS'--'
p593
ag25
aS'variable_6'
p594
ag39
aS'variable_6'
p595
ag87
aS'variable_11'
p596
ag87
ag88
ag25
aS'if'
p597
ag4
aS'variable_6'
p598
aS'=='
p599
ag49
ag21
aS'variable_6'
p600
aS'-='
p601
aS'variable_18'
p602
ag25
aS'variable_6'
p603
aS'-='
p604
ag88
ag25
aS'variable_6'
p605
aS'-='
p606
ag88
ag25
aS'variable_6'
p607
aS'-='
p608
aS'variable_11'
p609
ag25
aS'if'
p610
ag4
ag4
aS'int'
p611
ag21
ag4
aS'variable_4'
p612
ag59
aS'variable_6'
p613
ag21
ag289
ag39
aS'variable_4'
p614
ag21
aS'variable_4'
p615
aS'+='
p616
aS'variable_6'
p617
ag25
aS'return'
p618
aS'variable_4'
p619
ag25
aS'variable_4'
p620
aS'+='
p621
ag44
ag25
aS'variable_6'
p622
aS'-='
p623
aS'func_17'
p624
ag4
aS'variable_1'
p625
ag8
aS'variable_4'
p626
ag59
aS'variable_6'
p627
ag87
ag88
ag21
ag25
aS'if'
p628
ag4
aS'variable_6'
p629
aS'=='
p630
ag44
ag21
aS'variable_19'
p631
ag6
aS'variable_20'
p632
ag39
aS'func_18'
p633
ag4
aS'variable_21'
p634
ag8
aS'variable_22'
p635
ag8
aS'variable_1'
p636
ag8
aS'variable_4'
p637
ag8
aS'variable_6'
p638
ag8
aS'variable_23'
p639
ag21
ag25
aS'variable_24'
p640
ag6
aS'variable_25'
p641
ag39
aS'func_19'
p642
ag4
aS'variable_20'
p643
ag8
aS'variable_26'
p644
ag21
ag25
aS'func_20'
p645
ag4
aS'variable_25'
p646
ag8
aS'variable_27'
p647
ag8
aS'variable_1'
p648
ag8
aS'variable_4'
p649
ag8
ag88
ag8
aS'variable_28'
p650
ag21
ag25
aS'func_21'
p651
ag4
aS'variable_25'
p652
ag8
aS'variable_29'
p653
ag8
aS'variable_1'
p654
ag8
aS'variable_4'
p655
ag8
ag88
ag8
aS'variable_28'
p656
ag21
ag25
aS'func_22'
p657
ag4
aS'variable_25'
p658
ag8
aS'variable_30'
p659
ag8
aS'variable_1'
p660
ag8
aS'variable_4'
p661
ag8
ag88
ag8
aS'variable_28'
p662
ag21
ag25
aS'variable_31'
p663
ag39
aS'func_23'
p664
ag4
aS'variable_1'
p665
ag8
aS'variable_4'
p666
ag59
ag121
ag21
ag25
aS'func_24'
p667
ag4
aS'variable_25'
p668
ag8
aS'variable_32'
p669
ag8
aS'variable_1'
p670
ag8
aS'variable_4'
p671
ag59
ag121
ag8
ag121
ag8
aS'variable_31'
p672
ag6
ag121
ag21
ag25
aS'func_25'
p673
ag4
aS'variable_21'
p674
ag8
aS'variable_33'
p675
ag8
aS'variable_1'
p676
ag8
aS'variable_4'
p677
ag8
aS'variable_6'
p678
ag8
aS'variable_23'
p679
ag21
ag25
aS'if'
p680
ag4
ag4
aS'int'
p681
ag21
ag4
aS'variable_4'
p682
ag59
aS'variable_6'
p683
ag21
ag289
ag39
aS'variable_4'
p684
ag21
aS'variable_4'
p685
aS'+='
p686
aS'variable_6'
p687
ag25
aS'return'
p688
aS'variable_4'
p689
ag25
aa(lp690
S'func_0'
p691
ag4
aS'variable_0'
p692
ag6
aS'variable_1'
p693
ag8
aS'variable_2'
p694
ag6
aS'variable_3'
p695
ag8
aS'int'
p696
aS'variable_4'
p697
ag8
aS'unsigned'
p698
aS'int'
p699
aS'variable_5'
p700
ag8
aS'unsigned'
p701
aS'int'
p702
aS'variable_6'
p703
ag8
aS'guint32'
p704
aS'variable_7'
p705
ag21
aS'unsigned'
p706
aS'int'
p707
aS'variable_8'
p708
ag25
aS'char'
p709
aS'variable_9'
p710
ag28
ag29
ag30
ag25
aS'variable_4'
p711
aS'+='
p712
ag44
ag25
aS'for'
p713
ag4
aS'variable_8'
p714
ag39
ag49
ag25
aS'variable_8'
p715
ag51
ag44
ag25
aS'variable_8'
p716
aS'++'
p717
ag21
aS'variable_9'
p718
ag28
aS'variable_8'
p719
ag30
ag39
aS'func_1'
p720
ag4
aS'variable_1'
p721
ag8
aS'variable_4'
p722
ag59
aS'variable_8'
p723
ag21
ag25
aS'variable_9'
p724
ag28
ag44
ag30
ag39
ag62
ag63
ag49
ag62
ag25
aS'func_2'
p725
ag4
aS'variable_10'
p726
ag8
aS'variable_11'
p727
ag8
aS'variable_1'
p728
ag8
aS'variable_4'
p729
ag8
ag44
ag8
aS'variable_9'
p730
ag21
ag25
aS'if'
p731
ag4
aS'func_3'
p732
ag4
aS'variable_9'
p733
ag8
aS'variable_12'
p734
ag8
ag44
ag21
aS'=='
p735
ag49
ag21
aS'func_4'
p736
ag4
aS'variable_3'
p737
aS'->'
p738
aS'variable_13'
p739
ag8
aS'variable_14'
p740
ag8
ag40
ag4
aS'%'
p741
aS's'
p742
ag21
ag741
ag742
ag40
ag8
aS'variable_9'
p743
ag8
aS'func_5'
p744
ag4
aS'variable_15'
p745
ag8
aS'variable_16'
p746
ag8
ag40
aS'unknown'
p747
ag4
ag741
aS'u'
p748
ag21
ag40
ag21
ag21
ag25
aS'if'
p749
ag4
aS'func_6'
p750
ag4
aS'variable_9'
p751
ag8
aS'variable_17'
p752
ag8
ag44
ag21
aS'=='
p753
ag49
ag21
aS'func_7'
p754
ag4
aS'variable_3'
p755
aS'->'
p756
aS'variable_13'
p757
ag8
aS'variable_14'
p758
ag8
ag40
ag4
ag741
ag742
ag21
aS'subtype'
p759
ag39
ag741
ag748
ag40
ag8
aS'variable_9'
p760
ag8
aS'variable_15'
p761
ag21
ag25
aS'if'
p762
ag4
aS'func_8'
p763
ag4
aS'variable_18'
p764
ag8
aS'variable_9'
p765
ag8
aS'variable_19'
p766
ag8
aS'variable_3'
p767
ag8
aS'variable_10'
p768
ag21
ag21
aS'func_9'
p769
ag4
aS'variable_3'
p770
aS'->'
p771
aS'variable_13'
p772
ag8
aS'variable_14'
p773
ag8
ag40
ag4
ag741
ag742
ag21
aS'subtype'
p774
ag39
ag741
ag748
ag40
ag8
aS'variable_9'
p775
ag8
aS'variable_15'
p776
ag21
ag25
aaa(lp777
I0
aI0
aI0
aa(lp778
I496
aI445
aI63
aa(lp779
(lp780
S'main'
p781
aa(lp782
g781
aa(lp783
g781
aaa(lp784
S'88 ../data/NVD/CVE_2012_6062_PATCHED_dissect_rtcp_app.c packet_len = packet_len - item_len - 1 277'
p785
aS'89 ../data/NVD/CVE_2012_6062_PATCHED_dissect_rtcp_app.c packet_len = packet_len - item_len - 1 246'
p786
aS'90 ../data/NVD/CVE_2012_6062_PATCHED_dissect_rtcp_app.c ascii_name [ counter ] = tvb_get_guint8 ( tvb , offset + counter ) 25'
p787
aa.