(lp0
(lp1
(lp2
S'static'
p3
aS'av_cold'
p4
aS'int'
p5
aS'func_0'
p6
aS'('
p7
aS'variable_0'
p8
aS'*'
p9
aS'variable_1'
p10
aS')'
p11
aS'variable_2'
p12
ag9
aS'variable_3'
p13
aS'='
p14
aS'variable_1'
p15
aS'->'
p16
aS'variable_4'
p17
aS';'
p18
aS'memset'
p19
ag7
aS'variable_3'
p20
aS'->'
p21
aS'variable_5'
p22
aS','
p23
aS'0'
p24
ag23
aS'3'
p25
ag9
aS'sizeof'
p26
ag7
aS'variable_6'
p27
ag11
ag11
ag18
aS'variable_1'
p28
aS'->'
p29
aS'variable_7'
p30
ag14
aS'&'
p31
aS'variable_3'
p32
aS'->'
p33
aS'variable_8'
p34
ag18
aS'func_1'
p35
ag7
ag31
aS'variable_3'
p36
aS'->'
p37
aS'variable_8'
p38
ag11
ag18
aS'variable_3'
p39
aS'->'
p40
aS'variable_9'
p41
ag14
aS'variable_3'
p42
aS'->'
p43
aS'variable_10'
p44
aS'>'
p45
aS'288'
p46
ag18
aS'variable_3'
p47
aS'->'
p48
aS'variable_11'
p49
ag14
aS'1'
p50
ag18
aS'if'
p51
ag7
aS'variable_1'
p52
aS'->'
p53
aS'variable_12'
p54
ag11
aS'if'
p55
ag7
ag7
aS'variable_1'
p56
aS'->'
p57
aS'variable_13'
p58
ag31
aS'7'
p59
ag11
aS'&&'
p60
aS'variable_1'
p61
aS'->'
p62
aS'variable_13'
p63
aS'!='
p64
aS'12'
p65
ag11
aS'variable_3'
p66
aS'->'
p67
aS'variable_14'
p68
ag14
ag50
ag18
aS'if'
p69
ag7
aS'variable_3'
p70
aS'->'
p71
aS'variable_14'
p72
aS'=='
p73
aS'2'
p74
ag11
aS'if'
p75
ag7
aS'variable_1'
p76
aS'->'
p77
aS'variable_12'
p78
aS'<'
p79
aS'4'
p80
ag11
aS'variable_15'
p81
ag14
ag7
ag7
aS'uint8_t'
p82
ag9
ag11
aS'variable_1'
p83
aS'->'
p84
aS'variable_16'
p85
ag11
aS'['
p86
ag24
aS']'
p87
ag18
aS'variable_3'
p88
aS'->'
p89
aS'variable_17'
p90
ag14
aS'variable_15'
p91
ag31
aS'64'
p92
aS'?'
p93
ag50
aS':'
p94
ag24
ag18
aS'variable_3'
p95
aS'->'
p96
aS'variable_18'
p97
ag14
aS'variable_15'
p98
ag31
aS'63'
p99
ag18
aS'variable_3'
p100
aS'->'
p101
aS'variable_19'
p102
ag14
ag7
ag7
aS'uint8_t'
p103
ag9
ag11
aS'variable_1'
p104
aS'->'
p105
aS'variable_16'
p106
ag11
ag86
ag50
ag87
ag18
aS'if'
p107
ag7
aS'variable_3'
p108
aS'->'
p109
aS'variable_19'
p110
aS'=='
p111
ag24
ag11
aS'variable_3'
p112
aS'->'
p113
aS'variable_19'
p114
ag14
aS'variable_1'
p115
aS'->'
p116
aS'variable_13'
p117
ag31
aS'~'
p118
ag59
ag18
aS'variable_20'
p119
ag14
ag7
ag7
ag7
aS'uint8_t'
p120
ag9
ag11
aS'variable_1'
p121
aS'->'
p122
aS'variable_16'
p123
ag11
ag86
ag74
ag87
ag31
aS'0x30'
p124
ag11
aS'>>'
p125
ag80
ag18
aS'variable_3'
p126
aS'->'
p127
aS'variable_9'
p128
ag14
ag7
aS'variable_20'
p129
aS'=='
p130
ag50
ag11
ag93
ag50
ag94
ag7
aS'variable_20'
p131
aS'=='
p132
ag74
ag11
ag93
ag24
ag94
aS'variable_3'
p133
aS'->'
p134
aS'variable_9'
p135
ag18
aS'variable_3'
p136
aS'->'
p137
aS'variable_21'
p138
ag14
ag7
ag7
aS'uint8_t'
p139
ag9
ag11
aS'variable_1'
p140
aS'->'
p141
aS'variable_16'
p142
ag11
ag86
ag74
ag87
ag31
aS'0x40'
p143
ag93
ag50
ag94
ag24
ag18
aS'if'
p144
ag7
aS'func_2'
p145
ag7
aS'variable_3'
p146
ag23
ag7
ag7
aS'uint8_t'
p147
ag9
ag11
aS'variable_1'
p148
aS'->'
p149
aS'variable_16'
p150
ag11
aS'+'
p151
ag80
ag23
aS'variable_1'
p152
aS'->'
p153
aS'variable_12'
p154
aS'-'
p155
ag80
ag11
ag79
ag24
ag11
aS'switch'
p156
ag7
aS'variable_1'
p157
aS'->'
p158
aS'variable_13'
p159
ag31
ag59
ag11
aS'variable_3'
p160
aS'->'
p161
aS'variable_17'
p162
ag14
aS'variable_1'
p163
aS'->'
p164
aS'variable_13'
p165
ag45
ag14
aS'24'
p166
ag18
aS'variable_3'
p167
aS'->'
p168
aS'variable_18'
p169
ag14
aS'variable_22'
p170
ag18
aS'variable_3'
p171
aS'->'
p172
aS'variable_17'
p173
ag14
ag24
ag18
aS'variable_3'
p174
aS'->'
p175
aS'variable_18'
p176
ag14
aS'variable_23'
p177
ag18
aS'variable_3'
p178
aS'->'
p179
aS'variable_17'
p180
ag14
ag24
ag18
aS'variable_3'
p181
aS'->'
p182
aS'variable_19'
p183
ag14
aS'variable_1'
p184
aS'->'
p185
aS'variable_13'
p186
ag31
ag118
ag59
ag18
aS'variable_3'
p187
aS'->'
p188
aS'variable_21'
p189
ag14
ag24
ag18
aS'if'
p190
ag7
aS'func_3'
p191
ag7
aS'variable_3'
p192
ag11
ag79
ag24
ag11
aS'switch'
p193
ag7
aS'variable_3'
p194
aS'->'
p195
aS'variable_19'
p196
ag11
aS'variable_1'
p197
aS'->'
p198
aS'variable_24'
p199
ag14
aS'variable_25'
p200
ag18
aS'if'
p201
ag7
aS'variable_3'
p202
aS'->'
p203
aS'variable_26'
p204
ag11
aS'variable_1'
p205
aS'->'
p206
aS'variable_24'
p207
ag14
aS'variable_27'
p208
ag18
aS'if'
p209
ag7
aS'variable_3'
p210
aS'->'
p211
aS'variable_11'
p212
ag11
aS'if'
p213
ag7
ag7
aS'variable_1'
p214
aS'->'
p215
aS'variable_24'
p216
aS'=='
p217
aS'variable_28'
p218
aS'||'
p219
aS'variable_1'
p220
aS'->'
p221
aS'variable_24'
p222
aS'=='
p223
aS'variable_25'
p224
ag11
aS'&&'
p225
aS'variable_1'
p226
aS'->'
p227
aS'variable_29'
p228
ag31
ag50
ag11
aS'if'
p229
ag7
aS'variable_3'
p230
aS'->'
p231
aS'variable_18'
p232
aS'=='
p233
aS'variable_22'
p234
aS'&&'
p235
aS'variable_1'
p236
aS'->'
p237
aS'variable_24'
p238
aS'=='
p239
aS'variable_30'
p240
aS'&&'
p241
aS'variable_1'
p242
aS'->'
p243
aS'variable_29'
p244
aS'%'
p245
ag80
ag11
aS'func_4'
p246
ag7
aS'variable_3'
p247
ag11
ag18
aaa(lp248
I0
aa(lp249
I17
aa(lp250
(lp251
S'main'
p252
aaa(lp253
S'19 ../data/NVD/CVE_2013_0848_PATCHED_decode_init.c memset 6'
p254
aa.