(lp0
(lp1
(lp2
S'func_0'
p3
aS'('
p4
aS'variable_0'
p5
aS'*'
p6
aS'variable_1'
p7
aS','
p8
aS'variable_2'
p9
ag6
aS'variable_3'
p10
ag8
aS'guint32'
p11
aS'variable_4'
p12
aS')'
p13
aS'guint32'
p14
aS'variable_5'
p15
aS'='
p16
aS'func_1'
p17
ag4
aS'variable_1'
p18
ag8
aS'variable_4'
p19
ag13
aS';'
p20
aS'if'
p21
ag4
aS'variable_5'
p22
aS'<'
p23
aS'variable_6'
p24
ag13
aS'variable_4'
p25
aS'+='
p26
aS'8'
p27
ag20
aS'variable_4'
p28
aS'+='
p29
ag27
ag20
aS'variable_4'
p30
aS'+='
p31
aS'4'
p32
ag20
aS'variable_4'
p33
aS'+='
p34
ag32
ag20
aS'variable_5'
p35
ag16
aS'variable_5'
p36
aS'+'
p37
aS'variable_7'
p38
aS'-'
p39
aS'variable_4'
p40
ag20
aS'if'
p41
ag4
aS'variable_5'
p42
aS'!='
p43
aS'variable_8'
p44
ag13
aS'func_2'
p45
ag4
aS'variable_9'
p46
ag8
aS'"'
p47
ag8
aS'bogus'
p48
aS'spans'
p49
aS'field'
p50
aS'length'
p51
ag4
aS'%'
p52
aS'u'
p53
ag8
aS'must'
p54
aS'be'
p55
ag52
ag53
ag13
ag47
ag8
aS'variable_5'
p56
ag8
aS'variable_8'
p57
ag13
ag20
aaa(lp58
I0
aa(lp59
I51
aa(lp60
(lp61
S'main'
p62
aaa(lp63
S'6 ../data/NVD/CVE_2012_4288_VULN_dissect_xtp_ecntl.c len = len + XTP_HEADER_LEN - offset 41'
p64
aa.