(lp0
(lp1
(lp2
S'int'
p3
aS'func_0'
p4
aS'('
p5
aS'variable_0'
p6
aS'*'
p7
aS'variable_1'
p8
aS','
p9
aS'const'
p10
aS'char'
p11
ag7
aS'variable_2'
p12
ag9
aS'unsigned'
p13
aS'int'
p14
aS'variable_3'
p15
ag9
aS'unsigned'
p16
aS'int'
p17
aS'variable_4'
p18
aS')'
p19
aS'AVProbeData'
p20
aS'variable_5'
p21
aS'='
p22
aS'{'
p23
aS'variable_2'
p24
aS'?'
p25
aS'variable_2'
p26
aS':'
p27
aS'"'
p28
ag28
ag9
aS'NULL'
p29
ag9
aS'-'
p30
aS'variable_3'
p31
aS'}'
p32
aS';'
p33
aS'unsigned'
p34
aS'char'
p35
ag7
aS'variable_6'
p36
ag22
aS'NULL'
p37
ag33
aS'if'
p38
ag5
aS'!'
p39
aS'variable_4'
p40
ag19
aS'variable_4'
p41
ag22
aS'variable_7'
p42
ag33
aS'if'
p43
ag5
aS'variable_4'
p44
aS'>'
p45
aS'variable_7'
p46
ag19
aS'variable_4'
p47
ag22
aS'variable_7'
p48
ag33
aS'if'
p49
ag5
aS'variable_4'
p50
aS'<'
p51
aS'variable_8'
p52
ag19
aS'if'
p53
ag5
aS'variable_3'
p54
ag45
ag22
aS'variable_4'
p55
ag19
aS'for'
p56
ag5
aS'variable_9'
p57
ag22
aS'variable_8'
p58
ag33
aS'variable_9'
p59
ag51
ag22
aS'variable_4'
p60
aS'&&'
p61
aS'variable_9'
p62
ag22
aS'func_1'
p63
ag5
aS'variable_9'
p64
aS'<<'
p65
aS'1'
p66
ag9
aS'func_2'
p67
ag5
aS'variable_4'
p68
ag9
aS'variable_9'
p69
aS'+'
p70
ag66
ag19
ag19
ag19
aS'int'
p71
aS'variable_10'
p72
ag22
ag5
aS'variable_9'
p73
aS'=='
p74
aS'variable_8'
p75
ag19
ag25
aS'0'
p76
ag27
aS'variable_9'
p77
aS'>>'
p78
ag66
ag33
aS'void'
p79
ag7
aS'variable_11'
p80
ag33
aS'if'
p81
ag5
aS'variable_9'
p82
ag51
aS'variable_3'
p83
ag19
aS'variable_11'
p84
ag22
aS'func_3'
p85
ag5
aS'variable_6'
p86
ag9
aS'variable_9'
p87
ag70
aS'variable_12'
p88
ag19
ag33
aS'if'
p89
ag5
ag39
aS'variable_11'
p90
ag19
aS'variable_6'
p91
ag22
aS'variable_11'
p92
ag33
aS'if'
p93
ag5
ag5
aS'variable_13'
p94
ag22
aS'func_4'
p95
ag5
aS'variable_1'
p96
ag9
aS'variable_6'
p97
ag70
aS'variable_10'
p98
ag9
aS'variable_9'
p99
ag30
aS'variable_10'
p100
ag19
ag19
ag51
ag76
ag19
aS'if'
p101
ag5
aS'variable_13'
p102
aS'!='
p103
aS'variable_14'
p104
ag19
aS'variable_15'
p105
ag22
ag76
ag33
aS'variable_13'
p106
ag22
ag76
ag33
aS'variable_5'
p107
aS'.'
p108
aS'variable_16'
p109
ag22
aS'variable_10'
p110
aS'+='
p111
aS'variable_13'
p112
ag33
aS'variable_5'
p113
ag108
aS'variable_6'
p114
ag22
aS'&'
p115
aS'variable_6'
p116
aS'['
p117
aS'variable_3'
p118
aS']'
p119
ag33
aS'memset'
p120
ag5
aS'variable_5'
p121
ag108
aS'variable_6'
p122
ag70
aS'variable_5'
p123
ag108
aS'variable_16'
p124
ag9
ag76
ag9
aS'variable_12'
p125
ag19
ag33
ag7
aS'variable_17'
p126
ag22
aS'func_5'
p127
ag5
ag115
aS'variable_5'
p128
ag9
ag66
ag9
ag115
aS'variable_15'
p129
ag19
ag33
aS'if'
p130
ag5
ag7
aS'variable_17'
p131
ag19
aS'func_6'
p132
ag5
aS'variable_18'
p133
ag9
aS'variable_19'
p134
ag9
ag28
aS'Format'
p135
aS'%'
p136
aS's'
p137
aS'detected'
p138
aS'only'
p139
aS'with'
p140
aS'low'
p141
aS'score'
p142
aS'of'
p143
ag136
aS'd'
p144
ag9
aS'misdetection'
p145
aS'possible'
p146
ag39
aS'\\'
p147
aS'n'
p148
ag28
ag9
ag5
ag7
aS'variable_17'
p149
ag19
aS'->'
p150
aS'variable_20'
p151
ag9
aS'variable_15'
p152
ag19
ag33
aS'func_7'
p153
ag5
aS'variable_18'
p154
ag9
aS'variable_21'
p155
ag9
ag28
aS'Format'
p156
ag136
ag137
aS'probed'
p157
aS'with'
p158
aS'size'
p159
ag22
ag136
ag144
aS'and'
p160
aS'score'
p161
ag22
ag136
ag144
ag147
ag148
ag28
ag9
ag5
ag7
aS'variable_17'
p162
ag19
aS'->'
p163
aS'variable_20'
p164
ag9
aS'variable_9'
p165
ag9
aS'variable_15'
p166
ag19
ag33
aS'if'
p167
ag5
ag39
ag7
aS'variable_17'
p168
ag19
aS'if'
p169
ag5
ag5
aS'variable_13'
p170
ag22
aS'func_8'
p171
ag5
aS'variable_1'
p172
ag9
aS'variable_6'
p173
ag9
aS'variable_5'
p174
ag108
aS'variable_16'
p175
ag19
ag19
ag51
ag76
ag19
aS'return'
p176
aS'variable_13'
p177
ag33
aaa(lp178
I0
aa(lp179
I201
aa(lp180
(lp181
S'main'
p182
aaa(lp183
S'17 ../data/NVD/CVE_2012_6618_PATCHED_av_probe_input_buffer.c memset 50'
p184
aa.