(lp0
(lp1
(lp2
S'int'
p3
aS'func_0'
p4
aS'('
p5
aS'variable_0'
p6
aS'*'
p7
aS'variable_1'
p8
aS','
p9
aS'const'
p10
aS'char'
p11
ag7
aS'variable_2'
p12
ag9
aS'unsigned'
p13
aS'int'
p14
aS'variable_3'
p15
ag9
aS'unsigned'
p16
aS'int'
p17
aS'variable_4'
p18
aS')'
p19
aS'AVProbeData'
p20
aS'variable_5'
p21
aS'='
p22
aS'{'
p23
aS'variable_2'
p24
aS'?'
p25
aS'variable_2'
p26
aS':'
p27
aS'"'
p28
ag28
ag9
aS'NULL'
p29
ag9
aS'-'
p30
aS'variable_3'
p31
aS'}'
p32
aS';'
p33
aS'unsigned'
p34
aS'char'
p35
ag7
aS'variable_6'
p36
ag22
aS'NULL'
p37
ag33
aS'if'
p38
ag5
aS'!'
p39
aS'variable_4'
p40
ag19
aS'variable_4'
p41
ag22
aS'variable_7'
p42
ag33
aS'if'
p43
ag5
aS'variable_4'
p44
aS'>'
p45
aS'variable_7'
p46
ag19
aS'variable_4'
p47
ag22
aS'variable_7'
p48
ag33
aS'if'
p49
ag5
aS'variable_4'
p50
aS'<'
p51
aS'variable_8'
p52
ag19
aS'if'
p53
ag5
aS'variable_3'
p54
ag45
ag22
aS'variable_4'
p55
ag19
aS'for'
p56
ag5
aS'variable_9'
p57
ag22
aS'variable_8'
p58
ag33
aS'variable_9'
p59
ag51
ag22
aS'variable_4'
p60
aS'&&'
p61
aS'variable_9'
p62
ag22
aS'func_1'
p63
ag5
aS'variable_9'
p64
aS'<<'
p65
aS'1'
p66
ag9
aS'func_2'
p67
ag5
aS'variable_4'
p68
ag9
aS'variable_9'
p69
aS'+'
p70
ag66
ag19
ag19
ag19
aS'int'
p71
aS'variable_10'
p72
ag22
ag5
aS'variable_9'
p73
aS'=='
p74
aS'variable_8'
p75
ag19
ag25
aS'0'
p76
ag27
aS'variable_9'
p77
aS'>>'
p78
ag66
ag33
aS'void'
p79
ag7
aS'variable_11'
p80
ag33
aS'if'
p81
ag5
aS'variable_9'
p82
ag51
aS'variable_3'
p83
ag19
aS'variable_11'
p84
ag22
aS'func_3'
p85
ag5
aS'variable_6'
p86
ag9
aS'variable_9'
p87
ag70
aS'variable_12'
p88
ag19
ag33
aS'if'
p89
ag5
ag39
aS'variable_11'
p90
ag19
aS'func_4'
p91
ag5
aS'variable_6'
p92
ag19
ag33
aS'variable_6'
p93
ag22
aS'variable_11'
p94
ag33
aS'if'
p95
ag5
ag5
aS'variable_13'
p96
ag22
aS'func_5'
p97
ag5
aS'variable_1'
p98
ag9
aS'variable_6'
p99
ag70
aS'variable_10'
p100
ag9
aS'variable_9'
p101
ag30
aS'variable_10'
p102
ag19
ag19
ag51
ag76
ag19
aS'if'
p103
ag5
aS'variable_13'
p104
aS'!='
p105
aS'variable_14'
p106
ag19
aS'func_6'
p107
ag5
aS'variable_6'
p108
ag19
ag33
aS'return'
p109
aS'variable_13'
p110
ag33
aS'variable_15'
p111
ag22
ag76
ag33
aS'variable_13'
p112
ag22
ag76
ag33
aS'variable_5'
p113
aS'.'
p114
aS'variable_16'
p115
ag22
aS'variable_10'
p116
aS'+='
p117
aS'variable_13'
p118
ag33
aS'variable_5'
p119
ag114
aS'variable_6'
p120
ag22
aS'&'
p121
aS'variable_6'
p122
aS'['
p123
aS'variable_3'
p124
aS']'
p125
ag33
aS'memset'
p126
ag5
aS'variable_5'
p127
ag114
aS'variable_6'
p128
ag70
aS'variable_5'
p129
ag114
aS'variable_16'
p130
ag9
ag76
ag9
aS'variable_12'
p131
ag19
ag33
ag7
aS'variable_17'
p132
ag22
aS'func_7'
p133
ag5
ag121
aS'variable_5'
p134
ag9
ag66
ag9
ag121
aS'variable_15'
p135
ag19
ag33
aS'if'
p136
ag5
ag7
aS'variable_17'
p137
ag19
aS'func_8'
p138
ag5
aS'variable_18'
p139
ag9
aS'variable_19'
p140
ag9
ag28
aS'Format'
p141
aS'%'
p142
aS's'
p143
aS'detected'
p144
aS'only'
p145
aS'with'
p146
aS'low'
p147
aS'score'
p148
aS'of'
p149
ag142
aS'd'
p150
ag9
aS'misdetection'
p151
aS'possible'
p152
ag39
aS'\\'
p153
aS'n'
p154
ag28
ag9
ag5
ag7
aS'variable_17'
p155
ag19
aS'->'
p156
aS'variable_20'
p157
ag9
aS'variable_15'
p158
ag19
ag33
aS'func_9'
p159
ag5
aS'variable_18'
p160
ag9
aS'variable_21'
p161
ag9
ag28
aS'Format'
p162
ag142
ag143
aS'probed'
p163
aS'with'
p164
aS'size'
p165
ag22
ag142
ag150
aS'and'
p166
aS'score'
p167
ag22
ag142
ag150
ag153
ag154
ag28
ag9
ag5
ag7
aS'variable_17'
p168
ag19
aS'->'
p169
aS'variable_20'
p170
ag9
aS'variable_9'
p171
ag9
aS'variable_15'
p172
ag19
ag33
aS'if'
p173
ag5
ag39
ag7
aS'variable_17'
p174
ag19
aS'func_10'
p175
ag5
aS'variable_6'
p176
ag19
ag33
aS'if'
p177
ag5
ag5
aS'variable_13'
p178
ag22
aS'func_11'
p179
ag5
aS'variable_1'
p180
ag9
aS'variable_6'
p181
ag9
aS'variable_5'
p182
ag114
aS'variable_16'
p183
ag19
ag19
ag51
ag76
ag19
aS'func_12'
p184
ag5
aS'variable_6'
p185
ag19
ag33
aS'return'
p186
aS'variable_13'
p187
ag33
aaa(lp188
I0
aa(lp189
I137
aa(lp190
(lp191
S'main'
p192
aaa(lp193
S'96 ../data/NVD/CVE_2012_6618_PATCHED_av_probe_input_buffer.c buftmp = av_realloc ( buf , probe_size + AVPROBE_PADDING_SIZE ) 32'
p194
aa.