(lp0
(lp1
(lp2
S'func_0'
p3
aS'('
p4
aS'variable_0'
p5
aS'*'
p6
aS'variable_1'
p7
aS','
p8
aS'variable_2'
p9
ag6
aS'variable_3'
p10
ag8
aS'guint32'
p11
aS'variable_4'
p12
aS')'
p13
aS'guint32'
p14
aS'variable_5'
p15
aS'='
p16
aS'func_1'
p17
ag4
aS'variable_1'
p18
ag8
aS'variable_4'
p19
ag13
aS';'
p20
aS'if'
p21
ag4
aS'variable_5'
p22
aS'<'
p23
aS'variable_6'
p24
ag13
aS'variable_4'
p25
aS'+='
p26
aS'8'
p27
ag20
aS'variable_4'
p28
aS'+='
p29
ag27
ag20
aS'variable_4'
p30
aS'+='
p31
aS'4'
p32
ag20
aS'variable_4'
p33
aS'+='
p34
ag32
ag20
aS'variable_5'
p35
ag16
aS'variable_5'
p36
aS'+'
p37
aS'variable_7'
p38
aS'-'
p39
aS'variable_4'
p40
ag20
aS'if'
p41
ag4
aS'variable_5'
p42
aS'!='
p43
aS'variable_8'
p44
ag13
aS'func_2'
p45
ag4
aS'variable_3'
p46
ag8
aS'variable_9'
p47
ag8
aS'variable_10'
p48
ag8
aS'variable_11'
p49
ag8
aS'"'
p50
aS'Number'
p51
aS'of'
p52
aS'spans'
p53
ag4
aS'%'
p54
aS'u'
p55
ag13
aS'incorrect'
p56
aS'.'
p57
aS'Should'
p58
aS'be'
p59
ag54
ag55
ag57
ag50
ag8
aS'variable_12'
p60
aS'->'
p61
aS'variable_13'
p62
ag8
aS'variable_5'
p63
ag13
ag20
aaa(lp64
I0
aa(lp65
I51
aa(lp66
(lp67
S'main'
p68
aaa(lp69
S'5 ../data/NVD/CVE_2012_4288_PATCHED_dissect_xtp_ecntl.c len = len + XTP_HEADER_LEN - offset 40'
p70
aa.