(lp0
(lp1
(lp2
S'static'
p3
aS'int'
p4
aS'func_0'
p5
aS'('
p6
aS'variable_0'
p7
aS'*'
p8
aS'variable_1'
p9
aS','
p10
aS'struct'
p11
aS'in_addr'
p12
aS'variable_2'
p13
aS')'
p14
aS'variable_3'
p15
ag8
aS'variable_4'
p16
aS';'
p17
aS'variable_5'
p18
ag8
aS'variable_6'
p19
aS'='
p20
aS'NULL'
p21
ag17
aS'variable_4'
p22
ag20
aS'func_1'
p23
ag6
ag14
ag17
aS'if'
p24
ag6
aS'variable_4'
p25
aS'=='
p26
aS'NULL'
p27
ag14
aS'variable_4'
p28
aS'->'
p29
aS'variable_7'
p30
ag20
aS'variable_1'
p31
aS'->'
p32
aS'variable_7'
p33
ag17
aS'if'
p34
ag6
aS'variable_1'
p35
aS'->'
p36
aS'variable_8'
p37
ag14
aS'snprintf'
p38
ag6
aS'variable_4'
p39
aS'->'
p40
aS'variable_9'
p41
ag10
aS'1024'
p42
ag10
aS'if'
p43
ag6
aS'variable_4'
p44
aS'->'
p45
aS'variable_7'
p46
aS'>'
p47
ag20
aS'variable_10'
p48
aS'/'
p49
aS'sizeof'
p50
ag6
ag8
aS'variable_4'
p51
aS'->'
p52
aS'variable_11'
p53
ag14
aS'||'
p54
aS'!'
p55
ag6
aS'variable_4'
p56
aS'->'
p57
aS'variable_11'
p58
ag20
aS'func_2'
p59
ag6
aS'variable_4'
p60
aS'->'
p61
aS'variable_7'
p62
ag8
aS'sizeof'
p63
ag6
ag8
aS'variable_4'
p64
aS'->'
p65
aS'variable_11'
p66
ag14
ag14
ag14
ag14
aS'if'
p67
ag6
aS'variable_4'
p68
aS'->'
p69
aS'variable_7'
p70
ag47
ag20
aS'variable_10'
p71
ag49
aS'sizeof'
p72
ag6
ag8
aS'variable_6'
p73
ag14
aS'||'
p74
ag55
ag6
aS'variable_6'
p75
ag20
aS'func_3'
p76
ag6
aS'variable_4'
p77
aS'->'
p78
aS'variable_7'
p79
ag8
aS'sizeof'
p80
ag6
ag8
aS'variable_6'
p81
ag14
ag14
ag14
ag14
ag8
aS'variable_12'
p82
ag20
aS'func_4'
p83
ag6
aS'2048'
p84
ag14
ag17
aS'return'
p85
aS'strlen'
p86
ag6
ag8
aS'variable_12'
p87
ag14
ag17
aaa(lp88
I0
aa(lp89
I138
aa(lp90
(lp91
S'main'
p92
aaa(lp93
S'70 ../data/NVD/CVE_2012_6617_VULN_prepare_sdp_description.c strlen 43'
p94
aa.