(lp0
(lp1
(lp2
S'static'
p3
aS'void'
p4
aS'func_0'
p5
aS'('
p6
aS'const'
p7
aS'uint32_t'
p8
aS'*'
p9
aS'variable_0'
p10
aS','
p11
aS'int'
p12
aS'variable_1'
p13
ag11
aS'int'
p14
aS'variable_2'
p15
ag11
aS'int'
p16
aS'variable_3'
p17
ag11
aS'int'
p18
aS'variable_4'
p19
ag11
aS'int'
p20
aS'variable_5'
p21
aS')'
p22
aS'const'
p23
aS'int'
p24
aS'variable_6'
p25
aS'='
p26
aS'variable_3'
p27
ag9
aS'variable_1'
p28
aS';'
p29
aS'const'
p30
aS'uint32_t'
p31
ag9
aS'variable_7'
p32
ag11
ag9
aS'variable_8'
p33
ag11
ag9
aS'variable_9'
p34
ag26
aS'variable_0'
p35
aS'+'
p36
aS'variable_6'
p37
ag11
ag9
aS'variable_10'
p38
ag26
aS'variable_11'
p39
ag36
aS'variable_6'
p40
ag29
aS'const'
p41
aS'uint32_t'
p42
ag9
aS'variable_12'
p43
ag26
aS'variable_9'
p44
ag36
aS'variable_5'
p45
ag9
aS'variable_1'
p46
ag29
aS'for'
p47
ag6
ag29
aS'variable_9'
p48
aS'<'
p49
aS'variable_12'
p50
ag29
aS'variable_9'
p51
aS'+='
p52
aS'variable_1'
p53
ag11
aS'variable_10'
p54
aS'+='
p55
aS'variable_1'
p56
ag22
aa(lp57
S'static'
p58
aS'void'
p59
aS'func_0'
p60
ag6
aS'const'
p61
aS'uint32_t'
p62
ag9
aS'variable_0'
p63
ag11
aS'int'
p64
aS'variable_1'
p65
ag11
aS'int'
p66
aS'variable_2'
p67
ag11
aS'int'
p68
aS'variable_3'
p69
ag11
aS'int'
p70
aS'variable_4'
p71
ag11
aS'int'
p72
aS'variable_5'
p73
ag22
aS'const'
p74
aS'int'
p75
aS'variable_6'
p76
ag26
aS'variable_3'
p77
ag9
aS'variable_1'
p78
ag29
aS'const'
p79
aS'uint32_t'
p80
ag9
aS'variable_7'
p81
ag11
ag9
aS'variable_8'
p82
ag11
ag9
aS'variable_9'
p83
ag26
aS'variable_0'
p84
ag36
aS'variable_6'
p85
ag11
ag9
aS'variable_10'
p86
ag26
aS'variable_11'
p87
ag36
aS'variable_6'
p88
ag29
aS'const'
p89
aS'uint32_t'
p90
ag9
aS'variable_12'
p91
ag26
aS'variable_9'
p92
ag36
aS'variable_5'
p93
ag9
aS'variable_1'
p94
ag29
aS'for'
p95
ag6
ag29
aS'variable_9'
p96
ag49
aS'variable_12'
p97
ag29
aS'variable_9'
p98
aS'+='
p99
aS'variable_1'
p100
ag11
aS'variable_10'
p101
aS'+='
p102
aS'variable_1'
p103
ag22
aS'variable_7'
p104
ag26
aS'variable_9'
p105
ag36
aS'variable_2'
p106
ag29
aS'variable_13'
p107
ag26
ag6
aS'uint32_t'
p108
ag9
ag22
aS'variable_10'
p109
ag36
aS'variable_2'
p110
ag29
aS'variable_8'
p111
ag26
aS'variable_7'
p112
ag36
aS'variable_4'
p113
ag29
aS'for'
p114
ag6
ag29
aS'variable_7'
p115
ag49
aS'variable_8'
p116
ag29
aS'variable_7'
p117
aS'++'
p118
ag11
aS'variable_13'
p119
aS'++'
p120
ag22
ag9
aS'variable_13'
p121
ag26
ag9
aS'variable_7'
p122
ag29
aaa(lp123
I0
aI0
aa(lp124
I64
aI53
aa(lp125
(lp126
S'main'
p127
aa(lp128
g127
aaa(lp129
S'231 ../data/NVD/CVE_2013_0864_PATCHED_gif_copy_img_rect.c const uint32_t * src_pb = src_py + h * linesize ; 8'
p130
aS'232 ../data/NVD/CVE_2013_0864_PATCHED_gif_copy_img_rect.c const uint32_t * src_px , * src_pr , * src_py = src + y_start , * dst_py = dst + y_start ; 5'
p131
aa.