(lp0
(lp1
(lp2
S'func_0'
p3
aS'('
p4
aS'variable_0'
p5
aS'*'
p6
aS'variable_1'
p7
aS','
p8
aS'variable_2'
p9
ag6
aS'variable_3'
p10
ag8
aS'variable_4'
p11
ag6
aS'variable_5'
p12
ag8
aS'int'
p13
aS'variable_6'
p14
ag8
aS'variable_7'
p15
ag6
aS'variable_8'
p16
ag8
aS'variable_9'
p17
ag6
aS'variable_10'
p18
aS')'
p19
aS'int'
p20
aS'variable_11'
p21
aS'='
p22
aS'variable_6'
p23
aS';'
p24
aS'guint8'
p25
aS'variable_12'
p26
ag24
aS'variable_12'
p27
ag22
aS'func_1'
p28
ag4
aS'variable_5'
p29
ag8
aS'variable_6'
p30
ag19
ag24
aS'variable_6'
p31
ag22
aS'variable_11'
p32
aS'+'
p33
aS'variable_12'
p34
ag24
aS'return'
p35
aS'variable_6'
p36
ag24
aaa(lp37
I0
aa(lp38
I46
aa(lp39
(lp40
S'main'
p41
aaa(lp42
S'54 ../data/NVD/CVE_2012_6053_VULN_dissect_usb_interface_descriptor.c offset = old_offset + len 75'
p43
aa.