(lp0
(lp1
(lp2
S'func_0'
p3
aS'('
p4
aS')'
p5
aS'static'
p6
aS'LPCWSTR'
p7
aS'variable_0'
p8
aS'['
p9
aS']'
p10
aS'='
p11
aS'variable_1'
p12
aS'"'
p13
aS'wsock32'
p14
aS'.'
p15
aS'dll'
p16
ag13
aS','
p17
aS'variable_1'
p18
ag13
aS'crypt32'
p19
ag15
aS'dll'
p20
ag13
aS'variable_1'
p21
ag13
aS'cryptsp'
p22
ag15
aS'dll'
p23
ag13
ag17
aS'variable_1'
p24
ag13
aS'cryptbase'
p25
ag15
aS'dll'
p26
ag13
aS'variable_1'
p27
ag13
aS'msasn1'
p28
ag15
aS'dll'
p29
ag13
ag17
aS'variable_1'
p30
ag13
aS'userenv'
p31
ag15
aS'dll'
p32
ag13
aS'variable_1'
p33
ag13
aS'secur32'
p34
ag15
aS'dll'
p35
ag13
aS'for'
p36
ag4
aS'size_t'
p37
aS'variable_2'
p38
ag11
aS'0'
p39
aS';'
p40
aS'variable_2'
p41
aS'<'
p42
aS'sizeof'
p43
ag4
aS'variable_0'
p44
ag5
aS'/'
p45
aS'sizeof'
p46
ag4
aS'variable_0'
p47
ag9
ag39
ag10
ag5
ag40
aS'++'
p48
aS'variable_2'
p49
ag5
aS'size_t'
p50
aS'variable_3'
p51
ag11
aS'wcslen'
p52
ag4
aS'variable_0'
p53
ag9
aS'variable_2'
p54
ag10
ag5
ag40
aS'if'
p55
ag4
aS'variable_4'
p56
aS'+'
p57
aS'variable_3'
p58
ag42
ag11
aS'variable_5'
p59
ag5
aa(lp60
S'func_0'
p61
ag4
ag5
aS'WCHAR'
p62
aS'variable_0'
p63
ag9
aS'variable_1'
p64
ag57
aS'1'
p65
ag10
ag11
aS'variable_2'
p66
aS"'"
p67
aS'\\'
p68
ag39
ag67
aS'size_t'
p69
aS'variable_3'
p70
ag11
aS'wcslen'
p71
ag4
aS'variable_0'
p72
ag5
ag40
aS'wcsncpy'
p73
ag4
aS'variable_0'
p74
ag57
aS'variable_3'
p75
ag17
aS'variable_4'
p76
ag9
aS'variable_5'
p77
ag10
ag17
aS'variable_1'
p78
aS'-'
p79
aS'variable_3'
p80
ag5
ag40
aS'if'
p81
ag4
aS'variable_3'
p82
ag57
aS'variable_6'
p83
ag42
ag11
aS'variable_1'
p84
ag5
aS'LPCWSTR'
p85
aS'variable_7'
p86
ag11
aS'variable_0'
p87
ag40
aS'func_1'
p88
ag4
aS'variable_7'
p89
ag5
ag40
aaa(lp90
I0
aI0
aa(lp91
I82
aI19
aa(lp92
(lp93
S'main'
p94
aa(lp95
g94
aaa(lp96
S'195 ../data/NVD/CVE_2013_0797_PATCHED_AutoLoadSystemDependencies.c wcslen 23'
p97
aS'196 ../data/NVD/CVE_2013_0797_PATCHED_AutoLoadSystemDependencies.c wcslen 12'
p98
aa.