(lp0
(lp1
(lp2
S'variable_0'
p3
aS':'
p4
ag4
aS'func_0'
p5
aS'('
p6
aS'uint32_t'
p7
aS'variable_1'
p8
aS','
p9
aS'char'
p10
aS'*'
p11
ag11
aS'variable_2'
p12
ag9
aS'variable_3'
p13
ag11
aS'variable_4'
p14
ag9
aS'int32_t'
p15
aS'variable_5'
p16
aS')'
p17
aS'char'
p18
aS'variable_6'
p19
aS'['
p20
aS'256'
p21
aS']'
p22
aS';'
p23
aS'nsresult'
p24
aS'variable_7'
p25
aS'='
p26
aS'func_1'
p27
ag6
aS'variable_1'
p28
ag9
aS'variable_6'
p29
ag9
aS'256'
p30
ag17
ag23
aS'if'
p31
ag6
aS'func_2'
p32
ag6
aS'variable_7'
p33
ag17
ag17
aS'int32_t'
p34
aS'variable_8'
p35
ag26
ag6
aS'variable_3'
p36
ag17
aS'func_3'
p37
ag6
aS'variable_6'
p38
ag17
ag23
aS'if'
p39
ag6
ag6
aS'variable_8'
p40
aS'+'
p41
aS'variable_5'
p42
ag17
aS'>'
p43
ag26
ag6
ag11
aS'variable_9'
p44
aS'-'
p45
ag11
aS'variable_4'
p46
ag17
ag17
aS'int32_t'
p47
aS'variable_10'
p48
ag26
aS'variable_8'
p49
ag41
aS'variable_11'
p50
ag23
aS'char'
p51
ag11
aS'variable_12'
p52
ag26
ag6
aS'char'
p53
ag11
ag17
aS'func_4'
p54
ag6
ag11
aS'variable_2'
p55
ag9
ag11
aS'variable_9'
p56
ag41
aS'variable_10'
p57
ag41
aS'1'
p58
ag17
ag23
aS'if'
p59
ag6
aS'variable_12'
p60
ag17
ag11
aS'variable_2'
p61
ag26
aS'variable_12'
p62
ag23
aS'memcpy'
p63
ag6
ag6
ag11
aS'variable_2'
p64
ag41
ag11
aS'variable_4'
p65
ag17
ag9
aS'variable_6'
p66
ag9
aS'variable_8'
p67
ag17
ag23
aaa(lp68
I0
aa(lp69
I109
aa(lp70
(lp71
S'main'
p72
aaa(lp73
S'96 ../data/NVD/CVE_2013_0782_PATCHED_nsSaveAsCharset__HandleFallBack.c memcpy 29'
p74
aa.