(lp0
(lp1
(lp2
S'variable_0'
p3
aS':'
p4
ag4
aS'func_0'
p5
aS'('
p6
aS'uint32_t'
p7
aS'variable_1'
p8
aS','
p9
aS'char'
p10
aS'*'
p11
ag11
aS'variable_2'
p12
ag9
aS'variable_3'
p13
ag11
aS'variable_4'
p14
ag9
aS'int32_t'
p15
aS'variable_5'
p16
aS')'
p17
aS'char'
p18
aS'variable_6'
p19
aS'['
p20
aS'256'
p21
aS']'
p22
aS';'
p23
aS'nsresult'
p24
aS'variable_7'
p25
aS'='
p26
aS'func_1'
p27
ag6
aS'variable_1'
p28
ag9
aS'variable_6'
p29
ag9
aS'256'
p30
ag17
ag23
aS'if'
p31
ag6
aS'func_2'
p32
ag6
aS'variable_7'
p33
ag17
ag17
aS'int32_t'
p34
aS'variable_8'
p35
ag26
ag6
aS'variable_3'
p36
ag17
aS'func_3'
p37
ag6
aS'variable_6'
p38
ag17
ag23
aS'if'
p39
ag6
ag6
aS'variable_8'
p40
aS'+'
p41
aS'variable_5'
p42
ag17
aS'>'
p43
ag26
ag6
ag11
aS'variable_9'
p44
aS'-'
p45
ag11
aS'variable_4'
p46
ag17
ag17
aS'int32_t'
p47
aS'variable_10'
p48
ag26
aS'variable_8'
p49
ag41
aS'variable_11'
p50
ag23
aS'char'
p51
ag11
aS'variable_12'
p52
ag26
ag6
aS'char'
p53
ag11
ag17
aS'func_4'
p54
ag6
ag11
aS'variable_2'
p55
ag9
ag11
aS'variable_9'
p56
ag41
aS'variable_10'
p57
ag41
aS'1'
p58
ag17
ag23
aS'if'
p59
ag6
aS'variable_12'
p60
ag17
ag11
aS'variable_2'
p61
ag26
aS'variable_12'
p62
ag23
ag11
aS'variable_2'
p63
ag26
aS'variable_13'
p64
ag23
aS'memcpy'
p65
ag6
ag6
ag11
aS'variable_2'
p66
ag41
ag11
aS'variable_4'
p67
ag17
ag9
aS'variable_6'
p68
ag9
aS'variable_8'
p69
ag17
ag23
aa(lp70
S'variable_0'
p71
ag4
ag4
aS'func_0'
p72
ag6
aS'uint32_t'
p73
aS'variable_1'
p74
ag9
aS'char'
p75
ag11
ag11
aS'variable_2'
p76
ag9
aS'variable_3'
p77
ag11
aS'variable_4'
p78
ag9
aS'int32_t'
p79
aS'variable_5'
p80
ag17
aS'char'
p81
aS'variable_6'
p82
ag20
aS'256'
p83
ag22
ag23
aS'nsresult'
p84
aS'variable_7'
p85
ag26
aS'func_1'
p86
ag6
aS'variable_1'
p87
ag9
aS'variable_6'
p88
ag9
aS'256'
p89
ag17
ag23
aS'if'
p90
ag6
aS'func_2'
p91
ag6
aS'variable_7'
p92
ag17
ag17
aS'int32_t'
p93
aS'variable_8'
p94
ag26
ag6
aS'variable_3'
p95
ag17
aS'func_3'
p96
ag6
aS'variable_6'
p97
ag17
ag23
aS'if'
p98
ag6
ag6
aS'variable_8'
p99
ag41
aS'variable_5'
p100
ag17
ag43
ag26
ag6
ag11
aS'variable_9'
p101
ag45
ag11
aS'variable_4'
p102
ag17
ag17
aS'int32_t'
p103
aS'variable_10'
p104
ag26
aS'variable_8'
p105
ag41
aS'variable_11'
p106
ag23
aS'char'
p107
ag11
aS'variable_12'
p108
ag26
ag6
aS'char'
p109
ag11
ag17
aS'func_4'
p110
ag6
ag11
aS'variable_2'
p111
ag9
ag11
aS'variable_9'
p112
ag41
aS'variable_10'
p113
ag41
ag58
ag17
ag23
aS'if'
p114
ag6
aS'variable_12'
p115
ag17
ag11
aS'variable_9'
p116
aS'+='
p117
aS'variable_10'
p118
ag23
ag11
aS'variable_2'
p119
ag26
aS'variable_12'
p120
ag23
ag11
aS'variable_2'
p121
ag26
aS'variable_13'
p122
ag23
ag11
aS'variable_9'
p123
ag26
aS'0'
p124
ag23
aS'memcpy'
p125
ag6
ag6
ag11
aS'variable_2'
p126
ag41
ag11
aS'variable_4'
p127
ag17
ag9
aS'variable_6'
p128
ag9
aS'variable_8'
p129
ag17
ag23
aaa(lp130
I0
aI0
aa(lp131
I99
aI78
aa(lp132
(lp133
S'main'
p134
aa(lp135
g134
aaa(lp136
S'219 ../data/NVD/CVE_2013_0782_PATCHED_nsSaveAsCharset__HandleFallBack.c char * temp = ( char * ) PR_Realloc ( * outString , * bufferLength + addLength + 1 ) ; 18'
p137
aS'220 ../data/NVD/CVE_2013_0782_PATCHED_nsSaveAsCharset__HandleFallBack.c int32_t addLength = tempLen + RESERVE_FALLBACK_BYTES ; 16'
p138
aa.