(lp0
(lp1
(lp2
S'static'
p3
aS'void'
p4
aS'func_0'
p5
aS'('
p6
aS'variable_0'
p7
aS'*'
p8
aS'variable_1'
p9
aS','
p10
aS'gint'
p11
aS'variable_2'
p12
ag10
aS'variable_3'
p13
ag8
aS'variable_4'
p14
ag10
aS'variable_5'
p15
ag8
aS'variable_6'
p16
aS')'
p17
aS'variable_7'
p18
ag8
aS'variable_8'
p19
aS'='
p20
aS'NULL'
p21
ag10
ag8
aS'variable_9'
p22
ag20
aS'NULL'
p23
aS';'
p24
aS'guint'
p25
aS'variable_10'
p26
ag20
aS'func_1'
p27
ag6
aS'variable_1'
p28
ag17
aS'-'
p29
aS'variable_2'
p30
ag24
aS'if'
p31
ag6
aS'variable_6'
p32
ag17
aS'variable_8'
p33
ag20
aS'func_2'
p34
ag6
aS'variable_6'
p35
ag10
aS'variable_11'
p36
ag10
aS'variable_1'
p37
ag10
aS'variable_2'
p38
ag10
aS'variable_10'
p39
ag10
aS'variable_12'
p40
ag17
ag24
aS'if'
p41
ag6
aS'variable_10'
p42
aS'>'
p43
ag20
aS'variable_13'
p44
ag17
aS'ETHERCAT_EOE_HEADER'
p45
aS'variable_14'
p46
ag24
aS'variable_15'
p47
ag20
aS'func_3'
p48
ag6
aS'variable_8'
p49
ag10
aS'variable_16'
p50
ag17
ag24
aS'variable_8'
p51
ag20
aS'func_4'
p52
ag6
aS'variable_15'
p53
ag10
aS'variable_17'
p54
ag10
aS'variable_1'
p55
ag10
aS'variable_2'
p56
ag10
aS'4'
p57
ag10
aS'variable_12'
p58
ag17
ag24
aS'variable_18'
p59
ag20
aS'func_5'
p60
ag6
aS'variable_8'
p61
ag10
aS'variable_19'
p62
ag17
ag24
aS'switch'
p63
ag6
aS'variable_14'
p64
aS'.'
p65
aS'variable_20'
p66
ag65
aS'variable_21'
p67
ag65
aS'variable_22'
p68
ag17
aS'variable_2'
p69
aS'+='
p70
aS'variable_13'
p71
ag24
aS'if'
p72
ag6
aS'variable_10'
p73
ag29
aS'variable_2'
p74
ag43
ag20
aS'variable_23'
p75
ag17
aS'variable_2'
p76
aS'+='
p77
ag57
ag24
aS'variable_2'
p78
aS'+='
p79
aS'variable_24'
p80
ag24
aS'variable_2'
p81
aS'+='
p82
ag57
ag24
aS'variable_2'
p83
aS'+='
p84
ag57
ag24
aS'variable_2'
p85
aS'+='
p86
ag57
ag24
aS'variable_2'
p87
aS'+='
p88
ag57
ag24
aS'variable_2'
p89
aS'+='
p90
aS'variable_13'
p91
ag24
aS'variable_8'
p92
ag20
aS'func_6'
p93
ag6
aS'variable_18'
p94
ag10
aS'variable_25'
p95
ag10
aS'variable_1'
p96
ag10
aS'variable_2'
p97
ag10
aS'func_7'
p98
ag6
aS'variable_10'
p99
ag29
aS'variable_2'
p100
ag10
aS'variable_26'
p101
ag17
ag10
aS'variable_12'
p102
ag17
ag24
aS'variable_27'
p103
ag20
aS'func_8'
p104
ag6
aS'variable_8'
p105
ag10
aS'variable_28'
p106
ag17
ag24
aS'func_9'
p107
ag6
aS'variable_27'
p108
ag10
aS'variable_29'
p109
ag10
aS'variable_1'
p110
ag10
aS'variable_2'
p111
ag10
aS'2'
p112
ag10
aS'variable_30'
p113
ag17
ag24
aS'func_10'
p114
ag6
aS'variable_27'
p115
ag10
aS'variable_31'
p116
ag10
aS'variable_1'
p117
ag10
aS'variable_2'
p118
ag10
ag112
ag10
aS'variable_30'
p119
ag17
ag24
aS'func_11'
p120
ag6
aS'variable_27'
p121
ag10
aS'variable_32'
p122
ag10
aS'variable_1'
p123
ag10
aS'variable_2'
p124
ag10
ag112
ag10
aS'variable_30'
p125
ag17
ag24
aS'variable_8'
p126
ag20
aS'func_12'
p127
ag6
aS'variable_27'
p128
ag10
aS'variable_33'
p129
ag10
aS'variable_1'
p130
ag10
aS'variable_2'
p131
ag10
aS'16'
p132
ag8
aS'variable_24'
p133
ag10
aS'variable_12'
p134
ag17
ag24
aS'variable_34'
p135
ag20
aS'func_13'
p136
ag6
aS'variable_8'
p137
ag10
aS'variable_35'
p138
ag17
ag24
aS'func_14'
p139
ag6
aS'variable_34'
p140
ag10
aS'variable_36'
p141
aS'['
p142
aS'variable_37'
p143
aS']'
p144
ag10
aS'variable_1'
p145
ag10
aS'variable_2'
p146
aS'+'
p147
aS'variable_37'
p148
ag8
aS'variable_24'
p149
ag10
aS'variable_24'
p150
ag10
aS'variable_12'
p151
ag17
ag24
aS'variable_8'
p152
ag20
aS'func_15'
p153
ag6
aS'variable_27'
p154
ag10
aS'variable_38'
p155
ag10
aS'variable_1'
p156
ag10
aS'variable_2'
p157
ag10
ag57
ag8
aS'sizeof'
p158
ag6
aS'variable_39'
p159
ag17
ag10
aS'variable_12'
p160
ag17
ag24
aS'variable_40'
p161
ag20
aS'func_16'
p162
ag6
aS'variable_8'
p163
ag10
aS'variable_41'
p164
ag17
ag24
aS'func_17'
p165
ag6
aS'variable_40'
p166
ag10
aS'variable_42'
p167
ag142
aS'variable_37'
p168
ag144
ag10
aS'variable_1'
p169
ag10
aS'variable_2'
p170
ag147
aS'variable_37'
p171
ag8
aS'sizeof'
p172
ag6
aS'variable_39'
p173
ag17
ag10
aS'sizeof'
p174
ag6
aS'variable_39'
p175
ag17
ag10
aS'variable_12'
p176
ag17
ag24
aS'func_18'
p177
ag6
aS'variable_8'
p178
ag10
aS'"'
p179
ag29
aS'Invalid'
p180
aS'length'
p181
aS'!'
p182
ag179
ag17
ag24
aa(lp183
S'static'
p184
aS'void'
p185
aS'func_0'
p186
ag6
aS'variable_0'
p187
ag8
aS'variable_1'
p188
ag10
aS'gint'
p189
aS'variable_2'
p190
ag10
aS'variable_3'
p191
ag8
aS'variable_4'
p192
ag10
aS'variable_5'
p193
ag8
aS'variable_6'
p194
ag17
aS'variable_7'
p195
ag8
aS'variable_8'
p196
ag20
aS'NULL'
p197
ag10
ag8
aS'variable_9'
p198
ag20
aS'NULL'
p199
ag24
aS'guint'
p200
aS'variable_10'
p201
ag20
aS'func_1'
p202
ag6
aS'variable_1'
p203
ag17
ag29
aS'variable_2'
p204
ag24
aS'if'
p205
ag6
aS'variable_6'
p206
ag17
aS'variable_8'
p207
ag20
aS'func_2'
p208
ag6
aS'variable_6'
p209
ag10
aS'variable_11'
p210
ag10
aS'variable_1'
p211
ag10
aS'variable_2'
p212
ag10
aS'variable_10'
p213
ag10
aS'variable_12'
p214
ag17
ag24
aS'if'
p215
ag6
aS'variable_10'
p216
ag43
ag20
aS'variable_13'
p217
ag17
aS'ETHERCAT_EOE_HEADER'
p218
aS'variable_14'
p219
ag24
aS'variable_15'
p220
ag20
aS'func_3'
p221
ag6
aS'variable_8'
p222
ag10
aS'variable_16'
p223
ag17
ag24
aS'variable_8'
p224
ag20
aS'func_4'
p225
ag6
aS'variable_15'
p226
ag10
aS'variable_17'
p227
ag10
aS'variable_1'
p228
ag10
aS'variable_2'
p229
ag10
ag57
ag10
aS'variable_12'
p230
ag17
ag24
aS'variable_18'
p231
ag20
aS'func_5'
p232
ag6
aS'variable_8'
p233
ag10
aS'variable_19'
p234
ag17
ag24
aS'switch'
p235
ag6
aS'variable_14'
p236
ag65
aS'variable_20'
p237
ag65
aS'variable_21'
p238
ag65
aS'variable_22'
p239
ag17
aS'variable_2'
p240
aS'+='
p241
aS'variable_13'
p242
ag24
aS'variable_8'
p243
ag20
aS'func_6'
p244
ag6
aS'variable_18'
p245
ag10
aS'variable_23'
p246
ag10
aS'variable_1'
p247
ag10
aS'variable_2'
p248
ag10
aS'func_7'
p249
ag6
aS'variable_10'
p250
ag29
aS'variable_2'
p251
ag10
aS'variable_24'
p252
ag17
ag10
aS'variable_12'
p253
ag17
ag24
aS'variable_25'
p254
ag20
aS'func_8'
p255
ag6
aS'variable_8'
p256
ag10
aS'variable_26'
p257
ag17
ag24
aS'func_9'
p258
ag6
aS'variable_25'
p259
ag10
aS'variable_27'
p260
ag10
aS'variable_1'
p261
ag10
aS'variable_2'
p262
ag10
ag57
ag10
aS'variable_28'
p263
ag17
ag24
aS'func_10'
p264
ag6
aS'variable_25'
p265
ag10
aS'variable_29'
p266
ag10
aS'variable_1'
p267
ag10
aS'variable_2'
p268
ag10
ag57
ag10
aS'variable_28'
p269
ag17
ag24
aS'func_11'
p270
ag6
aS'variable_25'
p271
ag10
aS'variable_30'
p272
ag10
aS'variable_1'
p273
ag10
aS'variable_2'
p274
ag10
ag57
ag10
aS'variable_28'
p275
ag17
ag24
aS'func_12'
p276
ag6
aS'variable_25'
p277
ag10
aS'variable_31'
p278
ag10
aS'variable_1'
p279
ag10
aS'variable_2'
p280
ag10
ag57
ag10
aS'variable_28'
p281
ag17
ag24
aS'func_13'
p282
ag6
aS'variable_25'
p283
ag10
aS'variable_32'
p284
ag10
aS'variable_1'
p285
ag10
aS'variable_2'
p286
ag10
ag57
ag10
aS'variable_28'
p287
ag17
ag24
aS'func_14'
p288
ag6
aS'variable_25'
p289
ag10
aS'variable_33'
p290
ag10
aS'variable_1'
p291
ag10
aS'variable_2'
p292
ag10
ag57
ag10
aS'variable_28'
p293
ag17
ag24
aS'func_15'
p294
ag6
aS'variable_25'
p295
ag10
aS'variable_34'
p296
ag10
aS'variable_1'
p297
ag10
aS'variable_2'
p298
ag10
ag57
ag10
aS'variable_28'
p299
ag17
ag24
aS'func_16'
p300
ag6
aS'variable_25'
p301
ag10
aS'variable_35'
p302
ag10
aS'variable_1'
p303
ag10
aS'variable_2'
p304
ag10
aS'variable_36'
p305
ag10
aS'variable_12'
p306
ag17
ag24
aS'func_17'
p307
ag6
aS'variable_25'
p308
ag10
aS'variable_37'
p309
ag10
aS'variable_1'
p310
ag10
aS'variable_2'
p311
ag10
ag57
ag10
aS'variable_28'
p312
ag17
ag24
aS'func_18'
p313
ag6
aS'variable_25'
p314
ag10
aS'variable_38'
p315
ag10
aS'variable_1'
p316
ag10
aS'variable_2'
p317
ag10
ag57
ag10
aS'variable_28'
p318
ag17
ag24
aS'func_19'
p319
ag6
aS'variable_25'
p320
ag10
aS'variable_39'
p321
ag10
aS'variable_1'
p322
ag10
aS'variable_2'
p323
ag10
ag57
ag10
aS'variable_28'
p324
ag17
ag24
aS'func_20'
p325
ag6
aS'variable_25'
p326
ag10
aS'variable_40'
p327
ag10
aS'variable_1'
p328
ag10
aS'variable_2'
p329
ag10
ag57
ag10
aS'variable_28'
p330
ag17
ag24
aS'func_21'
p331
ag6
aS'variable_25'
p332
ag10
aS'variable_41'
p333
ag10
aS'variable_1'
p334
ag10
aS'variable_2'
p335
ag10
aS'32'
p336
ag10
aS'variable_42'
p337
aS'|'
p338
aS'variable_12'
p339
ag17
ag24
aS'func_22'
p340
ag6
aS'variable_8'
p341
ag10
ag179
ag29
aS'Invalid'
p342
aS'length'
p343
ag182
ag179
ag17
ag24
aS'variable_43'
p344
ag20
aS'func_23'
p345
ag6
aS'variable_8'
p346
ag10
aS'variable_44'
p347
ag17
ag24
aS'func_24'
p348
ag6
aS'variable_43'
p349
ag10
aS'variable_45'
p350
ag10
aS'variable_1'
p351
ag10
aS'variable_2'
p352
ag10
ag112
ag10
aS'variable_28'
p353
ag17
ag24
aS'func_25'
p354
ag6
aS'variable_43'
p355
ag10
aS'variable_46'
p356
ag10
aS'variable_1'
p357
ag10
aS'variable_2'
p358
ag10
ag112
ag10
aS'variable_28'
p359
ag17
ag24
aS'func_26'
p360
ag6
aS'variable_43'
p361
ag10
aS'variable_47'
p362
ag10
aS'variable_1'
p363
ag10
aS'variable_2'
p364
ag10
ag112
ag10
aS'variable_28'
p365
ag17
ag24
aS'variable_8'
p366
ag20
aS'func_27'
p367
ag6
aS'variable_43'
p368
ag10
aS'variable_48'
p369
ag10
aS'variable_1'
p370
ag10
aS'variable_2'
p371
ag10
aS'16'
p372
ag8
aS'variable_36'
p373
ag10
aS'variable_12'
p374
ag17
ag24
aS'variable_49'
p375
ag20
aS'func_28'
p376
ag6
aS'variable_8'
p377
ag10
aS'variable_50'
p378
ag17
ag24
aS'func_29'
p379
ag6
aS'variable_49'
p380
ag10
aS'variable_51'
p381
ag142
aS'variable_52'
p382
ag144
ag10
aS'variable_1'
p383
ag10
aS'variable_2'
p384
ag147
aS'variable_52'
p385
ag8
aS'variable_36'
p386
ag10
aS'variable_36'
p387
ag10
aS'variable_12'
p388
ag17
ag24
aS'variable_8'
p389
ag20
aS'func_30'
p390
ag6
aS'variable_43'
p391
ag10
aS'variable_53'
p392
ag10
aS'variable_1'
p393
ag10
aS'variable_2'
p394
ag10
ag57
ag8
aS'sizeof'
p395
ag6
aS'variable_54'
p396
ag17
ag10
aS'variable_12'
p397
ag17
ag24
aS'variable_55'
p398
ag20
aS'func_31'
p399
ag6
aS'variable_8'
p400
ag10
aS'variable_56'
p401
ag17
ag24
aS'func_32'
p402
ag6
aS'variable_55'
p403
ag10
aS'variable_57'
p404
ag142
aS'variable_52'
p405
ag144
ag10
aS'variable_1'
p406
ag10
aS'variable_2'
p407
ag147
aS'variable_52'
p408
ag8
aS'sizeof'
p409
ag6
aS'variable_54'
p410
ag17
ag10
aS'sizeof'
p411
ag6
aS'variable_54'
p412
ag17
ag10
aS'variable_12'
p413
ag17
ag24
aS'func_33'
p414
ag6
aS'variable_8'
p415
ag10
ag179
ag29
aS'Invalid'
p416
aS'length'
p417
ag182
ag179
ag17
ag24
aa(lp418
S'static'
p419
aS'void'
p420
aS'func_0'
p421
ag6
aS'variable_0'
p422
ag8
aS'variable_1'
p423
ag10
aS'gint'
p424
aS'variable_2'
p425
ag10
aS'variable_3'
p426
ag8
aS'variable_4'
p427
ag10
aS'variable_5'
p428
ag8
aS'variable_6'
p429
ag17
aS'variable_0'
p430
ag8
aS'variable_7'
p431
ag24
aS'guint'
p432
aS'variable_8'
p433
ag20
aS'func_1'
p434
ag6
aS'variable_1'
p435
ag17
ag29
aS'variable_2'
p436
ag24
aS'if'
p437
ag6
aS'variable_8'
p438
ag43
ag20
aS'variable_9'
p439
ag17
aS'ETHERCAT_EOE_HEADER'
p440
aS'variable_10'
p441
ag24
aS'switch'
p442
ag6
aS'variable_10'
p443
ag65
aS'variable_11'
p444
ag65
aS'variable_12'
p445
ag65
aS'variable_13'
p446
ag17
aS'variable_2'
p447
aS'+='
p448
aS'variable_9'
p449
ag24
aS'if'
p450
ag6
aS'variable_10'
p451
ag65
aS'variable_14'
p452
ag65
aS'variable_12'
p453
ag65
aS'variable_15'
p454
aS'=='
p455
aS'0'
p456
ag17
aS'variable_7'
p457
ag20
aS'func_2'
p458
ag6
aS'variable_1'
p459
ag10
aS'variable_2'
p460
ag10
aS'variable_8'
p461
ag29
aS'variable_2'
p462
ag10
aS'variable_8'
p463
ag29
aS'variable_2'
p464
ag17
ag24
aS'func_3'
p465
ag6
aS'variable_16'
p466
ag10
aS'variable_7'
p467
ag10
aS'variable_4'
p468
ag10
aS'variable_17'
p469
ag17
ag24
aaa(lp470
I0
aI0
aI0
aa(lp471
I174
aI138
aI83
aa(lp472
(lp473
S'main'
p474
aa(lp475
g474
aa(lp476
g474
aaa(lp477
S'7 ../data/NVD/CVE_2012_4293_PATCHED_dissect_ecat_eoe.c anItem = proto_tree_add_item ( ecat_fraghead_tree , hf_ecat_mailbox_eoe_macfilter , tvb , offset , MIN ( eoe_length - offset , ETHERCAT_EOE_MACFILTER_LEN ) , ENC_NA ) 134'
p478
aS'8 ../data/NVD/CVE_2012_4293_PATCHED_dissect_ecat_eoe.c anItem = proto_tree_add_item ( ecat_fraghead_tree , hf_ecat_mailbox_eoe_init , tvb , offset , MIN ( eoe_length - offset , ETHERCAT_EOE_INIT_LEN ) , ENC_NA ) 95'
p479
aS'9 ../data/NVD/CVE_2012_4293_PATCHED_dissect_ecat_eoe.c next_tvb = tvb_new_subset ( tvb , offset , eoe_length - offset , eoe_length - offset ) 79'
p480
aa.