(lp0
(lp1
(lp2
S'static'
p3
aS'void'
p4
aS'func_0'
p5
aS'('
p6
aS'variable_0'
p7
aS'*'
p8
aS'variable_1'
p9
aS','
p10
aS'variable_2'
p11
ag8
aS'variable_3'
p12
ag10
aS'variable_2'
p13
ag8
aS'variable_4'
p14
ag10
aS'int'
p15
aS'variable_5'
p16
ag10
aS'int'
p17
aS'variable_6'
p18
aS')'
p19
aS'variable_7'
p20
ag8
aS'variable_8'
p21
aS'='
p22
ag6
aS'vwr_t'
p23
ag8
ag19
aS'variable_1'
p24
aS'->'
p25
aS'variable_9'
p26
aS';'
p27
aS'int'
p28
aS'variable_10'
p29
ag22
aS'0'
p30
ag27
aS'register'
p31
aS'register'
p32
aS'variable_2'
p33
ag8
aS'variable_11'
p34
ag10
ag8
aS'variable_12'
p35
ag27
aS'guint16'
p36
aS'variable_13'
p37
ag10
aS'variable_14'
p38
ag27
aS'variable_12'
p39
ag22
aS'&'
p40
ag6
aS'variable_4'
p41
aS'['
p42
ag30
aS']'
p43
ag19
ag27
aS'variable_11'
p44
ag22
ag40
ag6
aS'variable_4'
p45
ag42
aS'variable_5'
p46
aS'-'
p47
aS'variable_8'
p48
aS'->'
p49
aS'variable_15'
p50
ag43
ag19
ag27
aS'variable_13'
p51
ag22
aS'func_1'
p52
ag6
ag40
aS'variable_11'
p53
ag42
aS'variable_8'
p54
aS'->'
p55
aS'variable_16'
p56
ag43
ag19
ag27
aS'variable_14'
p57
ag22
aS'variable_13'
p58
ag27
aS'if'
p59
ag6
aS'variable_13'
p60
aS'>'
p61
ag6
aS'variable_5'
p62
ag47
ag6
aS'int'
p63
ag19
aS'variable_8'
p64
aS'->'
p65
aS'variable_15'
p66
ag19
ag19
aS'variable_13'
p67
ag22
ag6
aS'variable_5'
p68
ag47
ag6
aS'int'
p69
ag19
aS'variable_8'
p70
aS'->'
p71
aS'variable_15'
p72
ag19
ag27
aS'variable_10'
p73
aS'+='
p74
aS'2'
p75
ag27
aS'variable_10'
p76
aS'+='
p77
ag75
ag27
aS'variable_10'
p78
aS'+='
p79
ag75
ag27
aS'variable_10'
p80
aS'+='
p81
ag75
ag27
aS'variable_10'
p82
aS'+='
p83
aS'4'
p84
ag27
aS'variable_10'
p85
aS'+='
p86
ag75
ag27
aS'variable_10'
p87
aS'+='
p88
ag75
ag27
aS'variable_10'
p89
aS'+='
p90
ag84
ag27
aS'variable_10'
p91
aS'+='
p92
ag84
ag27
aS'variable_10'
p93
aS'+='
p94
aS'8'
p95
ag27
aS'variable_10'
p96
aS'+='
p97
ag95
ag27
aS'variable_10'
p98
aS'+='
p99
ag84
ag27
aS'variable_10'
p100
aS'+='
p101
ag84
ag27
aS'variable_10'
p102
aS'+='
p103
ag75
ag27
aS'variable_10'
p104
aS'+='
p105
ag75
ag27
aS'variable_10'
p106
aS'+='
p107
ag75
ag27
aS'variable_10'
p108
aS'+='
p109
ag75
ag27
aS'variable_10'
p110
aS'+='
p111
ag84
ag27
aS'variable_10'
p112
aS'+='
p113
ag84
ag27
aS'variable_10'
p114
aS'+='
p115
ag84
ag27
aS'if'
p116
ag6
aS'variable_5'
p117
aS'<'
p118
ag6
ag6
aS'int'
p119
ag19
aS'variable_14'
p120
aS'+'
p121
ag6
aS'int'
p122
ag19
aS'variable_8'
p123
aS'->'
p124
aS'variable_15'
p125
ag19
ag19
aS'if'
p126
ag6
aS'variable_13'
p127
ag61
ag22
ag84
ag19
aS'memcpy'
p128
ag6
ag40
aS'variable_3'
p129
ag42
aS'variable_10'
p130
ag43
ag10
aS'variable_12'
p131
ag10
aS'variable_13'
p132
ag19
ag27
aa(lp133
S'static'
p134
aS'void'
p135
aS'func_0'
p136
ag6
aS'variable_0'
p137
ag8
aS'variable_1'
p138
ag10
aS'variable_2'
p139
ag8
aS'variable_3'
p140
ag10
aS'variable_2'
p141
ag8
aS'variable_4'
p142
ag10
aS'int'
p143
aS'variable_5'
p144
ag10
aS'int'
p145
aS'variable_6'
p146
ag19
aS'variable_7'
p147
ag8
aS'variable_8'
p148
ag22
ag6
aS'vwr_t'
p149
ag8
ag19
aS'variable_1'
p150
aS'->'
p151
aS'variable_9'
p152
ag27
aS'int'
p153
aS'variable_10'
p154
ag22
ag30
ag27
aS'register'
p155
aS'register'
p156
aS'variable_2'
p157
ag8
aS'variable_11'
p158
ag10
ag8
aS'variable_12'
p159
ag27
aS'guint16'
p160
aS'variable_13'
p161
ag10
aS'variable_14'
p162
ag27
aS'variable_12'
p163
ag22
ag40
ag6
aS'variable_4'
p164
ag42
ag30
ag43
ag19
ag27
aS'variable_11'
p165
ag22
ag40
ag6
aS'variable_4'
p166
ag42
aS'variable_5'
p167
ag47
aS'variable_8'
p168
aS'->'
p169
aS'variable_15'
p170
ag43
ag19
ag27
aS'variable_13'
p171
ag22
aS'func_1'
p172
ag6
ag40
aS'variable_11'
p173
ag42
aS'variable_8'
p174
aS'->'
p175
aS'variable_16'
p176
ag43
ag19
ag27
aS'variable_14'
p177
ag22
aS'variable_13'
p178
ag27
aS'if'
p179
ag6
aS'variable_13'
p180
ag61
ag6
aS'variable_5'
p181
ag47
ag6
aS'int'
p182
ag19
aS'variable_8'
p183
aS'->'
p184
aS'variable_15'
p185
ag19
ag19
aS'variable_13'
p186
ag22
ag6
aS'variable_5'
p187
ag47
ag6
aS'int'
p188
ag19
aS'variable_8'
p189
aS'->'
p190
aS'variable_15'
p191
ag19
ag27
aS'variable_10'
p192
aS'+='
p193
ag75
ag27
aS'variable_10'
p194
aS'+='
p195
ag75
ag27
aS'variable_10'
p196
aS'+='
p197
ag75
ag27
aS'memset'
p198
ag6
ag40
aS'variable_3'
p199
ag42
aS'variable_10'
p200
ag43
ag10
ag30
ag10
ag75
ag19
ag27
aS'variable_10'
p201
aS'+='
p202
ag75
ag27
aS'variable_10'
p203
aS'+='
p204
ag84
ag27
aS'variable_10'
p205
aS'+='
p206
ag75
ag27
aS'variable_10'
p207
aS'+='
p208
ag75
ag27
aS'variable_10'
p209
aS'+='
p210
ag84
ag27
aS'variable_10'
p211
aS'+='
p212
ag84
ag27
aS'variable_10'
p213
aS'+='
p214
ag95
ag27
aS'variable_10'
p215
aS'+='
p216
ag95
ag27
aS'variable_10'
p217
aS'+='
p218
ag84
ag27
aS'memset'
p219
ag6
ag40
aS'variable_3'
p220
ag42
aS'variable_10'
p221
ag43
ag10
ag30
ag10
ag84
ag19
ag27
aS'variable_10'
p222
aS'+='
p223
ag84
ag27
aS'variable_10'
p224
aS'+='
p225
ag75
ag27
aS'variable_10'
p226
aS'+='
p227
ag75
ag27
aS'variable_10'
p228
aS'+='
p229
ag75
ag27
aS'memset'
p230
ag6
ag40
aS'variable_3'
p231
ag42
aS'variable_10'
p232
ag43
ag10
ag30
ag10
ag75
ag19
ag27
aS'variable_10'
p233
aS'+='
p234
ag75
ag27
aS'variable_10'
p235
aS'+='
p236
ag84
ag27
aS'variable_10'
p237
aS'+='
p238
ag84
ag27
aS'memset'
p239
ag6
ag40
aS'variable_3'
p240
ag42
aS'variable_10'
p241
ag43
ag10
ag30
ag10
ag84
ag19
ag27
aS'variable_10'
p242
aS'+='
p243
ag84
ag27
aS'if'
p244
ag6
aS'variable_5'
p245
ag118
ag6
ag6
aS'int'
p246
ag19
aS'variable_14'
p247
ag121
ag6
aS'int'
p248
ag19
aS'variable_8'
p249
aS'->'
p250
aS'variable_15'
p251
ag19
ag19
aS'memcpy'
p252
ag6
ag40
aS'variable_3'
p253
ag42
aS'variable_10'
p254
ag43
ag10
aS'variable_12'
p255
ag10
aS'variable_13'
p256
ag19
ag27
aS'if'
p257
ag6
aS'variable_13'
p258
ag61
ag22
ag84
ag19
aS'memcpy'
p259
ag6
ag40
aS'variable_3'
p260
ag42
aS'variable_10'
p261
ag43
ag10
aS'variable_12'
p262
ag10
aS'variable_13'
p263
ag47
ag84
ag19
ag27
aa(lp264
S'static'
p265
aS'void'
p266
aS'func_0'
p267
ag6
aS'variable_0'
p268
ag8
aS'variable_1'
p269
ag10
aS'variable_2'
p270
ag8
aS'variable_3'
p271
ag10
aS'variable_2'
p272
ag8
aS'variable_4'
p273
ag10
aS'int'
p274
aS'variable_5'
p275
ag10
aS'int'
p276
aS'variable_6'
p277
ag19
aS'variable_7'
p278
ag8
aS'variable_8'
p279
ag22
ag6
aS'vwr_t'
p280
ag8
ag19
aS'variable_1'
p281
aS'->'
p282
aS'variable_9'
p283
ag27
aS'int'
p284
aS'variable_10'
p285
ag22
ag30
ag27
aS'register'
p286
aS'register'
p287
aS'variable_2'
p288
ag8
aS'variable_11'
p289
ag10
ag8
aS'variable_12'
p290
ag27
aS'guint16'
p291
aS'variable_13'
p292
ag10
aS'variable_14'
p293
ag27
aS'variable_12'
p294
ag22
ag40
ag6
aS'variable_4'
p295
ag42
ag30
ag43
ag19
ag27
aS'variable_11'
p296
ag22
ag40
ag6
aS'variable_4'
p297
ag42
aS'variable_5'
p298
ag47
aS'variable_8'
p299
aS'->'
p300
aS'variable_15'
p301
ag43
ag19
ag27
aS'variable_13'
p302
ag22
aS'func_1'
p303
ag6
ag40
aS'variable_11'
p304
ag42
aS'variable_8'
p305
aS'->'
p306
aS'variable_16'
p307
ag43
ag19
ag27
aS'variable_14'
p308
ag22
aS'variable_13'
p309
ag27
aS'if'
p310
ag6
aS'variable_13'
p311
ag61
ag6
aS'variable_5'
p312
ag47
ag6
aS'int'
p313
ag19
aS'variable_8'
p314
aS'->'
p315
aS'variable_15'
p316
ag19
ag19
aS'variable_13'
p317
ag22
ag6
aS'variable_5'
p318
ag47
ag6
aS'int'
p319
ag19
aS'variable_8'
p320
aS'->'
p321
aS'variable_15'
p322
ag19
ag27
aS'variable_10'
p323
aS'+='
p324
ag75
ag27
aS'variable_10'
p325
aS'+='
p326
ag75
ag27
aS'variable_10'
p327
aS'+='
p328
ag75
ag27
aS'memset'
p329
ag6
ag40
aS'variable_3'
p330
ag42
aS'variable_10'
p331
ag43
ag10
ag30
ag10
ag75
ag19
ag27
aS'variable_10'
p332
aS'+='
p333
ag75
ag27
aS'variable_10'
p334
aS'+='
p335
ag84
ag27
aS'variable_10'
p336
aS'+='
p337
ag75
ag27
aS'variable_10'
p338
aS'+='
p339
ag75
ag27
aS'variable_10'
p340
aS'+='
p341
ag84
ag27
aS'variable_10'
p342
aS'+='
p343
ag84
ag27
aS'variable_10'
p344
aS'+='
p345
ag95
ag27
aS'variable_10'
p346
aS'+='
p347
ag95
ag27
aS'variable_10'
p348
aS'+='
p349
ag84
ag27
aS'memset'
p350
ag6
ag40
aS'variable_3'
p351
ag42
aS'variable_10'
p352
ag43
ag10
ag30
ag10
ag84
ag19
ag27
aS'variable_10'
p353
aS'+='
p354
ag84
ag27
aS'variable_10'
p355
aS'+='
p356
ag75
ag27
aS'variable_10'
p357
aS'+='
p358
ag75
ag27
aS'variable_10'
p359
aS'+='
p360
ag75
ag27
aS'memset'
p361
ag6
ag40
aS'variable_3'
p362
ag42
aS'variable_10'
p363
ag43
ag10
ag30
ag10
ag75
ag19
ag27
aS'variable_10'
p364
aS'+='
p365
ag75
ag27
aS'variable_10'
p366
aS'+='
p367
ag84
ag27
aS'variable_10'
p368
aS'+='
p369
ag84
ag27
aS'memset'
p370
ag6
ag40
aS'variable_3'
p371
ag42
aS'variable_10'
p372
ag43
ag10
ag30
ag10
ag84
ag19
ag27
aS'variable_10'
p373
aS'+='
p374
ag84
ag27
aS'if'
p375
ag6
aS'variable_5'
p376
ag118
ag6
ag6
aS'int'
p377
ag19
aS'variable_14'
p378
ag121
ag6
aS'int'
p379
ag19
aS'variable_8'
p380
aS'->'
p381
aS'variable_15'
p382
ag19
ag19
aS'memcpy'
p383
ag6
ag40
aS'variable_3'
p384
ag42
aS'variable_10'
p385
ag43
ag10
aS'variable_12'
p386
ag10
aS'variable_13'
p387
ag19
ag27
aS'memcpy'
p388
ag6
ag40
aS'variable_3'
p389
ag42
aS'variable_10'
p390
ag43
ag10
aS'variable_12'
p391
ag10
aS'variable_13'
p392
ag47
ag84
ag19
ag27
aaa(lp393
I0
aI0
aI0
aa(lp394
I227
aI292
aI273
aa(lp395
(lp396
S'main'
p397
aa(lp398
g397
aa(lp399
g397
aaa(lp400
S'78 ../data/NVD/CVE_2012_4298_PATCHED_vwr_read_rec_data_ethernet.c memcpy 234'
p401
aS'79 ../data/NVD/CVE_2012_4298_PATCHED_vwr_read_rec_data_ethernet.c memcpy 232'
p402
aS'80 ../data/NVD/CVE_2012_4298_PATCHED_vwr_read_rec_data_ethernet.c memcpy 230'
p403
aa.