(lp0
(lp1
(lp2
S'static'
p3
aS'void'
p4
aS'func_0'
p5
aS'('
p6
aS'variable_0'
p7
aS'*'
p8
aS'variable_1'
p9
aS','
p10
aS'variable_2'
p11
ag8
aS'variable_3'
p12
ag10
aS'variable_2'
p13
ag8
aS'variable_4'
p14
ag10
aS'int'
p15
aS'variable_5'
p16
ag10
aS'int'
p17
aS'variable_6'
p18
aS')'
p19
aS'guint16'
p20
aS'variable_7'
p21
aS';'
p22
aS'variable_7'
p23
aS'='
p24
aS'variable_8'
p25
aS'+'
p26
aS'variable_9'
p27
ag22
aS'variable_1'
p28
aS'->'
p29
aS'variable_10'
p30
aS'.'
p31
aS'variable_11'
p32
ag24
ag6
aS'variable_12'
p33
aS'-'
p34
aS'4'
p35
ag19
ag26
aS'variable_7'
p36
ag22
aS'variable_1'
p37
aS'->'
p38
aS'variable_10'
p39
ag31
aS'variable_13'
p40
ag24
ag6
aS'variable_14'
p41
ag34
ag35
ag19
ag26
aS'variable_7'
p42
ag22
aS'variable_1'
p43
aS'->'
p44
aS'variable_10'
p45
ag31
aS'variable_15'
p46
ag24
aS'variable_16'
p47
ag22
aS'variable_1'
p48
aS'->'
p49
aS'variable_10'
p50
ag31
aS'variable_17'
p51
ag31
aS'variable_18'
p52
ag24
ag6
aS'variable_19'
p53
ag19
aS'variable_20'
p54
ag22
aS'variable_1'
p55
aS'->'
p56
aS'variable_10'
p57
ag31
aS'variable_17'
p58
ag31
aS'variable_21'
p59
ag24
ag6
aS'long'
p60
ag19
ag6
aS'variable_22'
p61
ag8
aS'1000'
p62
ag19
ag22
aS'variable_1'
p63
aS'->'
p64
aS'variable_10'
p65
ag31
aS'variable_23'
p66
ag24
aS'variable_24'
p67
ag22
aa(lp68
S'static'
p69
aS'void'
p70
aS'func_0'
p71
ag6
aS'variable_0'
p72
ag8
aS'variable_1'
p73
ag10
aS'variable_2'
p74
ag8
aS'variable_3'
p75
ag10
aS'variable_2'
p76
ag8
aS'variable_4'
p77
ag10
aS'int'
p78
aS'variable_5'
p79
ag10
aS'int'
p80
aS'variable_6'
p81
ag19
aS'variable_7'
p82
ag8
aS'variable_8'
p83
ag24
ag6
aS'vwr_t'
p84
ag8
ag19
aS'variable_1'
p85
aS'->'
p86
aS'variable_9'
p87
ag22
aS'register'
p88
aS'register'
p89
aS'variable_2'
p90
ag8
aS'variable_10'
p91
ag10
ag8
aS'variable_11'
p92
ag22
aS'guint16'
p93
aS'variable_12'
p94
ag10
aS'variable_13'
p95
ag22
aS'guint8'
p96
aS'variable_14'
p97
ag22
aS'guint16'
p98
aS'variable_15'
p99
ag10
aS'variable_16'
p100
ag10
aS'variable_17'
p101
ag22
aS'guint32'
p102
aS'variable_18'
p103
ag10
aS'variable_19'
p104
ag22
aS'int'
p105
aS'variable_20'
p106
ag22
aS'guint32'
p107
aS'variable_21'
p108
ag22
aS'int'
p109
aS'variable_22'
p110
ag10
aS'variable_23'
p111
ag10
aS'variable_24'
p112
ag22
aS'guint64'
p113
aS'variable_25'
p114
ag10
aS'variable_26'
p115
ag22
aS'guint64'
p116
aS'variable_27'
p117
ag22
aS'variable_11'
p118
ag24
aS'&'
p119
ag6
aS'variable_4'
p120
aS'['
p121
aS'0'
p122
aS']'
p123
ag19
ag22
aS'variable_10'
p124
ag24
ag119
ag6
aS'variable_4'
p125
ag121
aS'variable_5'
p126
ag34
aS'variable_8'
p127
aS'->'
p128
aS'variable_28'
p129
ag123
ag19
ag22
aS'variable_12'
p130
ag24
aS'func_1'
p131
ag6
ag119
aS'variable_10'
p132
ag121
aS'variable_8'
p133
aS'->'
p134
aS'variable_29'
p135
ag123
ag19
ag22
aS'if'
p136
ag6
aS'variable_12'
p137
aS'>'
p138
ag6
aS'variable_5'
p139
ag34
ag6
aS'int'
p140
ag19
aS'variable_8'
p141
aS'->'
p142
aS'variable_28'
p143
ag19
ag19
aS'variable_12'
p144
ag24
ag6
aS'variable_5'
p145
ag34
ag6
aS'int'
p146
ag19
aS'variable_8'
p147
aS'->'
p148
aS'variable_28'
p149
ag19
ag22
aS'variable_14'
p150
ag24
aS'variable_10'
p151
ag121
aS'variable_8'
p152
aS'->'
p153
aS'variable_30'
p154
ag123
ag22
aS'variable_21'
p155
ag24
aS'func_2'
p156
ag6
ag119
aS'variable_10'
p157
ag121
aS'variable_8'
p158
aS'->'
p159
aS'variable_31'
p160
ag123
ag19
ag22
aS'if'
p161
ag6
aS'variable_8'
p162
aS'->'
p163
aS'variable_32'
p164
aS'=='
p165
aS'variable_33'
p166
ag19
aS'variable_17'
p167
ag24
aS'func_3'
p168
ag6
ag119
aS'variable_10'
p169
ag121
aS'variable_8'
p170
aS'->'
p171
aS'variable_34'
p172
ag123
ag19
ag22
aS'variable_20'
p173
ag24
aS'variable_17'
p174
ag119
aS'variable_8'
p175
aS'->'
p176
aS'variable_35'
p177
ag22
aS'variable_22'
p178
ag24
ag6
aS'variable_17'
p179
ag119
aS'variable_8'
p180
aS'->'
p181
aS'variable_36'
p182
ag19
aS'?'
p183
aS'16'
p184
aS':'
p185
aS'14'
p186
ag22
aS'variable_20'
p187
ag24
aS'variable_10'
p188
ag121
aS'variable_8'
p189
aS'->'
p190
aS'variable_34'
p191
ag123
ag119
aS'variable_8'
p192
aS'->'
p193
aS'variable_35'
p194
ag22
aS'variable_22'
p195
ag24
ag6
aS'variable_21'
p196
ag119
aS'variable_8'
p197
aS'->'
p198
aS'variable_36'
p199
ag19
ag183
aS'16'
p200
ag185
aS'14'
p201
ag22
aS'variable_18'
p202
ag24
aS'func_4'
p203
ag6
ag119
aS'variable_10'
p204
ag121
aS'variable_8'
p205
aS'->'
p206
aS'variable_37'
p207
ag123
ag19
ag22
aS'variable_38'
p208
ag24
aS'func_5'
p209
ag6
ag119
aS'variable_10'
p210
ag121
aS'variable_8'
p211
aS'->'
p212
aS'variable_39'
p213
ag123
ag19
ag22
aS'if'
p214
ag6
aS'variable_21'
p215
ag119
aS'variable_8'
p216
aS'->'
p217
aS'variable_40'
p218
ag19
aS'variable_24'
p219
ag24
aS'variable_22'
p220
ag26
aS'40'
p221
ag22
aS'if'
p222
ag6
aS'variable_21'
p223
ag119
aS'variable_8'
p224
aS'->'
p225
aS'variable_41'
p226
ag19
aS'variable_24'
p227
ag24
aS'variable_22'
p228
ag26
aS'28'
p229
ag22
aS'if'
p230
ag6
aS'variable_21'
p231
ag119
aS'variable_8'
p232
aS'->'
p233
aS'variable_42'
p234
ag19
aS'variable_24'
p235
ag24
aS'variable_22'
p236
ag26
aS'24'
p237
ag22
aS'if'
p238
ag6
aS'variable_21'
p239
ag119
aS'variable_8'
p240
aS'->'
p241
aS'variable_43'
p242
ag19
aS'variable_24'
p243
ag24
aS'variable_22'
p244
ag26
aS'28'
p245
ag22
aS'variable_24'
p246
ag24
aS'variable_22'
p247
ag26
aS'20'
p248
ag22
aS'variable_23'
p249
ag24
aS'func_6'
p250
ag6
aS'variable_11'
p251
ag10
aS'variable_24'
p252
ag10
aS'variable_18'
p253
ag10
aS'variable_14'
p254
ag19
ag22
aS'if'
p255
ag6
ag6
aS'variable_11'
p256
ag121
aS'variable_23'
p257
ag123
aS'=='
p258
aS'0xdd'
p259
ag19
aS'&&'
p260
ag6
aS'variable_23'
p261
ag26
aS'15'
p262
aS'<'
p263
ag24
aS'variable_12'
p264
ag19
aS'&&'
p265
ag6
aS'variable_20'
p266
aS'!='
p267
ag122
ag19
ag19
aS'variable_25'
p268
ag24
aS'func_7'
p269
ag6
aS'variable_11'
p270
ag10
aS'variable_23'
p271
ag19
ag22
aS'variable_25'
p272
ag24
ag122
ag22
aS'if'
p273
ag6
aS'!'
p274
aS'variable_6'
p275
ag19
aS'if'
p276
ag6
aS'variable_25'
p277
ag263
aS'variable_38'
p278
ag19
aS'variable_27'
p279
ag24
aS'variable_25'
p280
ag34
aS'variable_38'
p281
ag22
aS'if'
p282
ag6
aS'variable_27'
p283
ag138
aS'0x10000000'
p284
ag19
aS'variable_44'
p285
ag24
ag6
aS'variable_45'
p286
ag19
aS'variable_27'
p287
ag22
aS'variable_46'
p288
ag31
aS'variable_47'
p289
ag24
ag6
aS'variable_45'
p290
ag19
aS'variable_44'
p291
ag22
aS'variable_46'
p292
ag31
aS'variable_48'
p293
ag24
ag6
aS'variable_45'
p294
ag19
aS'variable_19'
p295
ag22
aS'variable_46'
p296
ag31
aS'variable_49'
p297
ag24
aS'variable_50'
p298
ag22
aS'variable_46'
p299
ag31
aS'variable_51'
p300
ag24
aS'variable_52'
p301
ag22
aS'variable_46'
p302
ag31
aS'variable_53'
p303
ag24
ag6
aS'variable_45'
p304
ag19
ag6
aS'variable_25'
p305
ag19
ag22
aS'func_8'
p306
ag6
ag119
aS'variable_3'
p307
ag121
aS'variable_54'
p308
ag123
ag10
aS'variable_46'
p309
ag31
aS'variable_55'
p310
ag19
ag22
aS'func_9'
p311
ag6
ag119
aS'variable_3'
p312
ag121
aS'variable_54'
p313
ag123
ag10
aS'variable_46'
p314
ag31
aS'variable_56'
p315
ag19
ag22
aS'func_10'
p316
ag6
ag119
aS'variable_3'
p317
ag121
aS'variable_54'
p318
ag123
ag10
aS'variable_46'
p319
ag31
aS'variable_57'
p320
ag19
ag22
aS'func_11'
p321
ag6
ag119
aS'variable_3'
p322
ag121
aS'variable_54'
p323
ag123
ag10
aS'variable_46'
p324
ag31
aS'variable_58'
p325
ag19
ag22
aS'func_12'
p326
ag6
ag119
aS'variable_3'
p327
ag121
aS'variable_54'
p328
ag123
ag10
aS'variable_46'
p329
ag31
aS'variable_59'
p330
ag19
ag22
aS'func_13'
p331
ag6
ag119
aS'variable_3'
p332
ag121
aS'variable_54'
p333
ag123
ag10
aS'variable_46'
p334
ag31
aS'variable_60'
p335
ag19
ag22
aS'func_14'
p336
ag6
ag119
aS'variable_3'
p337
ag121
aS'variable_54'
p338
ag123
ag10
aS'variable_46'
p339
ag31
aS'variable_47'
p340
ag19
ag22
aS'func_15'
p341
ag6
ag119
aS'variable_3'
p342
ag121
aS'variable_54'
p343
ag123
ag10
aS'variable_46'
p344
ag31
aS'variable_53'
p345
ag19
ag22
aS'func_16'
p346
ag6
ag119
aS'variable_3'
p347
ag121
aS'variable_54'
p348
ag123
ag10
aS'variable_46'
p349
ag31
aS'variable_49'
p350
ag19
ag22
aS'func_17'
p351
ag6
ag119
aS'variable_3'
p352
ag121
aS'variable_54'
p353
ag123
ag10
aS'variable_46'
p354
ag31
aS'variable_51'
p355
ag19
ag22
aS'func_18'
p356
ag6
ag119
aS'variable_3'
p357
ag121
aS'variable_54'
p358
ag123
ag10
aS'variable_46'
p359
ag31
aS'variable_48'
p360
ag19
ag22
aa(lp361
S'static'
p362
aS'void'
p363
aS'func_0'
p364
ag6
aS'variable_0'
p365
ag8
aS'variable_1'
p366
ag10
aS'variable_2'
p367
ag8
aS'variable_3'
p368
ag10
aS'variable_2'
p369
ag8
aS'variable_4'
p370
ag10
aS'int'
p371
aS'variable_5'
p372
ag10
aS'int'
p373
aS'variable_6'
p374
ag19
aS'variable_7'
p375
ag8
aS'variable_8'
p376
ag24
ag6
aS'vwr_t'
p377
ag8
ag19
aS'variable_1'
p378
aS'->'
p379
aS'variable_9'
p380
ag22
aS'register'
p381
aS'register'
p382
aS'variable_2'
p383
ag8
aS'variable_10'
p384
ag10
ag8
aS'variable_11'
p385
ag22
aS'guint16'
p386
aS'variable_12'
p387
ag10
aS'variable_13'
p388
ag22
aS'guint8'
p389
aS'variable_14'
p390
ag22
aS'guint16'
p391
aS'variable_15'
p392
ag10
aS'variable_16'
p393
ag10
aS'variable_17'
p394
ag22
aS'guint32'
p395
aS'variable_18'
p396
ag10
aS'variable_19'
p397
ag22
aS'int'
p398
aS'variable_20'
p399
ag22
aS'guint32'
p400
aS'variable_21'
p401
ag22
aS'int'
p402
aS'variable_22'
p403
ag10
aS'variable_23'
p404
ag10
aS'variable_24'
p405
ag22
aS'guint64'
p406
aS'variable_25'
p407
ag10
aS'variable_26'
p408
ag22
aS'variable_11'
p409
ag24
ag119
ag6
aS'variable_4'
p410
ag121
ag122
ag123
ag19
ag22
aS'variable_10'
p411
ag24
ag119
ag6
aS'variable_4'
p412
ag121
aS'variable_5'
p413
ag34
aS'variable_8'
p414
aS'->'
p415
aS'variable_27'
p416
ag123
ag19
ag22
aS'variable_12'
p417
ag24
aS'func_1'
p418
ag6
ag119
aS'variable_10'
p419
ag121
aS'variable_8'
p420
aS'->'
p421
aS'variable_28'
p422
ag123
ag19
ag22
aS'if'
p423
ag6
aS'variable_12'
p424
ag138
ag6
aS'variable_5'
p425
ag34
ag6
aS'int'
p426
ag19
aS'variable_8'
p427
aS'->'
p428
aS'variable_27'
p429
ag19
ag19
aS'variable_12'
p430
ag24
ag6
aS'variable_5'
p431
ag34
ag6
aS'int'
p432
ag19
aS'variable_8'
p433
aS'->'
p434
aS'variable_27'
p435
ag19
ag22
aS'variable_14'
p436
ag24
aS'variable_10'
p437
ag121
aS'variable_8'
p438
aS'->'
p439
aS'variable_29'
p440
ag123
ag22
aS'variable_21'
p441
ag24
aS'func_2'
p442
ag6
ag119
aS'variable_10'
p443
ag121
aS'variable_8'
p444
aS'->'
p445
aS'variable_30'
p446
ag123
ag19
ag22
aS'if'
p447
ag6
aS'variable_8'
p448
aS'->'
p449
aS'variable_31'
p450
aS'=='
p451
aS'variable_32'
p452
ag19
aS'variable_17'
p453
ag24
aS'func_3'
p454
ag6
ag119
aS'variable_10'
p455
ag121
aS'variable_8'
p456
aS'->'
p457
aS'variable_33'
p458
ag123
ag19
ag22
aS'variable_20'
p459
ag24
aS'variable_17'
p460
ag119
aS'variable_8'
p461
aS'->'
p462
aS'variable_34'
p463
ag22
aS'variable_22'
p464
ag24
ag6
aS'variable_17'
p465
ag119
aS'variable_8'
p466
aS'->'
p467
aS'variable_35'
p468
ag19
ag183
aS'16'
p469
ag185
aS'14'
p470
ag22
aS'variable_20'
p471
ag24
aS'variable_10'
p472
ag121
aS'variable_8'
p473
aS'->'
p474
aS'variable_33'
p475
ag123
ag119
aS'variable_8'
p476
aS'->'
p477
aS'variable_34'
p478
ag22
aS'variable_22'
p479
ag24
ag6
aS'variable_21'
p480
ag119
aS'variable_8'
p481
aS'->'
p482
aS'variable_35'
p483
ag19
ag183
aS'16'
p484
ag185
aS'14'
p485
ag22
aS'variable_18'
p486
ag24
aS'func_4'
p487
ag6
ag119
aS'variable_10'
p488
ag121
aS'variable_8'
p489
aS'->'
p490
aS'variable_36'
p491
ag123
ag19
ag22
aS'variable_37'
p492
ag24
aS'func_5'
p493
ag6
ag119
aS'variable_10'
p494
ag121
aS'variable_8'
p495
aS'->'
p496
aS'variable_38'
p497
ag123
ag19
ag22
aS'if'
p498
ag6
aS'variable_21'
p499
ag119
aS'variable_8'
p500
aS'->'
p501
aS'variable_39'
p502
ag19
aS'variable_24'
p503
ag24
aS'variable_22'
p504
ag26
aS'40'
p505
ag22
aS'if'
p506
ag6
aS'variable_21'
p507
ag119
aS'variable_8'
p508
aS'->'
p509
aS'variable_40'
p510
ag19
aS'variable_24'
p511
ag24
aS'variable_22'
p512
ag26
aS'28'
p513
ag22
aS'if'
p514
ag6
aS'variable_21'
p515
ag119
aS'variable_8'
p516
aS'->'
p517
aS'variable_41'
p518
ag19
aS'variable_24'
p519
ag24
aS'variable_22'
p520
ag26
aS'24'
p521
ag22
aS'if'
p522
ag6
aS'variable_21'
p523
ag119
aS'variable_8'
p524
aS'->'
p525
aS'variable_42'
p526
ag19
aS'variable_24'
p527
ag24
aS'variable_22'
p528
ag26
aS'28'
p529
ag22
aS'variable_24'
p530
ag24
aS'variable_22'
p531
ag26
aS'20'
p532
ag22
aS'variable_23'
p533
ag24
aS'func_6'
p534
ag6
aS'variable_11'
p535
ag10
aS'variable_24'
p536
ag10
aS'variable_18'
p537
ag10
aS'variable_14'
p538
ag19
ag22
aS'if'
p539
ag6
ag6
aS'variable_11'
p540
ag121
aS'variable_23'
p541
ag123
aS'=='
p542
aS'0xdd'
p543
ag19
aS'&&'
p544
ag6
aS'variable_23'
p545
ag26
aS'15'
p546
ag263
ag24
aS'variable_12'
p547
ag19
aS'&&'
p548
ag6
aS'variable_20'
p549
aS'!='
p550
ag122
ag19
ag19
aS'variable_25'
p551
ag24
aS'func_7'
p552
ag6
aS'variable_11'
p553
ag10
aS'variable_23'
p554
ag19
ag22
aS'variable_25'
p555
ag24
ag122
ag22
aS'if'
p556
ag6
ag274
aS'variable_6'
p557
ag19
aS'if'
p558
ag6
aS'variable_25'
p559
ag263
aS'variable_37'
p560
ag19
aS'variable_43'
p561
ag24
ag6
aS'variable_44'
p562
ag19
ag6
aS'variable_37'
p563
ag34
aS'variable_25'
p564
ag19
ag22
aS'variable_45'
p565
ag31
aS'variable_46'
p566
ag24
ag6
aS'variable_44'
p567
ag19
aS'variable_43'
p568
ag22
aS'variable_45'
p569
ag31
aS'variable_47'
p570
ag24
ag6
aS'variable_44'
p571
ag19
aS'variable_19'
p572
ag22
aS'variable_45'
p573
ag31
aS'variable_48'
p574
ag24
aS'variable_49'
p575
ag22
aS'variable_45'
p576
ag31
aS'variable_50'
p577
ag24
aS'variable_51'
p578
ag22
aS'variable_45'
p579
ag31
aS'variable_52'
p580
ag24
ag6
aS'variable_44'
p581
ag19
ag6
aS'variable_25'
p582
ag19
ag22
aS'func_8'
p583
ag6
ag119
aS'variable_3'
p584
ag121
aS'variable_53'
p585
ag123
ag10
aS'variable_45'
p586
ag31
aS'variable_54'
p587
ag19
ag22
aS'func_9'
p588
ag6
ag119
aS'variable_3'
p589
ag121
aS'variable_53'
p590
ag123
ag10
aS'variable_45'
p591
ag31
aS'variable_55'
p592
ag19
ag22
aS'func_10'
p593
ag6
ag119
aS'variable_3'
p594
ag121
aS'variable_53'
p595
ag123
ag10
aS'variable_45'
p596
ag31
aS'variable_56'
p597
ag19
ag22
aS'func_11'
p598
ag6
ag119
aS'variable_3'
p599
ag121
aS'variable_53'
p600
ag123
ag10
aS'variable_45'
p601
ag31
aS'variable_57'
p602
ag19
ag22
aS'func_12'
p603
ag6
ag119
aS'variable_3'
p604
ag121
aS'variable_53'
p605
ag123
ag10
aS'variable_45'
p606
ag31
aS'variable_58'
p607
ag19
ag22
aS'func_13'
p608
ag6
ag119
aS'variable_3'
p609
ag121
aS'variable_53'
p610
ag123
ag10
aS'variable_45'
p611
ag31
aS'variable_59'
p612
ag19
ag22
aS'func_14'
p613
ag6
ag119
aS'variable_3'
p614
ag121
aS'variable_53'
p615
ag123
ag10
aS'variable_45'
p616
ag31
aS'variable_46'
p617
ag19
ag22
aS'func_15'
p618
ag6
ag119
aS'variable_3'
p619
ag121
aS'variable_53'
p620
ag123
ag10
aS'variable_45'
p621
ag31
aS'variable_52'
p622
ag19
ag22
aS'func_16'
p623
ag6
ag119
aS'variable_3'
p624
ag121
aS'variable_53'
p625
ag123
ag10
aS'variable_45'
p626
ag31
aS'variable_48'
p627
ag19
ag22
aS'func_17'
p628
ag6
ag119
aS'variable_3'
p629
ag121
aS'variable_53'
p630
ag123
ag10
aS'variable_45'
p631
ag31
aS'variable_50'
p632
ag19
ag22
aS'func_18'
p633
ag6
ag119
aS'variable_3'
p634
ag121
aS'variable_53'
p635
ag123
ag10
aS'variable_45'
p636
ag31
aS'variable_47'
p637
ag19
ag22
aa(lp638
S'static'
p639
aS'void'
p640
aS'func_0'
p641
ag6
aS'variable_0'
p642
ag8
aS'variable_1'
p643
ag10
aS'variable_2'
p644
ag8
aS'variable_3'
p645
ag10
aS'variable_2'
p646
ag8
aS'variable_4'
p647
ag10
aS'int'
p648
aS'variable_5'
p649
ag10
aS'int'
p650
aS'variable_6'
p651
ag19
aS'variable_7'
p652
ag8
aS'variable_8'
p653
ag24
ag6
aS'vwr_t'
p654
ag8
ag19
aS'variable_1'
p655
aS'->'
p656
aS'variable_9'
p657
ag22
aS'guint64'
p658
aS'variable_10'
p659
ag22
aS'variable_11'
p660
ag24
ag119
ag6
aS'variable_4'
p661
ag121
aS'variable_5'
p662
ag34
aS'variable_8'
p663
aS'->'
p664
aS'variable_12'
p665
ag123
ag19
ag22
aS'variable_13'
p666
ag24
aS'func_1'
p667
ag6
ag119
aS'variable_11'
p668
ag121
aS'variable_8'
p669
aS'->'
p670
aS'variable_14'
p671
ag123
ag19
ag22
aS'variable_10'
p672
ag24
aS'variable_13'
p673
aS'/'
p674
aS'variable_15'
p675
ag22
aS'variable_16'
p676
ag31
aS'variable_17'
p677
ag24
aS'variable_10'
p678
ag22
aS'variable_16'
p679
ag31
aS'variable_18'
p680
ag24
ag6
aS'variable_19'
p681
ag19
ag6
aS'variable_20'
p682
ag19
ag22
aS'func_2'
p683
ag6
ag119
aS'variable_3'
p684
ag121
aS'variable_21'
p685
ag123
ag10
aS'variable_16'
p686
ag31
aS'variable_22'
p687
ag19
ag22
aS'func_3'
p688
ag6
ag119
aS'variable_3'
p689
ag121
aS'variable_21'
p690
ag123
ag10
aS'variable_16'
p691
ag31
aS'variable_23'
p692
ag19
ag22
aS'func_4'
p693
ag6
ag119
aS'variable_3'
p694
ag121
aS'variable_21'
p695
ag123
ag10
aS'variable_16'
p696
ag31
aS'variable_24'
p697
ag19
ag22
aS'func_5'
p698
ag6
ag119
aS'variable_3'
p699
ag121
aS'variable_21'
p700
ag123
ag10
aS'variable_16'
p701
ag31
aS'variable_25'
p702
ag19
ag22
aS'func_6'
p703
ag6
ag119
aS'variable_3'
p704
ag121
aS'variable_21'
p705
ag123
ag10
aS'variable_16'
p706
ag31
aS'variable_26'
p707
ag19
ag22
aS'func_7'
p708
ag6
ag119
aS'variable_3'
p709
ag121
aS'variable_21'
p710
ag123
ag10
aS'variable_16'
p711
ag31
aS'variable_27'
p712
ag19
ag22
aS'func_8'
p713
ag6
ag119
aS'variable_3'
p714
ag121
aS'variable_21'
p715
ag123
ag10
aS'variable_16'
p716
ag31
aS'variable_28'
p717
ag19
ag22
aS'func_9'
p718
ag6
ag119
aS'variable_3'
p719
ag121
aS'variable_21'
p720
ag123
ag10
aS'variable_16'
p721
ag31
aS'variable_18'
p722
ag19
ag22
aS'func_10'
p723
ag6
ag119
aS'variable_3'
p724
ag121
aS'variable_21'
p725
ag123
ag10
aS'variable_16'
p726
ag31
aS'variable_29'
p727
ag19
ag22
aS'func_11'
p728
ag6
ag119
aS'variable_3'
p729
ag121
aS'variable_21'
p730
ag123
ag10
aS'variable_16'
p731
ag31
aS'variable_17'
p732
ag19
ag22
aS'func_12'
p733
ag6
ag119
aS'variable_3'
p734
ag121
aS'variable_21'
p735
ag123
ag10
aS'variable_16'
p736
ag31
aS'variable_30'
p737
ag19
ag22
aa(lp738
S'static'
p739
aS'void'
p740
aS'func_0'
p741
ag6
aS'variable_0'
p742
ag8
aS'variable_1'
p743
ag10
aS'variable_2'
p744
ag8
aS'variable_3'
p745
ag10
aS'variable_2'
p746
ag8
aS'variable_4'
p747
ag10
aS'int'
p748
aS'variable_5'
p749
ag10
aS'int'
p750
aS'variable_6'
p751
ag19
aS'variable_7'
p752
ag8
aS'variable_8'
p753
ag24
ag6
aS'vwr_t'
p754
ag8
ag19
aS'variable_1'
p755
aS'->'
p756
aS'variable_9'
p757
ag22
aS'variable_10'
p758
ag24
ag119
ag6
aS'variable_4'
p759
ag121
aS'variable_5'
p760
ag34
aS'variable_8'
p761
aS'->'
p762
aS'variable_11'
p763
ag123
ag19
ag22
aS'variable_12'
p764
ag24
aS'func_1'
p765
ag6
ag119
aS'variable_10'
p766
ag121
aS'variable_8'
p767
aS'->'
p768
aS'variable_13'
p769
ag123
ag19
ag22
aS'variable_14'
p770
ag24
aS'variable_12'
p771
ag674
aS'variable_15'
p772
ag22
aS'variable_16'
p773
ag24
ag6
aS'variable_14'
p774
ag674
aS'variable_17'
p775
ag19
ag22
aS'variable_18'
p776
ag24
aS'variable_14'
p777
ag34
ag6
aS'variable_16'
p778
ag8
aS'variable_17'
p779
ag19
ag22
aS'variable_1'
p780
aS'->'
p781
aS'variable_19'
p782
ag31
aS'variable_20'
p783
ag31
aS'variable_21'
p784
ag24
ag6
aS'long'
p785
ag19
ag6
aS'variable_18'
p786
ag8
aS'1000'
p787
ag19
ag22
aS'variable_1'
p788
aS'->'
p789
aS'variable_19'
p790
ag31
aS'variable_22'
p791
ag24
aS'variable_23'
p792
ag22
aa(lp793
S'static'
p794
aS'void'
p795
aS'func_0'
p796
ag6
aS'variable_0'
p797
ag8
aS'variable_1'
p798
ag10
aS'variable_2'
p799
ag8
aS'variable_3'
p800
ag10
aS'variable_2'
p801
ag8
aS'variable_4'
p802
ag10
aS'int'
p803
aS'variable_5'
p804
ag10
aS'int'
p805
aS'variable_6'
p806
ag19
aS'variable_7'
p807
ag8
aS'variable_8'
p808
ag24
ag6
aS'vwr_t'
p809
ag8
ag19
aS'variable_1'
p810
aS'->'
p811
aS'variable_9'
p812
ag22
aS'variable_10'
p813
ag24
ag119
ag6
aS'variable_4'
p814
ag121
aS'variable_5'
p815
ag34
aS'variable_8'
p816
aS'->'
p817
aS'variable_11'
p818
ag123
ag19
ag22
aS'variable_12'
p819
ag24
aS'func_1'
p820
ag6
ag119
aS'variable_10'
p821
ag121
aS'variable_8'
p822
aS'->'
p823
aS'variable_13'
p824
ag123
ag19
ag22
aS'variable_14'
p825
ag24
aS'variable_12'
p826
ag674
aS'variable_15'
p827
ag22
aS'variable_16'
p828
ag24
ag6
aS'variable_14'
p829
ag674
aS'variable_17'
p830
ag19
ag22
aS'variable_18'
p831
ag24
aS'variable_14'
p832
ag34
ag6
aS'variable_16'
p833
ag8
aS'variable_17'
p834
ag19
ag22
aS'variable_1'
p835
aS'->'
p836
aS'variable_19'
p837
ag31
aS'variable_20'
p838
ag31
aS'variable_21'
p839
ag24
ag6
aS'variable_22'
p840
ag19
aS'variable_16'
p841
ag22
aS'variable_1'
p842
aS'->'
p843
aS'variable_19'
p844
ag31
aS'variable_20'
p845
ag31
aS'variable_23'
p846
ag24
ag6
aS'long'
p847
ag19
ag6
aS'variable_18'
p848
ag8
aS'1000'
p849
ag19
ag22
aS'variable_1'
p850
aS'->'
p851
aS'variable_19'
p852
ag31
aS'variable_24'
p853
ag24
aS'variable_25'
p854
ag22
aa(lp855
S'static'
p856
aS'void'
p857
aS'func_0'
p858
ag6
aS'variable_0'
p859
ag8
aS'variable_1'
p860
ag10
aS'variable_2'
p861
ag8
aS'variable_3'
p862
ag10
aS'variable_2'
p863
ag8
aS'variable_4'
p864
ag10
aS'int'
p865
aS'variable_5'
p866
ag10
aS'int'
p867
aS'variable_6'
p868
ag19
aS'variable_7'
p869
ag8
aS'variable_8'
p870
ag24
ag6
aS'vwr_t'
p871
ag8
ag19
aS'variable_1'
p872
aS'->'
p873
aS'variable_9'
p874
ag22
aS'variable_10'
p875
ag24
ag119
ag6
aS'variable_4'
p876
ag121
aS'variable_5'
p877
ag34
aS'variable_8'
p878
aS'->'
p879
aS'variable_11'
p880
ag123
ag19
ag22
aS'variable_12'
p881
ag24
aS'func_1'
p882
ag6
ag119
aS'variable_10'
p883
ag121
aS'variable_8'
p884
aS'->'
p885
aS'variable_13'
p886
ag123
ag19
ag22
aS'variable_14'
p887
ag24
aS'variable_12'
p888
ag674
aS'variable_15'
p889
ag22
aS'variable_16'
p890
ag24
ag6
aS'variable_14'
p891
ag674
aS'variable_17'
p892
ag19
ag22
aS'variable_18'
p893
ag24
aS'variable_14'
p894
ag34
ag6
aS'variable_16'
p895
ag8
aS'variable_17'
p896
ag19
ag22
aS'variable_1'
p897
aS'->'
p898
aS'variable_19'
p899
ag31
aS'variable_20'
p900
ag31
aS'variable_21'
p901
ag24
ag6
aS'variable_22'
p902
ag19
aS'variable_16'
p903
ag22
aS'variable_1'
p904
aS'->'
p905
aS'variable_19'
p906
ag31
aS'variable_20'
p907
ag31
aS'variable_23'
p908
ag24
ag6
aS'long'
p909
ag19
ag6
aS'variable_18'
p910
ag8
aS'1000'
p911
ag19
ag22
aS'variable_1'
p912
aS'->'
p913
aS'variable_19'
p914
ag31
aS'variable_24'
p915
ag24
aS'variable_25'
p916
ag22
aS'variable_26'
p917
ag31
aS'variable_27'
p918
ag24
aS'variable_14'
p919
ag22
aS'variable_26'
p920
ag31
aS'variable_28'
p921
ag24
aS'variable_29'
p922
ag22
aS'variable_26'
p923
ag31
aS'variable_30'
p924
ag24
ag6
aS'variable_31'
p925
ag19
ag6
aS'variable_32'
p926
ag19
ag22
aS'func_2'
p927
ag6
ag119
aS'variable_3'
p928
ag121
aS'variable_33'
p929
ag123
ag10
aS'variable_26'
p930
ag31
aS'variable_34'
p931
ag19
ag22
aS'func_3'
p932
ag6
ag119
aS'variable_3'
p933
ag121
aS'variable_33'
p934
ag123
ag10
aS'variable_26'
p935
ag31
aS'variable_35'
p936
ag19
ag22
aS'func_4'
p937
ag6
ag119
aS'variable_3'
p938
ag121
aS'variable_33'
p939
ag123
ag10
aS'variable_26'
p940
ag31
aS'variable_36'
p941
ag19
ag22
aS'func_5'
p942
ag6
ag119
aS'variable_3'
p943
ag121
aS'variable_33'
p944
ag123
ag10
aS'variable_26'
p945
ag31
aS'variable_37'
p946
ag19
ag22
aS'func_6'
p947
ag6
ag119
aS'variable_3'
p948
ag121
aS'variable_33'
p949
ag123
ag10
aS'variable_26'
p950
ag31
aS'variable_38'
p951
ag19
ag22
aS'func_7'
p952
ag6
ag119
aS'variable_3'
p953
ag121
aS'variable_33'
p954
ag123
ag10
aS'variable_26'
p955
ag31
aS'variable_39'
p956
ag19
ag22
aS'func_8'
p957
ag6
ag119
aS'variable_3'
p958
ag121
aS'variable_33'
p959
ag123
ag10
aS'variable_26'
p960
ag31
aS'variable_40'
p961
ag19
ag22
aS'func_9'
p962
ag6
ag119
aS'variable_3'
p963
ag121
aS'variable_33'
p964
ag123
ag10
aS'variable_26'
p965
ag31
aS'variable_30'
p966
ag19
ag22
aS'func_10'
p967
ag6
ag119
aS'variable_3'
p968
ag121
aS'variable_33'
p969
ag123
ag10
aS'variable_26'
p970
ag31
aS'variable_27'
p971
ag19
ag22
aS'func_11'
p972
ag6
ag119
aS'variable_3'
p973
ag121
aS'variable_33'
p974
ag123
ag10
aS'variable_26'
p975
ag31
aS'variable_28'
p976
ag19
ag22
aS'func_12'
p977
ag6
ag119
aS'variable_3'
p978
ag121
aS'variable_33'
p979
ag123
ag10
aS'variable_26'
p980
ag31
aS'variable_41'
p981
ag19
ag22
aa(lp982
S'static'
p983
aS'void'
p984
aS'func_0'
p985
ag6
aS'variable_0'
p986
ag8
aS'variable_1'
p987
ag10
aS'variable_2'
p988
ag8
aS'variable_3'
p989
ag10
aS'variable_2'
p990
ag8
aS'variable_4'
p991
ag10
aS'int'
p992
aS'variable_5'
p993
ag10
aS'int'
p994
aS'variable_6'
p995
ag19
aS'variable_7'
p996
ag8
aS'variable_8'
p997
ag24
ag6
aS'vwr_t'
p998
ag8
ag19
aS'variable_1'
p999
aS'->'
p1000
aS'variable_9'
p1001
ag22
aS'guint32'
p1002
aS'variable_10'
p1003
ag10
aS'variable_11'
p1004
ag22
aS'variable_12'
p1005
ag24
ag119
ag6
aS'variable_4'
p1006
ag121
aS'variable_5'
p1007
ag34
aS'variable_8'
p1008
aS'->'
p1009
aS'variable_13'
p1010
ag123
ag19
ag22
aS'variable_14'
p1011
ag24
aS'func_1'
p1012
ag6
ag119
aS'variable_12'
p1013
ag121
aS'variable_8'
p1014
aS'->'
p1015
aS'variable_15'
p1016
ag123
ag19
ag22
aS'variable_16'
p1017
ag24
aS'func_2'
p1018
ag6
ag119
aS'variable_12'
p1019
ag121
aS'variable_8'
p1020
aS'->'
p1021
aS'variable_17'
p1022
ag123
ag19
ag22
aS'variable_11'
p1023
ag24
ag6
aS'variable_18'
p1024
ag19
ag6
ag6
aS'variable_16'
p1025
ag34
aS'variable_14'
p1026
ag19
ag19
ag22
aS'variable_19'
p1027
ag31
aS'variable_20'
p1028
ag24
ag6
aS'variable_18'
p1029
ag19
aS'variable_11'
p1030
ag22
aS'variable_19'
p1031
ag31
aS'variable_21'
p1032
ag24
aS'variable_22'
p1033
ag22
aS'variable_19'
p1034
ag31
aS'variable_23'
p1035
ag24
aS'variable_24'
p1036
ag22
aS'variable_19'
p1037
ag31
aS'variable_25'
p1038
ag24
ag6
aS'variable_18'
p1039
ag19
ag6
aS'variable_26'
p1040
ag19
ag22
aS'func_3'
p1041
ag6
ag119
aS'variable_3'
p1042
ag121
aS'variable_27'
p1043
ag123
ag10
aS'variable_19'
p1044
ag31
aS'variable_28'
p1045
ag19
ag22
aS'func_4'
p1046
ag6
ag119
aS'variable_3'
p1047
ag121
aS'variable_27'
p1048
ag123
ag10
aS'variable_19'
p1049
ag31
aS'variable_29'
p1050
ag19
ag22
aS'func_5'
p1051
ag6
ag119
aS'variable_3'
p1052
ag121
aS'variable_27'
p1053
ag123
ag10
aS'variable_19'
p1054
ag31
aS'variable_30'
p1055
ag19
ag22
aS'func_6'
p1056
ag6
ag119
aS'variable_3'
p1057
ag121
aS'variable_27'
p1058
ag123
ag10
aS'variable_19'
p1059
ag31
aS'variable_31'
p1060
ag19
ag22
aS'func_7'
p1061
ag6
ag119
aS'variable_3'
p1062
ag121
aS'variable_27'
p1063
ag123
ag10
aS'variable_19'
p1064
ag31
aS'variable_32'
p1065
ag19
ag22
aS'func_8'
p1066
ag6
ag119
aS'variable_3'
p1067
ag121
aS'variable_27'
p1068
ag123
ag10
aS'variable_19'
p1069
ag31
aS'variable_33'
p1070
ag19
ag22
aS'func_9'
p1071
ag6
ag119
aS'variable_3'
p1072
ag121
aS'variable_27'
p1073
ag123
ag10
aS'variable_19'
p1074
ag31
aS'variable_34'
p1075
ag19
ag22
aS'func_10'
p1076
ag6
ag119
aS'variable_3'
p1077
ag121
aS'variable_27'
p1078
ag123
ag10
aS'variable_19'
p1079
ag31
aS'variable_25'
p1080
ag19
ag22
aS'func_11'
p1081
ag6
ag119
aS'variable_3'
p1082
ag121
aS'variable_27'
p1083
ag123
ag10
aS'variable_19'
p1084
ag31
aS'variable_21'
p1085
ag19
ag22
aS'func_12'
p1086
ag6
ag119
aS'variable_3'
p1087
ag121
aS'variable_27'
p1088
ag123
ag10
aS'variable_19'
p1089
ag31
aS'variable_23'
p1090
ag19
ag22
aS'func_13'
p1091
ag6
ag119
aS'variable_3'
p1092
ag121
aS'variable_27'
p1093
ag123
ag10
aS'variable_19'
p1094
ag31
aS'variable_20'
p1095
ag19
ag22
aa(lp1096
S'static'
p1097
aS'void'
p1098
aS'func_0'
p1099
ag6
aS'variable_0'
p1100
ag8
aS'variable_1'
p1101
ag10
aS'variable_2'
p1102
ag8
aS'variable_3'
p1103
ag10
aS'variable_2'
p1104
ag8
aS'variable_4'
p1105
ag10
aS'int'
p1106
aS'variable_5'
p1107
ag10
aS'int'
p1108
aS'variable_6'
p1109
ag19
aS'variable_7'
p1110
ag8
aS'variable_8'
p1111
ag24
ag6
aS'vwr_t'
p1112
ag8
ag19
aS'variable_1'
p1113
aS'->'
p1114
aS'variable_9'
p1115
ag22
aS'guint64'
p1116
aS'variable_10'
p1117
ag10
aS'variable_11'
p1118
ag22
aS'variable_12'
p1119
ag24
ag119
ag6
aS'variable_4'
p1120
ag121
aS'variable_5'
p1121
ag34
aS'variable_8'
p1122
aS'->'
p1123
aS'variable_13'
p1124
ag123
ag19
ag22
aS'variable_11'
p1125
ag24
ag6
aS'variable_12'
p1126
ag121
aS'variable_8'
p1127
aS'->'
p1128
aS'variable_14'
p1129
ag26
aS'6'
p1130
ag123
aS'<<'
p1131
aS'8'
p1132
ag19
aS'|'
p1133
ag6
aS'variable_12'
p1134
ag121
aS'variable_8'
p1135
aS'->'
p1136
aS'variable_14'
p1137
ag26
aS'7'
p1138
ag123
ag19
ag22
aS'for'
p1139
ag6
aS'variable_15'
p1140
ag24
ag122
ag22
aS'variable_15'
p1141
ag263
ag35
ag22
aS'variable_15'
p1142
aS'++'
p1143
ag19
aS'variable_11'
p1144
ag24
ag6
aS'variable_11'
p1145
aS'<<'
p1146
ag1132
ag19
ag1133
aS'variable_12'
p1147
ag121
aS'variable_8'
p1148
aS'->'
p1149
aS'variable_14'
p1150
ag26
aS'variable_15'
p1151
ag123
ag22
aa(lp1152
S'static'
p1153
aS'void'
p1154
aS'func_0'
p1155
ag6
aS'variable_0'
p1156
ag8
aS'variable_1'
p1157
ag10
aS'variable_2'
p1158
ag8
aS'variable_3'
p1159
ag10
aS'variable_2'
p1160
ag8
aS'variable_4'
p1161
ag10
aS'int'
p1162
aS'variable_5'
p1163
ag10
aS'int'
p1164
aS'variable_6'
p1165
ag19
aS'variable_7'
p1166
ag8
aS'variable_8'
p1167
ag24
ag6
aS'vwr_t'
p1168
ag8
ag19
aS'variable_1'
p1169
aS'->'
p1170
aS'variable_9'
p1171
ag22
aS'variable_10'
p1172
ag24
ag119
ag6
aS'variable_4'
p1173
ag121
aS'variable_5'
p1174
ag34
aS'variable_8'
p1175
aS'->'
p1176
aS'variable_11'
p1177
ag123
ag19
ag22
aS'variable_12'
p1178
ag24
aS'func_1'
p1179
ag6
ag119
aS'variable_10'
p1180
ag121
aS'variable_8'
p1181
aS'->'
p1182
aS'variable_13'
p1183
ag123
ag19
ag22
aS'variable_14'
p1184
ag24
aS'variable_12'
p1185
ag22
aS'if'
p1186
ag6
aS'variable_12'
p1187
ag138
ag6
aS'variable_5'
p1188
ag34
ag6
aS'int'
p1189
ag19
aS'variable_8'
p1190
aS'->'
p1191
aS'variable_11'
p1192
ag19
ag19
aS'variable_15'
p1193
ag24
aS'func_2'
p1194
ag6
ag119
aS'variable_10'
p1195
ag121
aS'variable_8'
p1196
aS'->'
p1197
aS'variable_16'
p1198
ag123
ag19
ag119
aS'variable_8'
p1199
aS'->'
p1200
aS'variable_17'
p1201
ag22
aS'variable_18'
p1202
ag24
aS'variable_10'
p1203
ag121
aS'variable_8'
p1204
aS'->'
p1205
aS'variable_19'
p1206
ag123
ag22
aS'variable_20'
p1207
ag24
aS'func_3'
p1208
ag6
ag119
aS'variable_10'
p1209
ag121
aS'variable_8'
p1210
aS'->'
p1211
aS'variable_21'
p1212
ag123
ag19
ag22
aS'variable_22'
p1213
ag24
aS'func_4'
p1214
ag6
ag119
aS'variable_10'
p1215
ag121
aS'variable_8'
p1216
aS'->'
p1217
aS'variable_23'
p1218
ag123
ag19
ag22
aS'variable_24'
p1219
ag24
aS'variable_22'
p1220
ag119
aS'variable_8'
p1221
aS'->'
p1222
aS'variable_25'
p1223
ag22
aS'variable_26'
p1224
ag24
ag6
aS'variable_22'
p1225
ag119
aS'variable_8'
p1226
aS'->'
p1227
aS'variable_27'
p1228
ag19
ag183
aS'16'
p1229
ag185
aS'14'
p1230
ag22
aS'variable_28'
p1231
ag24
aS'func_5'
p1232
ag6
ag119
aS'variable_10'
p1233
ag121
aS'variable_8'
p1234
aS'->'
p1235
aS'variable_29'
p1236
ag123
ag19
ag22
aS'variable_24'
p1237
ag24
aS'variable_10'
p1238
ag121
aS'variable_8'
p1239
aS'->'
p1240
aS'variable_23'
p1241
ag123
ag119
aS'variable_8'
p1242
aS'->'
p1243
aS'variable_25'
p1244
ag22
aS'variable_26'
p1245
ag24
ag6
aS'variable_20'
p1246
ag119
aS'variable_8'
p1247
aS'->'
p1248
aS'variable_27'
p1249
ag19
ag183
aS'16'
p1250
ag185
aS'14'
p1251
ag22
aS'variable_28'
p1252
ag24
aS'func_6'
p1253
ag6
ag119
aS'variable_10'
p1254
ag121
aS'variable_8'
p1255
aS'->'
p1256
aS'variable_29'
p1257
ag123
ag19
ag22
aS'variable_30'
p1258
ag24
aS'func_7'
p1259
ag6
ag119
aS'variable_10'
p1260
ag121
aS'variable_8'
p1261
aS'->'
p1262
aS'variable_31'
p1263
ag123
ag19
ag22
aS'variable_32'
p1264
ag24
aS'func_8'
p1265
ag6
ag119
aS'variable_10'
p1266
ag121
aS'variable_8'
p1267
aS'->'
p1268
aS'variable_33'
p1269
ag123
ag19
ag22
aS'variable_34'
p1270
ag24
ag6
aS'variable_10'
p1271
ag121
aS'variable_8'
p1272
aS'->'
p1273
aS'variable_35'
p1274
ag26
ag1130
ag123
aS'<<'
p1275
ag1132
ag19
ag1133
ag6
aS'variable_10'
p1276
ag121
aS'variable_8'
p1277
aS'->'
p1278
aS'variable_35'
p1279
ag26
ag1138
ag123
ag19
ag22
aS'variable_34'
p1280
ag24
ag6
aS'variable_34'
p1281
aS'<<'
p1282
ag1132
ag19
ag1133
aS'variable_10'
p1283
ag121
aS'variable_8'
p1284
aS'->'
p1285
aS'variable_35'
p1286
ag26
aS'variable_36'
p1287
ag123
ag22
aS'variable_37'
p1288
ag24
aS'func_9'
p1289
ag6
ag119
aS'variable_10'
p1290
ag121
aS'variable_8'
p1291
aS'->'
p1292
aS'variable_38'
p1293
ag123
ag19
ag22
aS'variable_39'
p1294
ag24
aS'func_10'
p1295
ag6
ag119
aS'variable_10'
p1296
ag121
aS'variable_8'
p1297
aS'->'
p1298
aS'variable_40'
p1299
ag123
ag19
ag22
aS'variable_41'
p1300
ag24
aS'func_11'
p1301
ag6
ag119
aS'variable_10'
p1302
ag121
aS'variable_8'
p1303
aS'->'
p1304
aS'variable_42'
p1305
ag123
ag19
ag22
aS'variable_43'
p1306
ag24
ag6
aS'variable_44'
p1307
ag19
ag6
ag6
aS'variable_41'
p1308
ag34
aS'variable_39'
p1309
ag19
ag19
ag22
aS'variable_45'
p1310
ag24
aS'variable_39'
p1311
ag674
aS'variable_46'
p1312
ag22
aS'variable_47'
p1313
ag24
ag6
aS'variable_45'
p1314
ag674
aS'variable_48'
p1315
ag19
ag22
aS'variable_49'
p1316
ag24
aS'variable_45'
p1317
ag34
ag6
aS'variable_47'
p1318
ag8
aS'variable_48'
p1319
ag19
ag22
aS'variable_50'
p1320
ag24
aS'variable_41'
p1321
ag674
aS'variable_46'
p1322
ag22
aS'if'
p1323
ag6
aS'variable_20'
p1324
ag119
aS'variable_8'
p1325
aS'->'
p1326
aS'variable_51'
p1327
ag19
aS'variable_52'
p1328
ag24
aS'variable_26'
p1329
ag26
aS'40'
p1330
ag22
aS'if'
p1331
ag6
aS'variable_20'
p1332
ag119
aS'variable_8'
p1333
aS'->'
p1334
aS'variable_53'
p1335
ag19
aS'variable_52'
p1336
ag24
aS'variable_26'
p1337
ag26
aS'28'
p1338
ag22
aS'if'
p1339
ag6
aS'variable_20'
p1340
ag119
aS'variable_8'
p1341
aS'->'
p1342
aS'variable_54'
p1343
ag19
aS'variable_52'
p1344
ag24
aS'variable_26'
p1345
ag26
aS'24'
p1346
ag22
aS'if'
p1347
ag6
aS'variable_20'
p1348
ag119
aS'variable_8'
p1349
aS'->'
p1350
aS'variable_55'
p1351
ag19
aS'variable_52'
p1352
ag24
aS'variable_26'
p1353
ag26
aS'28'
p1354
ag22
aS'variable_52'
p1355
ag24
aS'variable_26'
p1356
ag26
aS'20'
p1357
ag22
aS'variable_56'
p1358
ag24
aS'func_12'
p1359
ag6
aS'variable_57'
p1360
ag10
aS'variable_52'
p1361
ag10
aS'variable_32'
p1362
ag10
aS'variable_18'
p1363
ag19
ag22
aS'if'
p1364
ag6
ag6
aS'variable_57'
p1365
ag121
aS'variable_56'
p1366
ag123
aS'=='
p1367
aS'0xdd'
p1368
ag19
aS'&&'
p1369
ag6
aS'variable_56'
p1370
ag26
aS'15'
p1371
ag263
ag24
aS'variable_12'
p1372
ag19
aS'&&'
p1373
ag6
aS'variable_24'
p1374
aS'!='
p1375
ag122
ag19
ag19
aS'variable_58'
p1376
ag24
aS'func_13'
p1377
ag6
aS'variable_57'
p1378
ag10
aS'variable_56'
p1379
ag19
ag22
aS'if'
p1380
ag6
aS'variable_58'
p1381
ag263
aS'variable_39'
p1382
ag19
aS'variable_59'
p1383
ag24
ag6
aS'variable_44'
p1384
ag19
ag6
aS'variable_39'
p1385
ag34
aS'variable_58'
p1386
ag19
ag22
aS'variable_60'
p1387
ag24
aS'variable_58'
p1388
ag34
aS'variable_39'
p1389
ag22
aS'if'
p1390
ag6
aS'variable_60'
p1391
ag138
aS'0x10000000'
p1392
ag19
aS'variable_59'
p1393
ag24
ag6
aS'variable_44'
p1394
ag19
aS'variable_60'
p1395
ag22
aS'variable_1'
p1396
aS'->'
p1397
aS'variable_61'
p1398
ag31
aS'variable_62'
p1399
ag24
ag6
aS'variable_14'
p1400
ag34
ag35
ag19
ag26
aS'variable_63'
p1401
ag22
aS'variable_1'
p1402
aS'->'
p1403
aS'variable_61'
p1404
ag31
aS'variable_64'
p1405
ag24
ag6
aS'variable_12'
p1406
ag34
ag35
ag19
ag26
aS'variable_63'
p1407
ag22
aS'variable_1'
p1408
aS'->'
p1409
aS'variable_61'
p1410
ag31
aS'variable_65'
p1411
ag24
aS'variable_66'
p1412
ag22
aS'variable_1'
p1413
aS'->'
p1414
aS'variable_61'
p1415
ag31
aS'variable_67'
p1416
ag31
aS'variable_68'
p1417
ag24
ag6
aS'variable_69'
p1418
ag19
aS'variable_47'
p1419
ag22
aS'variable_1'
p1420
aS'->'
p1421
aS'variable_61'
p1422
ag31
aS'variable_67'
p1423
ag31
aS'variable_70'
p1424
ag24
ag6
aS'long'
p1425
ag19
ag6
aS'variable_49'
p1426
ag8
aS'1000'
p1427
ag19
ag22
aS'variable_1'
p1428
aS'->'
p1429
aS'variable_61'
p1430
ag31
aS'variable_71'
p1431
ag24
aS'variable_72'
p1432
ag22
aS'variable_73'
p1433
ag31
aS'variable_74'
p1434
ag24
ag6
aS'variable_44'
p1435
ag19
aS'variable_28'
p1436
ag22
aS'variable_73'
p1437
ag31
aS'variable_75'
p1438
ag24
ag6
aS'variable_76'
p1439
ag19
aS'variable_30'
p1440
ag22
aS'variable_77'
p1441
ag31
aS'variable_78'
p1442
ag24
ag6
aS'variable_76'
p1443
ag19
aS'variable_12'
p1444
ag22
aS'variable_77'
p1445
ag31
aS'variable_79'
p1446
ag24
ag6
aS'variable_44'
p1447
ag19
aS'variable_32'
p1448
ag22
aS'variable_77'
p1449
ag31
aS'variable_80'
p1450
ag24
ag6
aS'variable_76'
p1451
ag19
aS'variable_15'
p1452
ag22
aS'variable_77'
p1453
ag31
aS'variable_81'
p1454
ag24
ag6
aS'variable_76'
p1455
ag19
aS'variable_18'
p1456
ag22
aS'if'
p1457
ag6
ag274
aS'variable_6'
p1458
aS'&&'
p1459
ag6
aS'variable_58'
p1460
aS'!='
p1461
ag122
ag19
ag19
aS'variable_77'
p1462
ag31
aS'variable_82'
p1463
ag24
ag6
aS'variable_44'
p1464
ag19
aS'variable_59'
p1465
ag22
aS'variable_77'
p1466
ag31
aS'variable_82'
p1467
ag24
ag122
ag22
aS'variable_77'
p1468
ag31
aS'variable_83'
p1469
ag24
ag6
aS'variable_44'
p1470
ag19
aS'variable_43'
p1471
ag22
aS'variable_73'
p1472
ag31
aS'variable_84'
p1473
ag24
ag6
aS'variable_44'
p1474
ag19
aS'variable_37'
p1475
ag22
aS'variable_73'
p1476
ag31
aS'variable_85'
p1477
ag24
ag122
ag22
aS'variable_73'
p1478
ag31
aS'variable_85'
p1479
ag1133
ag24
aS'variable_86'
p1480
ag22
aS'if'
p1481
ag6
aS'variable_28'
p1482
ag119
aS'variable_8'
p1483
aS'->'
p1484
aS'variable_87'
p1485
ag19
aS'variable_73'
p1486
ag31
aS'variable_85'
p1487
ag1133
ag24
aS'variable_88'
p1488
ag22
aS'variable_77'
p1489
ag31
aS'variable_89'
p1490
ag24
aS'variable_45'
p1491
ag22
aS'variable_77'
p1492
ag31
aS'variable_90'
p1493
ag24
aS'variable_50'
p1494
ag22
aS'variable_77'
p1495
ag31
aS'variable_91'
p1496
ag24
ag6
aS'variable_44'
p1497
ag19
ag6
aS'variable_58'
p1498
ag19
ag22
aS'variable_73'
p1499
ag31
aS'variable_92'
p1500
ag24
ag122
ag22
aS'func_14'
p1501
ag6
ag119
aS'variable_3'
p1502
ag121
aS'variable_93'
p1503
ag123
ag10
aS'variable_77'
p1504
ag31
aS'variable_94'
p1505
ag19
ag22
aS'func_15'
p1506
ag6
ag119
aS'variable_3'
p1507
ag121
aS'variable_93'
p1508
ag123
ag10
aS'variable_77'
p1509
ag31
aS'variable_95'
p1510
ag19
ag22
aS'func_16'
p1511
ag6
ag119
aS'variable_3'
p1512
ag121
aS'variable_93'
p1513
ag123
ag10
aS'variable_77'
p1514
ag31
aS'variable_78'
p1515
ag19
ag22
aS'func_17'
p1516
ag6
ag119
aS'variable_3'
p1517
ag121
aS'variable_93'
p1518
ag123
ag10
aS'variable_77'
p1519
ag31
aS'variable_79'
p1520
ag19
ag22
aS'func_18'
p1521
ag6
ag119
aS'variable_3'
p1522
ag121
aS'variable_93'
p1523
ag123
ag10
aS'variable_77'
p1524
ag31
aS'variable_80'
p1525
ag19
ag22
aS'func_19'
p1526
ag6
ag119
aS'variable_3'
p1527
ag121
aS'variable_93'
p1528
ag123
ag10
aS'variable_77'
p1529
ag31
aS'variable_81'
p1530
ag19
ag22
aS'func_20'
p1531
ag6
ag119
aS'variable_3'
p1532
ag121
aS'variable_93'
p1533
ag123
ag10
aS'variable_77'
p1534
ag31
aS'variable_82'
p1535
ag19
ag22
aS'func_21'
p1536
ag6
ag119
aS'variable_3'
p1537
ag121
aS'variable_93'
p1538
ag123
ag10
aS'variable_77'
p1539
ag31
aS'variable_91'
p1540
ag19
ag22
aS'func_22'
p1541
ag6
ag119
aS'variable_3'
p1542
ag121
aS'variable_93'
p1543
ag123
ag10
aS'variable_77'
p1544
ag31
aS'variable_89'
p1545
ag19
ag22
aS'func_23'
p1546
ag6
ag119
aS'variable_3'
p1547
ag121
aS'variable_93'
p1548
ag123
ag10
aS'variable_77'
p1549
ag31
aS'variable_90'
p1550
ag19
ag22
aS'func_24'
p1551
ag6
ag119
aS'variable_3'
p1552
ag121
aS'variable_93'
p1553
ag123
ag10
aS'variable_77'
p1554
ag31
aS'variable_83'
p1555
ag19
ag22
aS'func_25'
p1556
ag6
ag119
aS'variable_3'
p1557
ag121
aS'variable_93'
p1558
ag123
ag10
aS'variable_73'
p1559
ag31
aS'variable_95'
p1560
ag19
ag22
aS'func_26'
p1561
ag6
ag119
aS'variable_3'
p1562
ag121
aS'variable_93'
p1563
ag123
ag10
aS'variable_73'
p1564
ag31
aS'variable_85'
p1565
ag19
ag22
aS'func_27'
p1566
ag6
ag119
aS'variable_3'
p1567
ag121
aS'variable_93'
p1568
ag123
ag10
aS'variable_73'
p1569
ag31
aS'variable_75'
p1570
ag19
ag22
aS'func_28'
p1571
ag6
ag119
aS'variable_3'
p1572
ag121
aS'variable_93'
p1573
ag123
ag10
aS'variable_73'
p1574
ag31
aS'variable_74'
p1575
ag19
ag22
aS'func_29'
p1576
ag6
ag119
aS'variable_3'
p1577
ag121
aS'variable_93'
p1578
ag123
ag10
aS'variable_73'
p1579
ag31
aS'variable_84'
p1580
ag19
ag22
aS'if'
p1581
ag6
aS'variable_5'
p1582
ag263
ag6
ag6
aS'int'
p1583
ag19
aS'variable_14'
p1584
ag26
ag6
aS'int'
p1585
ag19
aS'variable_8'
p1586
aS'->'
p1587
aS'variable_11'
p1588
ag19
ag19
aS'memcpy'
p1589
ag6
ag119
aS'variable_3'
p1590
ag121
aS'variable_93'
p1591
ag123
ag10
aS'variable_57'
p1592
ag10
aS'variable_12'
p1593
ag19
ag22
aS'if'
p1594
ag6
aS'variable_12'
p1595
ag138
ag24
ag35
ag19
aS'memcpy'
p1596
ag6
ag119
aS'variable_3'
p1597
ag121
aS'variable_93'
p1598
ag123
ag10
aS'variable_57'
p1599
ag10
aS'variable_12'
p1600
ag34
ag35
ag19
ag22
aS'memcpy'
p1601
ag6
ag119
aS'variable_3'
p1602
ag121
aS'variable_93'
p1603
ag123
ag10
aS'variable_57'
p1604
ag10
aS'variable_12'
p1605
ag19
ag22
aaa(lp1606
I0
aI0
aI0
aI0
aI0
aI0
aI0
aI0
aI0
aI0
aa(lp1607
I29
aI396
aI393
aI68
aI83
aI73
aI65
aI83
aI107
aI46
aa(lp1608
(lp1609
S'main'
p1610
aa(lp1611
g1610
aa(lp1612
g1610
aa(lp1613
g1610
aa(lp1614
g1610
aa(lp1615
g1610
aa(lp1616
g1610
aa(lp1617
g1610
aa(lp1618
g1610
aa(lp1619
g1610
aaa(lp1620
S'13 ../data/NVD/CVE_2012_4298_PATCHED_vwr_read_rec_data_ethernet.c e_hdr_len = STATS_COMMON_FIELDS_LEN + STATS_ETHERNETTAP_FIELDS_LEN 138'
p1621
aS'14 ../data/NVD/CVE_2012_4298_PATCHED_vwr_read_rec_data_ethernet.c delta_b = sig_ts - s_time 125'
p1622
aS'15 ../data/NVD/CVE_2012_4298_PATCHED_vwr_read_rec_data_ethernet.c latency = ( guint32 ) ( s_time - sig_ts ) 121'
p1623
aS'16 ../data/NVD/CVE_2012_4298_PATCHED_vwr_read_rec_data_ethernet.c end_time = e_time / NS_IN_US 89'
p1624
aS'17 ../data/NVD/CVE_2012_4298_PATCHED_vwr_read_rec_data_ethernet.c s_usec = start_time - ( s_sec * US_IN_SEC ) 86'
p1625
aS'18 ../data/NVD/CVE_2012_4298_PATCHED_vwr_read_rec_data_ethernet.c s_sec = ( start_time / US_IN_SEC ) 85'
p1626
aS'19 ../data/NVD/CVE_2012_4298_PATCHED_vwr_read_rec_data_ethernet.c start_time = s_time / NS_IN_US 84'
p1627
aS'20 ../data/NVD/CVE_2012_4298_PATCHED_vwr_read_rec_data_ethernet.c d_time = ( guint32 ) ( ( e_time - s_time ) ) 81'
p1628
aS'21 ../data/NVD/CVE_2012_4298_PATCHED_vwr_read_rec_data_ethernet.c tsid = ( tsid << 8 ) | s_ptr [ vwr -> LATVAL_OFF + i ] 70'
p1629
aS'22 ../data/NVD/CVE_2012_4298_PATCHED_vwr_read_rec_data_ethernet.c s_ptr = & ( rec [ rec_size - vwr -> STATS_LEN ] ) 30'
p1630
aa.