(lp0
(lp1
(lp2
S'func_0'
p3
aS'('
p4
aS'variable_0'
p5
aS'*'
p6
aS'variable_1'
p7
aS','
p8
aS'variable_2'
p9
ag6
aS'variable_3'
p10
ag8
aS'variable_4'
p11
ag6
aS'variable_5'
p12
aS')'
p13
aS'int'
p14
aS'variable_6'
p15
aS'='
p16
aS'0'
p17
aS';'
p18
aS'unsigned'
p19
aS'char'
p20
aS'variable_7'
p21
ag18
aS'guint'
p22
aS'variable_8'
p23
ag16
ag17
ag18
aS'char'
p24
aS'variable_9'
p25
ag18
aS'variable_7'
p26
ag16
aS'func_1'
p27
ag4
aS'variable_1'
p28
ag8
aS'variable_6'
p29
aS'+'
p30
ag17
ag13
ag18
aS'if'
p31
ag4
aS'variable_7'
p32
aS'=='
p33
ag17
ag13
aS'variable_9'
p34
ag16
aS'func_2'
p35
ag4
aS'variable_7'
p36
ag13
ag18
aS'switch'
p37
ag4
aS'variable_9'
p38
ag13
aS'variable_8'
p39
ag16
aS'4'
p40
ag18
aS'variable_8'
p41
ag16
ag40
ag18
aS'variable_8'
p42
ag16
ag40
ag18
aS'variable_8'
p43
ag16
aS'3'
p44
ag18
aS'variable_8'
p45
ag16
ag44
ag18
aS'variable_10'
p46
ag16
aS'func_3'
p47
ag4
aS'variable_1'
p48
ag8
aS'variable_6'
p49
ag30
ag44
ag13
ag18
aS'variable_8'
p50
ag16
aS'variable_10'
p51
ag30
ag40
ag18
aS'if'
p52
ag4
aS'variable_5'
p53
ag13
aS'fprintf'
p54
ag4
aS'variable_11'
p55
ag8
aS'"'
p56
aS'dissect_wtp'
p57
aS':'
p58
ag4
ag40
ag13
aS'tree'
p59
aS'was'
p60
aS'%'
p61
aS'p'
p62
aS'\\'
p63
aS'n'
p64
ag56
ag8
aS'variable_5'
p65
ag13
ag18
aS'fprintf'
p66
ag4
aS'variable_11'
p67
ag8
ag56
aS'dissect_wtp'
p68
ag58
aS'cbHeader'
p69
ag16
ag61
aS'd'
p70
ag63
ag64
ag56
ag8
aS'variable_8'
p71
ag13
ag18
aa(lp72
S'func_0'
p73
ag4
aS'variable_0'
p74
ag6
aS'variable_1'
p75
ag8
aS'variable_2'
p76
ag6
aS'variable_3'
p77
ag8
aS'variable_4'
p78
ag6
aS'variable_5'
p79
ag13
aS'int'
p80
aS'variable_6'
p81
ag16
ag17
ag18
aS'unsigned'
p82
aS'char'
p83
aS'variable_7'
p84
ag18
aS'variable_7'
p85
ag16
aS'func_1'
p86
ag4
aS'variable_1'
p87
ag8
aS'variable_6'
p88
ag30
ag17
ag13
ag18
aS'if'
p89
ag4
aS'variable_7'
p90
aS'=='
p91
ag17
ag13
aS'if'
p92
ag4
aS'variable_5'
p93
ag13
aS'fprintf'
p94
ag4
aS'variable_8'
p95
ag8
ag56
aS'dissect_wtp'
p96
ag58
ag4
ag40
ag13
aS'tree'
p97
aS'was'
p98
ag61
ag62
ag63
ag64
ag56
ag8
aS'variable_5'
p99
ag13
ag18
aS'fprintf'
p100
ag4
aS'variable_8'
p101
ag8
ag56
aS'dissect_wtp'
p102
ag58
aS'cbHeader'
p103
ag16
ag61
ag70
ag63
ag64
ag56
ag8
aS'variable_9'
p104
ag13
ag18
aa(lp105
S'func_0'
p106
ag4
aS'variable_0'
p107
ag6
aS'variable_1'
p108
ag8
aS'variable_2'
p109
ag6
aS'variable_3'
p110
ag8
aS'variable_4'
p111
ag6
aS'variable_5'
p112
ag13
aS'int'
p113
aS'variable_6'
p114
ag16
ag17
ag18
aS'unsigned'
p115
aS'char'
p116
aS'variable_7'
p117
ag18
aS'guint'
p118
aS'variable_8'
p119
ag16
ag17
ag18
aS'char'
p120
aS'variable_9'
p121
ag18
aS'variable_7'
p122
ag16
aS'func_1'
p123
ag4
aS'variable_1'
p124
ag8
aS'variable_6'
p125
ag30
ag17
ag13
ag18
aS'if'
p126
ag4
aS'variable_7'
p127
aS'=='
p128
ag17
ag13
aS'variable_9'
p129
ag16
aS'func_2'
p130
ag4
aS'variable_7'
p131
ag13
ag18
aS'switch'
p132
ag4
aS'variable_9'
p133
ag13
aS'variable_8'
p134
ag16
ag40
ag18
aS'variable_8'
p135
ag16
ag40
ag18
aS'variable_8'
p136
ag16
ag40
ag18
aS'variable_8'
p137
ag16
ag44
ag18
aS'variable_8'
p138
ag16
ag44
ag18
aS'variable_10'
p139
ag16
aS'func_3'
p140
ag4
aS'variable_1'
p141
ag8
aS'variable_6'
p142
ag30
ag44
ag13
ag18
aS'variable_8'
p143
ag16
aS'variable_10'
p144
ag30
ag40
ag18
aS'if'
p145
ag4
aS'variable_5'
p146
ag13
aS'fprintf'
p147
ag4
aS'variable_11'
p148
ag8
ag56
aS'dissect_wtp'
p149
ag58
aS'cbHeader'
p150
ag16
ag61
ag70
ag63
ag64
ag56
ag8
aS'variable_8'
p151
ag13
ag18
aS'fprintf'
p152
ag4
aS'variable_11'
p153
ag8
ag56
aS'dissect_wtp'
p154
ag58
ag4
aS'7'
p155
ag13
aS'Returned'
p156
aS'from'
p157
aS'proto_tree_add_item'
p158
ag63
ag64
ag56
ag13
ag18
aS'fprintf'
p159
ag4
aS'variable_11'
p160
ag8
ag56
aS'dissect_wtp'
p161
ag58
aS'cbHeader'
p162
ag16
ag61
ag70
ag63
ag64
ag56
ag8
aS'variable_8'
p163
ag13
ag18
aS'fprintf'
p164
ag4
aS'variable_11'
p165
ag8
ag56
aS'dissect_wtp'
p166
ag58
aS'offCur'
p167
ag16
ag61
ag70
ag63
ag64
ag56
ag8
aS'variable_6'
p168
ag13
ag18
aaa(lp169
I0
aI0
aI0
aa(lp170
I121
aI44
aI154
aa(lp171
(lp172
S'main'
p173
aa(lp174
g173
aa(lp175
g173
aaa(lp176
S'51 ../data/NVD/CVE_2012_6061_PATCHED_dissect_wtp_common.c fprintf 342'
p177
aS'52 ../data/NVD/CVE_2012_6061_PATCHED_dissect_wtp_common.c fprintf 304'
p178
aS'53 ../data/NVD/CVE_2012_6061_PATCHED_dissect_wtp_common.c fprintf 169'
p179
aa.