(lp0
(lp1
(lp2
S'func_0'
p3
aS'('
p4
aS'variable_0'
p5
aS'*'
p6
aS'variable_1'
p7
aS','
p8
aS'variable_2'
p9
ag6
aS'variable_3'
p10
ag8
aS'variable_4'
p11
ag6
aS'variable_5'
p12
aS')'
p13
aS'int'
p14
aS'variable_6'
p15
aS'='
p16
aS'0'
p17
aS';'
p18
aS'unsigned'
p19
aS'char'
p20
aS'variable_7'
p21
ag18
aS'unsigned'
p22
aS'char'
p23
aS'variable_8'
p24
ag18
aS'guint'
p25
aS'variable_9'
p26
ag16
ag17
ag18
aS'guint'
p27
aS'variable_10'
p28
ag16
ag17
ag18
aS'char'
p29
aS'variable_11'
p30
ag18
aS'int'
p31
aS'variable_12'
p32
ag18
aS'variable_7'
p33
ag16
aS'func_1'
p34
ag4
aS'variable_1'
p35
ag8
aS'variable_6'
p36
aS'+'
p37
ag17
ag13
ag18
aS'if'
p38
ag4
aS'variable_7'
p39
aS'=='
p40
ag17
ag13
aS'variable_8'
p41
ag16
aS'variable_7'
p42
aS'&'
p43
aS'0x80'
p44
ag18
aS'variable_11'
p45
ag16
aS'func_2'
p46
ag4
aS'variable_7'
p47
ag13
ag18
aS'switch'
p48
ag4
aS'variable_11'
p49
ag13
aS'variable_9'
p50
ag16
aS'4'
p51
ag18
aS'variable_9'
p52
ag16
ag51
ag18
aS'variable_9'
p53
ag16
ag51
ag18
aS'variable_9'
p54
ag16
aS'3'
p55
ag18
aS'variable_9'
p56
ag16
ag55
ag18
aS'variable_13'
p57
ag16
aS'func_3'
p58
ag4
aS'variable_1'
p59
ag8
aS'variable_6'
p60
ag37
ag55
ag13
ag18
aS'variable_9'
p61
ag16
aS'variable_13'
p62
ag37
ag51
ag18
aS'if'
p63
ag4
aS'variable_8'
p64
ag13
aS'unsigned'
p65
aS'char'
p66
aS'variable_14'
p67
ag18
aS'unsigned'
p68
aS'char'
p69
aS'variable_15'
p70
ag18
aS'guint'
p71
aS'variable_16'
p72
ag18
aS'variable_10'
p73
ag16
ag17
ag18
aS'variable_15'
p74
ag16
aS'func_4'
p75
ag4
aS'variable_1'
p76
ag8
aS'variable_6'
p77
ag37
aS'variable_9'
p78
ag37
aS'variable_10'
p79
ag13
ag18
aS'variable_14'
p80
ag16
aS'variable_15'
p81
ag43
aS'0x80'
p82
ag18
aS'if'
p83
ag4
aS'variable_15'
p84
ag43
aS'0x04'
p85
ag13
aS'variable_16'
p86
ag16
aS'2'
p87
ag37
aS'func_5'
p88
ag4
aS'variable_1'
p89
ag8
aS'variable_6'
p90
ag37
aS'variable_9'
p91
ag37
aS'variable_10'
p92
ag37
aS'1'
p93
ag13
ag18
aS'variable_16'
p94
ag16
ag93
ag37
ag4
aS'variable_15'
p95
ag43
aS'0x03'
p96
ag13
ag18
aS'variable_10'
p97
aS'+='
p98
aS'variable_16'
p99
ag18
aS'while'
p100
ag4
aS'variable_14'
p101
ag13
aS'variable_12'
p102
ag16
aS'variable_6'
p103
ag37
aS'variable_9'
p104
ag37
aS'variable_10'
p105
ag18
aS'variable_17'
p106
ag16
aS'func_6'
p107
ag4
aS'variable_1'
p108
ag8
aS'variable_12'
p109
ag13
ag18
aS'if'
p110
ag4
ag4
aS'variable_17'
p111
aS'>'
p112
ag16
ag17
ag13
aS'&&'
p113
aS'!'
p114
ag4
ag4
aS'variable_11'
p115
aS'=='
p116
aS'variable_18'
p117
ag13
aS'||'
p118
ag4
aS'variable_11'
p119
aS'=='
p120
aS'variable_19'
p121
ag13
aS'||'
p122
ag4
aS'variable_11'
p123
aS'=='
p124
aS'variable_20'
p125
ag13
ag13
ag13
aS'if'
p126
ag4
ag4
ag4
aS'variable_11'
p127
aS'=='
p128
aS'variable_21'
p129
ag13
aS'||'
p130
ag4
aS'variable_11'
p131
aS'=='
p132
aS'variable_22'
p133
ag13
aS'||'
p134
ag4
ag4
ag4
aS'variable_11'
p135
aS'=='
p136
aS'variable_23'
p137
ag13
aS'||'
p138
ag4
aS'variable_11'
p139
aS'=='
p140
aS'variable_24'
p141
ag13
ag13
aS'&&'
p142
ag4
ag114
aS'variable_25'
p143
ag13
ag13
ag13
aS'&&'
p144
aS'func_7'
p145
ag4
aS'variable_1'
p146
ag8
aS'variable_12'
p147
ag8
aS'variable_17'
p148
ag13
ag13
aS'variable_26'
p149
ag16
aS'func_8'
p150
ag4
aS'variable_1'
p151
ag8
aS'variable_12'
p152
ag8
aS'variable_3'
p153
ag8
aS'variable_27'
p154
ag8
aS'variable_28'
p155
ag8
aS'variable_29'
p156
ag8
aS'variable_17'
p157
ag8
ag114
aS'variable_25'
p158
ag13
ag18
aS'variable_30'
p159
ag16
aS'func_9'
p160
ag4
aS'variable_1'
p161
ag8
aS'variable_12'
p162
ag8
aS'variable_3'
p163
ag8
aS'"'
p164
aS'Reassembled'
p165
aS'WTP'
p166
ag164
ag8
aS'variable_26'
p167
ag8
ag43
aS'variable_31'
p168
ag8
aS'NULL'
p169
ag8
aS'variable_32'
p170
ag13
ag18
aS'printf'
p171
ag4
ag164
aS'WTP'
p172
aS':'
p173
aS'Packet'
p174
aS'%'
p175
aS'u'
p176
ag175
aS's'
p177
aS'->'
p178
ag175
aS'd'
p179
ag173
aS'wsp_tvb'
p180
ag16
ag175
aS'p'
p181
ag8
aS'fd_wtp'
p182
ag16
ag175
ag181
ag8
aS'frame'
p183
ag16
ag175
ag176
aS'\\'
p184
aS'n'
p185
ag164
ag8
aS'variable_3'
p186
aS'->'
p187
aS'variable_33'
p188
aS'->'
p189
aS'variable_34'
p190
ag8
aS'variable_26'
p191
aS'?'
p192
ag164
aS'Reassembled'
p193
ag164
ag173
ag164
aS'Not'
p194
aS'reassembled'
p195
ag164
ag8
aS'variable_26'
p196
ag192
aS'variable_26'
p197
aS'->'
p198
aS'variable_35'
p199
ag173
aS'-'
p200
ag93
ag8
aS'variable_30'
p201
ag8
aS'variable_26'
p202
ag13
ag18
aS'if'
p203
ag4
aS'variable_26'
p204
ag13
aS'variable_35'
p205
ag16
aS'variable_26'
p206
aS'->'
p207
aS'variable_35'
p208
ag18
aS'if'
p209
ag4
aS'variable_3'
p210
aS'->'
p211
aS'variable_33'
p212
aS'->'
p213
aS'variable_34'
p214
aS'=='
p215
aS'variable_35'
p216
ag13
aS'func_10'
p217
ag4
aS'variable_36'
p218
ag8
aS'variable_30'
p219
ag8
aS'variable_3'
p220
ag8
aS'variable_5'
p221
ag13
ag18
aS'func_11'
p222
ag4
aS'variable_3'
p223
aS'->'
p224
aS'variable_37'
p225
ag8
aS'variable_38'
p226
ag8
ag164
ag175
ag177
ag4
aS'WTP'
p227
aS'payload'
p228
aS'reassembled'
p229
aS'in'
p230
aS'packet'
p231
ag175
ag176
ag13
ag164
ag8
aS'variable_39'
p232
ag8
aS'variable_26'
p233
aS'->'
p234
aS'variable_35'
p235
ag13
ag18
aS'func_12'
p236
ag4
aS'variable_32'
p237
ag8
aS'variable_1'
p238
ag8
aS'variable_12'
p239
ag8
ag200
ag93
ag8
ag164
aS'Payload'
p240
ag164
ag13
ag18
aS'func_13'
p241
ag4
aS'variable_32'
p242
ag8
aS'variable_1'
p243
ag8
aS'variable_12'
p244
ag8
ag200
ag93
ag8
ag164
aS'Payload'
p245
ag164
ag13
ag18
aS'variable_30'
p246
ag16
aS'func_14'
p247
ag4
aS'variable_1'
p248
ag8
aS'variable_12'
p249
ag13
ag18
aS'func_15'
p250
ag4
aS'variable_36'
p251
ag8
aS'variable_30'
p252
ag8
aS'variable_3'
p253
ag8
aS'variable_5'
p254
ag13
ag18
aa(lp255
S'func_0'
p256
ag4
aS'variable_0'
p257
ag6
aS'variable_1'
p258
ag8
aS'variable_2'
p259
ag6
aS'variable_3'
p260
ag8
aS'variable_4'
p261
ag6
aS'variable_5'
p262
ag13
aS'int'
p263
aS'variable_6'
p264
ag16
ag17
ag18
aS'unsigned'
p265
aS'char'
p266
aS'variable_7'
p267
ag18
aS'unsigned'
p268
aS'char'
p269
aS'variable_8'
p270
ag18
aS'guint'
p271
aS'variable_9'
p272
ag16
ag17
ag18
aS'char'
p273
aS'variable_10'
p274
ag18
aS'variable_7'
p275
ag16
aS'func_1'
p276
ag4
aS'variable_1'
p277
ag8
aS'variable_6'
p278
ag37
ag17
ag13
ag18
aS'if'
p279
ag4
aS'variable_7'
p280
aS'=='
p281
ag17
ag13
aS'variable_8'
p282
ag16
aS'variable_7'
p283
ag43
aS'0x80'
p284
ag18
aS'variable_10'
p285
ag16
aS'func_2'
p286
ag4
aS'variable_7'
p287
ag13
ag18
aS'switch'
p288
ag4
aS'variable_10'
p289
ag13
aS'variable_9'
p290
ag16
ag51
ag18
aS'variable_9'
p291
ag16
ag51
ag18
aS'variable_9'
p292
ag16
ag51
ag18
aS'variable_9'
p293
ag16
ag55
ag18
aS'variable_9'
p294
ag16
ag55
ag18
aS'variable_11'
p295
ag16
aS'func_3'
p296
ag4
aS'variable_1'
p297
ag8
aS'variable_6'
p298
ag37
ag55
ag13
ag18
aS'variable_9'
p299
ag16
aS'variable_11'
p300
ag37
ag51
ag18
aS'if'
p301
ag4
aS'variable_8'
p302
ag13
aS'unsigned'
p303
aS'char'
p304
aS'variable_12'
p305
ag18
aS'unsigned'
p306
aS'char'
p307
aS'variable_13'
p308
ag18
aS'guint'
p309
aS'variable_14'
p310
ag18
aS'variable_0'
p311
ag6
aS'variable_15'
p312
ag18
aS'variable_16'
p313
ag16
ag17
ag18
aS'variable_13'
p314
ag16
aS'func_4'
p315
ag4
aS'variable_1'
p316
ag8
aS'variable_6'
p317
ag37
aS'variable_9'
p318
ag37
aS'variable_16'
p319
ag13
ag18
aS'variable_12'
p320
ag16
aS'variable_13'
p321
ag43
aS'0x80'
p322
ag18
aS'if'
p323
ag4
aS'variable_13'
p324
ag43
aS'0x04'
p325
ag13
aS'variable_14'
p326
ag16
ag87
ag37
aS'func_5'
p327
ag4
aS'variable_1'
p328
ag8
aS'variable_6'
p329
ag37
aS'variable_9'
p330
ag37
aS'variable_16'
p331
ag37
ag93
ag13
ag18
aS'variable_14'
p332
ag16
ag93
ag37
ag4
aS'variable_13'
p333
ag43
aS'0x03'
p334
ag13
ag18
aS'if'
p335
ag4
aS'variable_5'
p336
ag13
aS'variable_15'
p337
ag16
aS'func_6'
p338
ag4
aS'variable_1'
p339
ag8
aS'variable_6'
p340
ag37
aS'variable_9'
p341
ag37
aS'variable_16'
p342
ag8
aS'variable_14'
p343
ag8
aS'variable_14'
p344
ag13
ag18
aS'func_7'
p345
ag4
aS'variable_17'
p346
ag8
aS'variable_15'
p347
ag13
ag18
aS'variable_16'
p348
aS'+='
p349
aS'variable_14'
p350
ag18
aS'while'
p351
ag4
aS'variable_12'
p352
ag13
aa(lp353
S'func_0'
p354
ag4
aS'variable_0'
p355
ag6
aS'variable_1'
p356
ag8
aS'variable_2'
p357
ag6
aS'variable_3'
p358
ag8
aS'variable_4'
p359
ag6
aS'variable_5'
p360
ag13
aS'int'
p361
aS'variable_6'
p362
ag16
ag17
ag18
aS'unsigned'
p363
aS'char'
p364
aS'variable_7'
p365
ag18
aS'unsigned'
p366
aS'char'
p367
aS'variable_8'
p368
ag18
aS'guint'
p369
aS'variable_9'
p370
ag16
ag17
ag18
aS'char'
p371
aS'variable_10'
p372
ag18
aS'variable_7'
p373
ag16
aS'func_1'
p374
ag4
aS'variable_1'
p375
ag8
aS'variable_6'
p376
ag37
ag17
ag13
ag18
aS'if'
p377
ag4
aS'variable_7'
p378
aS'=='
p379
ag17
ag13
aS'variable_8'
p380
ag16
aS'variable_7'
p381
ag43
aS'0x80'
p382
ag18
aS'variable_10'
p383
ag16
aS'func_2'
p384
ag4
aS'variable_7'
p385
ag13
ag18
aS'switch'
p386
ag4
aS'variable_10'
p387
ag13
aS'variable_9'
p388
ag16
ag51
ag18
aS'variable_9'
p389
ag16
ag51
ag18
aS'variable_9'
p390
ag16
ag51
ag18
aS'variable_9'
p391
ag16
ag55
ag18
aS'variable_9'
p392
ag16
ag55
ag18
aS'variable_11'
p393
ag16
aS'func_3'
p394
ag4
aS'variable_1'
p395
ag8
aS'variable_6'
p396
ag37
ag55
ag13
ag18
aS'variable_9'
p397
ag16
aS'variable_11'
p398
ag37
ag51
ag18
aS'if'
p399
ag4
aS'variable_8'
p400
ag13
aS'unsigned'
p401
aS'char'
p402
aS'variable_12'
p403
ag18
aS'unsigned'
p404
aS'char'
p405
aS'variable_13'
p406
ag18
aS'guint'
p407
aS'variable_14'
p408
ag18
aS'variable_15'
p409
ag16
ag17
ag18
aS'variable_13'
p410
ag16
aS'func_4'
p411
ag4
aS'variable_1'
p412
ag8
aS'variable_6'
p413
ag37
aS'variable_9'
p414
ag37
aS'variable_15'
p415
ag13
ag18
aS'variable_12'
p416
ag16
aS'variable_13'
p417
ag43
aS'0x80'
p418
ag18
aS'if'
p419
ag4
aS'variable_13'
p420
ag43
aS'0x04'
p421
ag13
aS'variable_14'
p422
ag16
ag87
ag37
aS'func_5'
p423
ag4
aS'variable_1'
p424
ag8
aS'variable_6'
p425
ag37
aS'variable_9'
p426
ag37
aS'variable_15'
p427
ag37
ag93
ag13
ag18
aS'variable_14'
p428
ag16
ag93
ag37
ag4
aS'variable_13'
p429
ag43
aS'0x03'
p430
ag13
ag18
aS'variable_16'
p431
ag16
aS'func_6'
p432
ag4
aS'variable_1'
p433
ag8
aS'variable_6'
p434
ag37
aS'variable_9'
p435
ag37
aS'variable_15'
p436
ag8
aS'variable_14'
p437
ag8
aS'variable_14'
p438
ag13
ag18
aS'func_7'
p439
ag4
aS'variable_17'
p440
ag8
aS'variable_16'
p441
ag13
ag18
aS'variable_15'
p442
aS'+='
p443
aS'variable_14'
p444
ag18
aS'while'
p445
ag4
aS'variable_12'
p446
ag13
aS'func_8'
p447
ag4
aS'variable_18'
p448
ag8
aS'variable_9'
p449
ag37
aS'variable_15'
p450
ag13
ag18
aS'variable_19'
p451
ag16
aS'variable_6'
p452
ag37
aS'variable_9'
p453
ag37
aS'variable_15'
p454
ag18
aS'variable_20'
p455
ag16
aS'func_9'
p456
ag4
aS'variable_1'
p457
ag8
aS'variable_19'
p458
ag13
ag18
aS'if'
p459
ag4
ag4
aS'variable_20'
p460
ag112
ag16
ag17
ag13
aS'&&'
p461
ag114
ag4
ag4
aS'variable_10'
p462
aS'=='
p463
aS'variable_21'
p464
ag13
aS'||'
p465
ag4
aS'variable_10'
p466
aS'=='
p467
aS'variable_22'
p468
ag13
aS'||'
p469
ag4
aS'variable_10'
p470
aS'=='
p471
aS'variable_23'
p472
ag13
ag13
ag13
aS'if'
p473
ag4
ag4
ag4
aS'variable_10'
p474
aS'=='
p475
aS'variable_24'
p476
ag13
aS'||'
p477
ag4
aS'variable_10'
p478
aS'=='
p479
aS'variable_25'
p480
ag13
aS'||'
p481
ag4
ag4
ag4
aS'variable_10'
p482
aS'=='
p483
aS'variable_26'
p484
ag13
aS'||'
p485
ag4
aS'variable_10'
p486
aS'=='
p487
aS'variable_27'
p488
ag13
ag13
aS'&&'
p489
ag4
ag114
aS'variable_28'
p490
ag13
ag13
ag13
aS'&&'
p491
aS'func_10'
p492
ag4
aS'variable_1'
p493
ag8
aS'variable_19'
p494
ag8
aS'variable_20'
p495
ag13
ag13
aS'variable_29'
p496
ag16
aS'func_11'
p497
ag4
aS'variable_1'
p498
ag8
aS'variable_19'
p499
ag8
aS'variable_3'
p500
ag8
aS'variable_30'
p501
ag8
aS'variable_31'
p502
ag8
aS'variable_32'
p503
ag8
aS'variable_20'
p504
ag8
ag114
aS'variable_28'
p505
ag13
ag18
aS'variable_33'
p506
ag16
aS'func_12'
p507
ag4
aS'variable_1'
p508
ag8
aS'variable_19'
p509
ag8
aS'variable_3'
p510
ag8
ag164
aS'Reassembled'
p511
aS'WTP'
p512
ag164
ag8
aS'variable_29'
p513
ag8
ag43
aS'variable_34'
p514
ag8
aS'NULL'
p515
ag8
aS'variable_17'
p516
ag13
ag18
aS'printf'
p517
ag4
ag164
aS'WTP'
p518
ag173
aS'Packet'
p519
ag175
ag176
ag175
ag177
aS'->'
p520
ag175
ag179
ag173
aS'wsp_tvb'
p521
ag16
ag175
ag181
ag8
aS'fd_wtp'
p522
ag16
ag175
ag181
ag8
aS'frame'
p523
ag16
ag175
ag176
ag184
ag185
ag164
ag8
aS'variable_3'
p524
aS'->'
p525
aS'variable_35'
p526
aS'->'
p527
aS'variable_36'
p528
ag8
aS'variable_29'
p529
ag192
ag164
aS'Reassembled'
p530
ag164
ag173
ag164
aS'Not'
p531
aS'reassembled'
p532
ag164
ag8
aS'variable_29'
p533
ag192
aS'variable_29'
p534
aS'->'
p535
aS'variable_37'
p536
ag173
ag200
ag93
ag8
aS'variable_33'
p537
ag8
aS'variable_29'
p538
ag13
ag18
aS'if'
p539
ag4
aS'variable_29'
p540
ag13
aS'variable_37'
p541
ag16
aS'variable_29'
p542
aS'->'
p543
aS'variable_37'
p544
ag18
aS'if'
p545
ag4
aS'variable_3'
p546
aS'->'
p547
aS'variable_35'
p548
aS'->'
p549
aS'variable_36'
p550
aS'=='
p551
aS'variable_37'
p552
ag13
aS'func_13'
p553
ag4
aS'variable_38'
p554
ag8
aS'variable_33'
p555
ag8
aS'variable_3'
p556
ag8
aS'variable_5'
p557
ag13
ag18
aS'func_14'
p558
ag4
aS'variable_3'
p559
aS'->'
p560
aS'variable_39'
p561
ag8
aS'variable_40'
p562
ag8
ag164
ag175
ag177
ag4
aS'WTP'
p563
aS'payload'
p564
aS'reassembled'
p565
aS'in'
p566
aS'packet'
p567
ag175
ag176
ag13
ag164
ag8
aS'variable_41'
p568
ag8
aS'variable_29'
p569
aS'->'
p570
aS'variable_37'
p571
ag13
ag18
aS'func_15'
p572
ag4
aS'variable_17'
p573
ag8
aS'variable_1'
p574
ag8
aS'variable_19'
p575
ag8
ag200
ag93
ag8
ag164
aS'Payload'
p576
ag164
ag13
ag18
aS'func_16'
p577
ag4
aS'variable_17'
p578
ag8
aS'variable_1'
p579
ag8
aS'variable_19'
p580
ag8
ag200
ag93
ag8
ag164
aS'Payload'
p581
ag164
ag13
ag18
aS'variable_33'
p582
ag16
aS'func_17'
p583
ag4
aS'variable_1'
p584
ag8
aS'variable_19'
p585
ag13
ag18
aS'func_18'
p586
ag4
aS'variable_38'
p587
ag8
aS'variable_33'
p588
ag8
aS'variable_3'
p589
ag8
aS'variable_5'
p590
ag13
ag18
aa(lp591
S'func_0'
p592
ag4
aS'variable_0'
p593
ag6
aS'variable_1'
p594
ag8
aS'variable_2'
p595
ag6
aS'variable_3'
p596
ag8
aS'variable_4'
p597
ag6
aS'variable_5'
p598
ag13
aS'char'
p599
ag6
aS'variable_6'
p600
ag18
aS'int'
p601
aS'variable_7'
p602
ag16
ag17
ag18
aS'gint'
p603
aS'variable_8'
p604
ag8
aS'variable_9'
p605
ag16
ag17
ag18
aS'unsigned'
p606
aS'char'
p607
aS'variable_10'
p608
ag18
aS'unsigned'
p609
aS'char'
p610
aS'variable_11'
p611
ag18
aS'char'
p612
aS'variable_12'
p613
ag18
aS'variable_6'
p614
ag16
aS'func_1'
p615
ag4
aS'variable_13'
p616
ag13
ag18
aS'variable_10'
p617
ag16
aS'func_2'
p618
ag4
aS'variable_1'
p619
ag8
aS'variable_7'
p620
ag37
ag17
ag13
ag18
aS'if'
p621
ag4
aS'variable_10'
p622
aS'=='
p623
ag17
ag13
aS'variable_11'
p624
ag16
aS'func_3'
p625
ag4
aS'variable_10'
p626
ag13
ag18
aS'variable_12'
p627
ag16
aS'func_4'
p628
ag4
aS'variable_10'
p629
ag13
ag18
aS'variable_8'
p630
ag16
aS'func_5'
p631
ag4
aS'variable_6'
p632
ag8
aS'variable_13'
p633
ag8
ag164
aS'WTP'
p634
ag175
ag177
ag164
ag8
aS'func_6'
p635
ag4
aS'variable_12'
p636
ag8
aS'variable_14'
p637
ag8
ag164
aS'Unknown'
p638
aS'PDU'
p639
aS'type'
p640
aS'0x'
p641
ag175
aS'x'
p642
ag164
ag13
ag13
ag18
aS'variable_9'
p643
aS'+='
p644
aS'func_7'
p645
ag4
aS'variable_8'
p646
ag8
aS'variable_13'
p647
ag200
aS'variable_9'
p648
ag13
ag18
aS'switch'
p649
ag4
aS'variable_12'
p650
ag13
aS'variable_15'
p651
ag16
ag17
ag18
aS'variable_16'
p652
ag16
aS'func_8'
p653
ag4
aS'func_9'
p654
ag4
aS'variable_1'
p655
ag8
aS'variable_7'
p656
ag37
ag55
ag13
ag13
ag18
aS'variable_8'
p657
ag16
aS'func_10'
p658
ag4
ag43
aS'variable_6'
p659
aS'['
p660
aS'variable_9'
p661
aS']'
p662
ag8
aS'variable_13'
p663
ag200
aS'variable_9'
p664
ag8
ag164
aS'Class'
p665
ag175
ag179
ag164
ag8
aS'variable_16'
p666
ag13
ag18
aS'variable_9'
p667
aS'+='
p668
aS'func_11'
p669
ag4
aS'variable_8'
p670
ag8
aS'variable_13'
p671
ag200
aS'variable_9'
p672
ag13
ag18
aS'variable_15'
p673
ag16
aS'func_12'
p674
ag4
aS'variable_1'
p675
ag8
aS'variable_7'
p676
ag37
ag55
ag13
ag18
aS'if'
p677
ag4
aS'variable_15'
p678
aS'!='
p679
ag17
ag13
aS'variable_8'
p680
ag16
aS'func_13'
p681
ag4
ag43
aS'variable_6'
p682
ag660
aS'variable_9'
p683
ag662
ag8
aS'variable_13'
p684
ag200
aS'variable_9'
p685
ag8
ag164
ag4
ag175
ag176
ag13
ag164
ag8
aS'variable_15'
p686
ag13
ag18
aS'variable_9'
p687
aS'+='
p688
aS'func_14'
p689
ag4
aS'variable_8'
p690
ag8
aS'variable_13'
p691
ag200
aS'variable_9'
p692
ag13
ag18
aS'if'
p693
ag4
aS'variable_11'
p694
ag13
aS'variable_8'
p695
ag16
aS'func_15'
p696
ag4
ag43
aS'variable_6'
p697
ag660
aS'variable_9'
p698
ag662
ag8
aS'variable_13'
p699
ag200
aS'variable_9'
p700
ag8
ag164
aS'R'
p701
ag164
ag13
ag18
aS'variable_9'
p702
aS'+='
p703
aS'func_16'
p704
ag4
aS'variable_8'
p705
ag8
aS'variable_13'
p706
ag200
aS'variable_9'
p707
ag13
ag18
aa(lp708
S'func_0'
p709
ag4
aS'variable_0'
p710
ag6
aS'variable_1'
p711
ag8
aS'variable_2'
p712
ag6
aS'variable_3'
p713
ag8
aS'variable_4'
p714
ag6
aS'variable_5'
p715
ag13
aS'char'
p716
ag6
aS'variable_6'
p717
ag18
aS'int'
p718
aS'variable_7'
p719
ag16
ag17
ag18
aS'gint'
p720
aS'variable_8'
p721
ag8
aS'variable_9'
p722
ag16
ag17
ag18
aS'unsigned'
p723
aS'char'
p724
aS'variable_10'
p725
ag18
aS'char'
p726
aS'variable_11'
p727
ag18
aS'variable_6'
p728
ag16
aS'func_1'
p729
ag4
aS'variable_12'
p730
ag13
ag18
aS'variable_10'
p731
ag16
aS'func_2'
p732
ag4
aS'variable_1'
p733
ag8
aS'variable_7'
p734
ag37
ag17
ag13
ag18
aS'if'
p735
ag4
aS'variable_10'
p736
aS'=='
p737
ag17
ag13
aS'variable_11'
p738
ag16
aS'func_3'
p739
ag4
aS'variable_10'
p740
ag13
ag18
aS'variable_8'
p741
ag16
aS'func_4'
p742
ag4
aS'variable_6'
p743
ag8
aS'variable_12'
p744
ag8
ag164
aS'WTP'
p745
ag175
ag177
ag164
ag8
aS'func_5'
p746
ag4
aS'variable_11'
p747
ag8
aS'variable_13'
p748
ag8
ag164
aS'Unknown'
p749
aS'PDU'
p750
aS'type'
p751
aS'0x'
p752
ag175
ag642
ag164
ag13
ag13
ag18
aS'variable_9'
p753
aS'+='
p754
aS'func_6'
p755
ag4
aS'variable_8'
p756
ag8
aS'variable_12'
p757
ag200
aS'variable_9'
p758
ag13
ag18
aS'switch'
p759
ag4
aS'variable_11'
p760
ag13
aS'variable_14'
p761
ag16
ag17
ag18
aS'variable_15'
p762
ag16
aS'func_7'
p763
ag4
aS'func_8'
p764
ag4
aS'variable_1'
p765
ag8
aS'variable_7'
p766
ag37
ag55
ag13
ag13
ag18
aS'variable_8'
p767
ag16
aS'func_9'
p768
ag4
ag43
aS'variable_6'
p769
ag660
aS'variable_9'
p770
ag662
ag8
aS'variable_12'
p771
ag200
aS'variable_9'
p772
ag8
ag164
aS'Class'
p773
ag175
ag179
ag164
ag8
aS'variable_15'
p774
ag13
ag18
aS'variable_9'
p775
aS'+='
p776
aS'func_10'
p777
ag4
aS'variable_8'
p778
ag8
aS'variable_12'
p779
ag200
aS'variable_9'
p780
ag13
ag18
aS'variable_14'
p781
ag16
aS'func_11'
p782
ag4
aS'variable_1'
p783
ag8
aS'variable_7'
p784
ag37
ag55
ag13
ag18
aS'if'
p785
ag4
aS'variable_14'
p786
aS'!='
p787
ag17
ag13
aS'variable_8'
p788
ag16
aS'func_12'
p789
ag4
ag43
aS'variable_6'
p790
ag660
aS'variable_9'
p791
ag662
ag8
aS'variable_12'
p792
ag200
aS'variable_9'
p793
ag8
ag164
ag4
ag175
ag176
ag13
ag164
ag8
aS'variable_14'
p794
ag13
ag18
aS'variable_9'
p795
aS'+='
p796
aS'func_13'
p797
ag4
aS'variable_8'
p798
ag8
aS'variable_12'
p799
ag200
aS'variable_9'
p800
ag13
ag18
aS'variable_8'
p801
ag16
aS'func_14'
p802
ag4
ag43
aS'variable_6'
p803
ag660
aS'variable_9'
p804
ag662
ag8
aS'variable_12'
p805
ag200
aS'variable_9'
p806
ag8
ag164
ag701
ag164
ag13
ag18
aS'variable_9'
p807
aS'+='
p808
aS'func_15'
p809
ag4
aS'variable_8'
p810
ag8
aS'variable_12'
p811
ag200
aS'variable_9'
p812
ag13
ag18
aa(lp813
S'func_0'
p814
ag4
aS'variable_0'
p815
ag6
aS'variable_1'
p816
ag8
aS'variable_2'
p817
ag6
aS'variable_3'
p818
ag8
aS'variable_4'
p819
ag6
aS'variable_5'
p820
ag13
aS'char'
p821
ag6
aS'variable_6'
p822
ag18
aS'int'
p823
aS'variable_7'
p824
ag16
ag17
ag18
aS'gint'
p825
aS'variable_8'
p826
ag8
aS'variable_9'
p827
ag16
ag17
ag18
aS'unsigned'
p828
aS'char'
p829
aS'variable_10'
p830
ag18
aS'char'
p831
aS'variable_11'
p832
ag18
aS'variable_6'
p833
ag16
aS'func_1'
p834
ag4
aS'variable_12'
p835
ag13
ag18
aS'variable_10'
p836
ag16
aS'func_2'
p837
ag4
aS'variable_1'
p838
ag8
aS'variable_7'
p839
ag37
ag17
ag13
ag18
aS'if'
p840
ag4
aS'variable_10'
p841
aS'=='
p842
ag17
ag13
aS'variable_11'
p843
ag16
aS'func_3'
p844
ag4
aS'variable_10'
p845
ag13
ag18
aS'variable_8'
p846
ag16
aS'func_4'
p847
ag4
aS'variable_6'
p848
ag8
aS'variable_12'
p849
ag8
ag164
aS'WTP'
p850
ag175
ag177
ag164
ag8
aS'func_5'
p851
ag4
aS'variable_11'
p852
ag8
aS'variable_13'
p853
ag8
ag164
aS'Unknown'
p854
aS'PDU'
p855
aS'type'
p856
aS'0x'
p857
ag175
ag642
ag164
ag13
ag13
ag18
aS'variable_9'
p858
aS'+='
p859
aS'func_6'
p860
ag4
aS'variable_8'
p861
ag8
aS'variable_12'
p862
ag200
aS'variable_9'
p863
ag13
ag18
aS'switch'
p864
ag4
aS'variable_11'
p865
ag13
aS'variable_14'
p866
ag16
aS'func_7'
p867
ag4
aS'func_8'
p868
ag4
aS'variable_1'
p869
ag8
aS'variable_7'
p870
ag37
ag55
ag13
ag13
ag18
aS'variable_8'
p871
ag16
aS'func_9'
p872
ag4
ag43
aS'variable_6'
p873
ag660
aS'variable_9'
p874
ag662
ag8
aS'variable_12'
p875
ag200
aS'variable_9'
p876
ag8
ag164
aS'Class'
p877
ag175
ag179
ag164
ag8
aS'variable_14'
p878
ag13
ag18
aS'variable_9'
p879
aS'+='
p880
aS'func_10'
p881
ag4
aS'variable_8'
p882
ag8
aS'variable_12'
p883
ag200
aS'variable_9'
p884
ag13
ag18
aS'variable_8'
p885
ag16
aS'func_11'
p886
ag4
ag43
aS'variable_6'
p887
ag660
aS'variable_9'
p888
ag662
ag8
aS'variable_12'
p889
ag200
aS'variable_9'
p890
ag8
ag164
ag4
ag175
ag176
ag13
ag164
ag8
aS'variable_15'
p891
ag13
ag18
aS'variable_9'
p892
aS'+='
p893
aS'func_12'
p894
ag4
aS'variable_8'
p895
ag8
aS'variable_12'
p896
ag200
aS'variable_9'
p897
ag13
ag18
aS'variable_8'
p898
ag16
aS'func_13'
p899
ag4
ag43
aS'variable_6'
p900
ag660
aS'variable_9'
p901
ag662
ag8
aS'variable_12'
p902
ag200
aS'variable_9'
p903
ag8
ag164
ag701
ag164
ag13
ag18
aS'variable_9'
p904
aS'+='
p905
aS'func_14'
p906
ag4
aS'variable_8'
p907
ag8
aS'variable_12'
p908
ag200
aS'variable_9'
p909
ag13
ag18
aa(lp910
S'func_0'
p911
ag4
aS'variable_0'
p912
ag6
aS'variable_1'
p913
ag8
aS'variable_2'
p914
ag6
aS'variable_3'
p915
ag8
aS'variable_4'
p916
ag6
aS'variable_5'
p917
ag13
aS'int'
p918
aS'variable_6'
p919
ag16
ag17
ag18
aS'unsigned'
p920
aS'char'
p921
aS'variable_7'
p922
ag18
aS'variable_7'
p923
ag16
aS'func_1'
p924
ag4
aS'variable_1'
p925
ag8
aS'variable_6'
p926
ag37
ag17
ag13
ag18
aS'if'
p927
ag4
aS'variable_7'
p928
aS'=='
p929
ag17
ag13
aS'variable_6'
p930
ag16
ag93
ag18
aS'while'
p931
ag4
aS'variable_6'
p932
aS'<'
p933
ag4
aS'int'
p934
ag13
aS'func_2'
p935
ag4
aS'variable_1'
p936
ag13
ag13
aS'variable_0'
p937
ag6
aS'variable_8'
p938
ag18
aS'variable_7'
p939
ag16
aS'func_3'
p940
ag4
aS'variable_1'
p941
ag8
aS'variable_6'
p942
ag37
ag17
ag13
ag18
aS'if'
p943
ag4
aS'variable_7'
p944
ag43
aS'0x80'
p945
ag13
aS'variable_9'
p946
ag16
ag87
ag18
aS'variable_10'
p947
ag16
ag4
ag4
aS'variable_7'
p948
ag43
aS'0x7f'
p949
ag13
aS'<<'
p950
aS'8'
p951
ag13
aS'|'
p952
aS'func_4'
p953
ag4
aS'variable_1'
p954
ag8
aS'variable_6'
p955
ag37
ag93
ag13
ag18
aS'variable_9'
p956
ag16
ag93
ag18
aS'variable_10'
p957
ag16
aS'variable_7'
p958
ag18
aS'variable_8'
p959
ag16
aS'func_5'
p960
ag4
aS'variable_1'
p961
ag8
aS'variable_6'
p962
ag37
aS'variable_9'
p963
ag8
aS'variable_10'
p964
ag8
aS'variable_10'
p965
ag13
ag18
aS'func_6'
p966
ag4
aS'variable_8'
p967
ag8
aS'variable_3'
p968
ag8
aS'variable_11'
p969
ag13
ag18
aS'func_7'
p970
ag4
aS'variable_0'
p971
ag6
aS'variable_1'
p972
ag8
aS'variable_2'
p973
ag6
aS'variable_3'
p974
ag8
aS'variable_4'
p975
ag6
aS'variable_5'
p976
ag13
aS'variable_7'
p977
ag16
aS'func_8'
p978
ag4
aS'variable_1'
p979
ag8
aS'variable_6'
p980
ag37
ag17
ag13
ag18
aS'if'
p981
ag4
aS'variable_7'
p982
aS'=='
p983
ag17
ag13
aS'if'
p984
ag4
aS'variable_5'
p985
ag13
aS'variable_12'
p986
ag16
aS'func_9'
p987
ag4
aS'variable_5'
p988
ag8
aS'variable_13'
p989
ag8
aS'variable_1'
p990
ag8
aS'variable_6'
p991
ag8
ag93
ag8
aS'variable_14'
p992
ag13
ag18
aS'variable_11'
p993
ag16
aS'func_10'
p994
ag4
aS'variable_12'
p995
ag8
aS'variable_15'
p996
ag13
ag18
aS'func_11'
p997
ag4
aS'variable_12'
p998
ag8
ag164
ag8
aS'PDU'
p999
aS'concatenation'
p1000
ag164
ag13
ag18
aS'while'
p1001
ag4
aS'variable_6'
p1002
ag933
ag4
aS'int'
p1003
ag13
aS'func_12'
p1004
ag4
aS'variable_1'
p1005
ag13
ag13
aS'variable_7'
p1006
ag16
aS'func_13'
p1007
ag4
aS'variable_1'
p1008
ag8
aS'variable_6'
p1009
ag37
ag17
ag13
ag18
aS'if'
p1010
ag4
aS'variable_7'
p1011
ag43
aS'0x80'
p1012
ag13
aS'variable_10'
p1013
ag16
ag4
ag4
aS'variable_7'
p1014
ag43
aS'0x7f'
p1015
ag13
aS'<<'
p1016
ag951
ag13
ag952
aS'func_14'
p1017
ag4
aS'variable_1'
p1018
ag8
aS'variable_6'
p1019
ag37
ag93
ag13
ag18
aS'variable_10'
p1020
ag16
aS'variable_7'
p1021
ag18
aS'if'
p1022
ag4
aS'variable_5'
p1023
ag13
aS'func_15'
p1024
ag4
aS'variable_11'
p1025
ag8
aS'variable_16'
p1026
ag8
aS'variable_1'
p1027
ag8
aS'variable_6'
p1028
ag8
aS'variable_9'
p1029
ag8
aS'variable_10'
p1030
ag13
ag18
aS'func_16'
p1031
ag4
aS'variable_3'
p1032
aS'->'
p1033
aS'variable_17'
p1034
ag8
aS'variable_18'
p1035
ag8
ag164
ag8
ag164
ag13
ag18
aS'variable_8'
p1036
ag16
aS'func_17'
p1037
ag4
aS'variable_1'
p1038
ag8
aS'variable_6'
p1039
ag37
aS'variable_9'
p1040
ag8
aS'variable_10'
p1041
ag8
aS'variable_10'
p1042
ag13
ag18
aS'func_18'
p1043
ag4
aS'variable_8'
p1044
ag8
aS'variable_3'
p1045
ag8
aS'variable_11'
p1046
ag13
ag18
aS'func_19'
p1047
ag4
aS'variable_0'
p1048
ag6
aS'variable_1'
p1049
ag8
aS'variable_2'
p1050
ag6
aS'variable_3'
p1051
ag8
aS'variable_4'
p1052
ag6
aS'variable_5'
p1053
ag13
aS'variable_7'
p1054
ag16
aS'func_20'
p1055
ag4
aS'variable_1'
p1056
ag8
aS'variable_6'
p1057
ag37
ag17
ag13
ag18
aS'if'
p1058
ag4
aS'variable_7'
p1059
aS'=='
p1060
ag17
ag13
aS'if'
p1061
ag4
aS'variable_5'
p1062
ag13
aS'variable_12'
p1063
ag16
aS'func_21'
p1064
ag4
aS'variable_5'
p1065
ag8
aS'variable_13'
p1066
ag8
aS'variable_1'
p1067
ag8
aS'variable_6'
p1068
ag8
ag93
ag8
aS'variable_14'
p1069
ag13
ag18
aS'variable_11'
p1070
ag16
aS'func_22'
p1071
ag4
aS'variable_12'
p1072
ag8
aS'variable_15'
p1073
ag13
ag18
aS'func_23'
p1074
ag4
aS'variable_12'
p1075
ag8
ag164
ag8
aS'PDU'
p1076
aS'concatenation'
p1077
ag164
ag13
ag18
aS'while'
p1078
ag4
aS'variable_6'
p1079
ag933
ag4
aS'int'
p1080
ag13
aS'func_24'
p1081
ag4
aS'variable_1'
p1082
ag13
ag13
aS'variable_7'
p1083
ag16
aS'func_25'
p1084
ag4
aS'variable_1'
p1085
ag8
aS'variable_6'
p1086
ag37
ag17
ag13
ag18
aS'if'
p1087
ag4
aS'variable_7'
p1088
ag43
aS'0x80'
p1089
ag13
aS'variable_10'
p1090
ag16
ag4
ag4
aS'variable_7'
p1091
ag43
aS'0x7f'
p1092
ag13
aS'<<'
p1093
ag951
ag13
ag952
aS'func_26'
p1094
ag4
aS'variable_1'
p1095
ag8
aS'variable_6'
p1096
ag37
ag93
ag13
ag18
aS'variable_10'
p1097
ag16
aS'variable_7'
p1098
ag18
aS'if'
p1099
ag4
aS'variable_5'
p1100
ag13
aS'func_27'
p1101
ag4
aS'variable_11'
p1102
ag8
aS'variable_16'
p1103
ag8
aS'variable_1'
p1104
ag8
aS'variable_6'
p1105
ag8
aS'variable_9'
p1106
ag8
aS'variable_10'
p1107
ag13
ag18
aS'func_28'
p1108
ag4
aS'variable_3'
p1109
aS'->'
p1110
aS'variable_17'
p1111
ag8
aS'variable_18'
p1112
ag8
ag164
ag8
ag164
ag13
ag18
aS'variable_8'
p1113
ag16
aS'func_29'
p1114
ag4
aS'variable_1'
p1115
ag8
aS'variable_6'
p1116
ag37
aS'variable_9'
p1117
ag8
aS'variable_10'
p1118
ag8
aS'variable_10'
p1119
ag13
ag18
aS'func_30'
p1120
ag4
aS'variable_8'
p1121
ag8
aS'variable_3'
p1122
ag8
aS'variable_11'
p1123
ag13
ag18
aS'variable_6'
p1124
aS'+='
p1125
aS'variable_9'
p1126
ag37
aS'variable_10'
p1127
ag18
aS'if'
p1128
ag4
aS'variable_5'
p1129
ag13
aS'func_31'
p1130
ag4
aS'variable_12'
p1131
ag8
ag164
ag8
aS'PDU'
p1132
aS'count'
p1133
ag173
ag175
ag176
ag164
ag8
aS'variable_19'
p1134
ag13
ag18
aS'variable_20'
p1135
ag16
aS'variable_7'
p1136
ag43
aS'0x80'
p1137
ag18
aS'variable_21'
p1138
ag16
aS'func_32'
p1139
ag4
aS'variable_7'
p1140
ag13
ag18
aS'variable_22'
p1141
ag16
aS'func_33'
p1142
ag4
aS'variable_7'
p1143
ag13
ag18
aS'printf'
p1144
ag4
ag164
aS'WTP'
p1145
aS'packet'
p1146
ag175
ag176
ag173
aS'tree'
p1147
ag16
ag175
ag181
ag8
aS'pdu'
p1148
ag16
ag175
ag177
ag4
ag175
ag176
ag13
aS'length'
p1149
ag173
ag175
ag176
ag184
ag185
ag164
ag8
aS'variable_3'
p1150
aS'->'
p1151
aS'variable_23'
p1152
aS'->'
p1153
aS'variable_24'
p1154
ag8
aS'variable_5'
p1155
ag8
aS'func_34'
p1156
ag4
aS'variable_22'
p1157
ag8
aS'variable_25'
p1158
ag8
ag164
aS'Unknown'
p1159
aS'PDU'
p1160
aS'type'
p1161
aS'0x'
p1162
ag175
ag642
ag164
ag13
ag8
aS'variable_22'
p1163
ag8
aS'func_35'
p1164
ag4
aS'variable_1'
p1165
ag13
ag13
ag18
aS'variable_26'
p1166
ag16
aS'func_36'
p1167
ag4
aS'variable_27'
p1168
ag8
aS'variable_28'
p1169
ag8
ag164
aS'WTP'
p1170
ag175
ag177
ag164
ag8
aS'func_37'
p1171
ag4
aS'variable_22'
p1172
ag8
aS'variable_25'
p1173
ag8
ag164
aS'Unknown'
p1174
aS'PDU'
p1175
aS'type'
p1176
aS'0x'
p1177
ag175
ag642
ag164
ag13
ag13
ag18
aS'variable_29'
p1178
aS'+='
p1179
aS'func_38'
p1180
ag4
aS'variable_26'
p1181
ag8
aS'variable_28'
p1182
ag200
aS'variable_29'
p1183
ag13
ag18
aS'switch'
p1184
ag4
aS'variable_22'
p1185
ag13
aS'variable_30'
p1186
ag16
aS'func_39'
p1187
ag4
aS'variable_7'
p1188
ag13
ag18
aS'variable_31'
p1189
ag16
aS'func_40'
p1190
ag4
aS'variable_1'
p1191
ag8
aS'variable_6'
p1192
ag37
ag93
ag13
ag18
aS'variable_32'
p1193
ag16
aS'func_41'
p1194
ag4
aS'func_42'
p1195
ag4
aS'variable_1'
p1196
ag8
aS'variable_6'
p1197
ag37
ag55
ag13
ag13
ag18
aS'variable_26'
p1198
ag16
aS'func_43'
p1199
ag4
ag43
aS'variable_27'
p1200
ag660
aS'variable_29'
p1201
ag662
ag8
aS'variable_28'
p1202
ag200
aS'variable_29'
p1203
ag8
ag164
aS'Class'
p1204
ag175
ag179
ag164
ag8
aS'variable_32'
p1205
ag13
ag18
aS'variable_29'
p1206
aS'+='
p1207
aS'func_44'
p1208
ag4
aS'variable_26'
p1209
ag8
aS'variable_28'
p1210
ag200
aS'variable_29'
p1211
ag13
ag18
aS'variable_30'
p1212
ag16
aS'func_45'
p1213
ag4
aS'variable_7'
p1214
ag13
ag18
aS'variable_31'
p1215
ag16
aS'func_46'
p1216
ag4
aS'variable_1'
p1217
ag8
aS'variable_6'
p1218
ag37
ag93
ag13
ag18
aS'variable_33'
p1219
ag16
aS'func_47'
p1220
ag4
aS'variable_1'
p1221
ag8
aS'variable_6'
p1222
ag37
ag55
ag13
ag18
aS'if'
p1223
ag4
aS'variable_33'
p1224
aS'!='
p1225
ag17
ag13
aS'variable_26'
p1226
ag16
aS'func_48'
p1227
ag4
ag43
aS'variable_27'
p1228
ag660
aS'variable_29'
p1229
ag662
ag8
aS'variable_28'
p1230
ag200
aS'variable_29'
p1231
ag8
ag164
ag4
ag175
ag176
ag13
ag164
ag8
aS'variable_33'
p1232
ag13
ag18
aS'variable_29'
p1233
aS'+='
p1234
aS'func_49'
p1235
ag4
aS'variable_26'
p1236
ag8
aS'variable_28'
p1237
ag200
aS'variable_29'
p1238
ag13
ag18
aS'variable_30'
p1239
ag16
aS'func_50'
p1240
ag4
aS'variable_7'
p1241
ag13
ag18
aS'variable_31'
p1242
ag16
aS'func_51'
p1243
ag4
aS'variable_1'
p1244
ag8
aS'variable_6'
p1245
ag37
ag93
ag13
ag18
aS'variable_34'
p1246
ag16
aS'func_52'
p1247
ag4
aS'variable_1'
p1248
ag8
aS'variable_6'
p1249
ag37
ag55
ag13
ag18
aS'variable_35'
p1250
ag16
aS'variable_34'
p1251
ag37
ag51
ag18
aS'if'
p1252
ag4
aS'variable_21'
p1253
ag13
aS'variable_26'
p1254
ag16
aS'func_53'
p1255
ag4
ag43
aS'variable_27'
p1256
ag660
aS'variable_29'
p1257
ag662
ag8
aS'variable_28'
p1258
ag200
aS'variable_29'
p1259
ag8
ag164
ag701
ag164
ag13
ag18
aS'variable_29'
p1260
aS'+='
p1261
aS'func_54'
p1262
ag4
aS'variable_26'
p1263
ag8
aS'variable_28'
p1264
ag200
aS'variable_29'
p1265
ag13
ag18
aS'if'
p1266
ag4
aS'variable_5'
p1267
ag13
aS'fprintf'
p1268
ag4
aS'variable_36'
p1269
ag8
ag164
aS'dissect_wtp'
p1270
ag173
aS'cbHeader'
p1271
ag16
ag175
ag179
ag184
ag185
ag164
ag8
aS'variable_35'
p1272
ag13
ag18
aS'variable_12'
p1273
ag16
aS'func_55'
p1274
ag4
aS'variable_5'
p1275
ag8
aS'variable_13'
p1276
ag8
aS'variable_1'
p1277
ag8
aS'variable_6'
p1278
ag8
ag17
ag8
aS'variable_14'
p1279
ag13
ag18
aS'fprintf'
p1280
ag4
aS'variable_36'
p1281
ag8
ag164
aS'dissect_wtp'
p1282
ag173
ag4
aS'7'
p1283
ag13
aS'Returned'
p1284
aS'from'
p1285
aS'proto_tree_add_item'
p1286
ag184
ag185
ag164
ag13
ag18
aS'variable_11'
p1287
ag16
aS'func_56'
p1288
ag4
aS'variable_12'
p1289
ag8
aS'variable_37'
p1290
ag13
ag18
aS'fprintf'
p1291
ag4
aS'variable_36'
p1292
ag8
ag164
aS'dissect_wtp'
p1293
ag173
aS'cbHeader'
p1294
ag16
ag175
ag179
ag184
ag185
ag164
ag8
aS'variable_35'
p1295
ag13
ag18
aS'fprintf'
p1296
ag4
aS'variable_36'
p1297
ag8
ag164
aS'dissect_wtp'
p1298
ag173
aS'offCur'
p1299
ag16
ag175
ag179
ag184
ag185
ag164
ag8
aS'variable_6'
p1300
ag13
ag18
aS'func_57'
p1301
ag4
aS'variable_11'
p1302
ag8
aS'variable_38'
p1303
ag8
aS'variable_1'
p1304
ag8
aS'variable_6'
p1305
ag8
ag93
ag8
aS'variable_7'
p1306
ag13
ag18
aS'func_58'
p1307
ag4
aS'variable_11'
p1308
ag8
aS'variable_39'
p1309
ag8
aS'variable_1'
p1310
ag8
aS'variable_6'
p1311
ag8
ag93
ag8
aS'variable_40'
p1312
ag13
ag18
aS'switch'
p1313
ag4
aS'variable_22'
p1314
ag13
aS'func_59'
p1315
ag4
aS'variable_11'
p1316
ag8
aS'variable_41'
p1317
ag8
aS'variable_1'
p1318
ag8
aS'variable_6'
p1319
ag8
ag93
ag8
aS'variable_40'
p1320
ag13
ag18
aS'func_60'
p1321
ag4
aS'variable_11'
p1322
ag8
aS'variable_42'
p1323
ag8
aS'variable_1'
p1324
ag8
aS'variable_6'
p1325
ag8
ag93
ag8
aS'variable_40'
p1326
ag13
ag18
aS'func_61'
p1327
ag4
aS'variable_11'
p1328
ag8
aS'variable_43'
p1329
ag8
aS'variable_1'
p1330
ag8
aS'variable_6'
p1331
ag37
ag93
ag8
ag87
ag8
aS'variable_44'
p1332
ag13
ag18
aS'func_62'
p1333
ag4
aS'variable_11'
p1334
ag8
aS'variable_45'
p1335
ag8
aS'variable_1'
p1336
ag8
aS'variable_6'
p1337
ag37
ag93
ag8
ag87
ag8
aS'variable_44'
p1338
ag13
ag18
aS'func_63'
p1339
ag4
aS'variable_11'
p1340
ag8
aS'variable_46'
p1341
ag8
aS'variable_1'
p1342
ag8
aS'variable_6'
p1343
ag37
ag55
ag8
ag93
ag8
aS'variable_40'
p1344
ag13
ag18
aS'func_64'
p1345
ag4
aS'variable_11'
p1346
ag8
aS'variable_47'
p1347
ag8
aS'variable_1'
p1348
ag8
aS'variable_6'
p1349
ag37
ag55
ag8
ag93
ag8
aS'variable_40'
p1350
ag13
ag18
aS'func_65'
p1351
ag4
aS'variable_11'
p1352
ag8
aS'variable_48'
p1353
ag8
aS'variable_1'
p1354
ag8
aS'variable_6'
p1355
ag37
ag55
ag8
ag93
ag8
aS'variable_40'
p1356
ag13
ag18
aS'func_66'
p1357
ag4
aS'variable_11'
p1358
ag8
aS'variable_49'
p1359
ag8
aS'variable_1'
p1360
ag8
aS'variable_6'
p1361
ag37
ag55
ag8
ag93
ag8
aS'variable_40'
p1362
ag13
ag18
aS'func_67'
p1363
ag4
aS'variable_11'
p1364
ag8
aS'variable_50'
p1365
ag8
aS'variable_1'
p1366
ag8
aS'variable_6'
p1367
ag37
ag55
ag8
ag93
ag8
aS'variable_40'
p1368
ag13
ag18
aS'func_68'
p1369
ag4
ag164
ag8
aS'Transaction'
p1370
aS'Class'
p1371
ag173
ag175
ag177
ag4
ag175
ag176
ag13
ag164
aS'func_69'
p1372
ag4
aS'variable_32'
p1373
ag8
aS'variable_51'
p1374
ag8
ag164
aS'Undefined'
p1375
ag164
ag13
aS'variable_32'
p1376
ag13
aS'func_70'
p1377
ag4
aS'variable_11'
p1378
ag8
aS'variable_41'
p1379
ag8
aS'variable_1'
p1380
ag8
aS'variable_6'
p1381
ag8
ag93
ag8
aS'variable_40'
p1382
ag13
ag18
aS'func_71'
p1383
ag4
aS'variable_11'
p1384
ag8
aS'variable_42'
p1385
ag8
aS'variable_1'
p1386
ag8
aS'variable_6'
p1387
ag8
ag93
ag8
aS'variable_40'
p1388
ag13
ag18
aS'func_72'
p1389
ag4
aS'variable_11'
p1390
ag8
aS'variable_43'
p1391
ag8
aS'variable_1'
p1392
ag8
aS'variable_6'
p1393
ag37
ag93
ag8
ag87
ag8
aS'variable_44'
p1394
ag13
ag18
aS'func_73'
p1395
ag4
aS'variable_11'
p1396
ag8
aS'variable_45'
p1397
ag8
aS'variable_1'
p1398
ag8
aS'variable_6'
p1399
ag37
ag93
ag8
ag87
ag8
aS'variable_44'
p1400
ag13
ag18
aS'func_74'
p1401
ag4
aS'variable_12'
p1402
ag8
ag164
ag8
aS'PDU'
p1403
ag173
aS'Result'
p1404
ag4
ag175
ag176
ag13
ag164
ag8
aS'variable_52'
p1405
ag13
ag18
aS'func_75'
p1406
ag4
aS'variable_11'
p1407
ag8
aS'variable_53'
p1408
ag8
aS'variable_1'
p1409
ag8
aS'variable_6'
p1410
ag8
ag93
ag8
aS'variable_44'
p1411
ag13
ag18
aS'func_76'
p1412
ag4
aS'variable_11'
p1413
ag8
aS'variable_42'
p1414
ag8
aS'variable_1'
p1415
ag8
aS'variable_6'
p1416
ag8
ag93
ag8
aS'variable_40'
p1417
ag13
ag18
aS'func_77'
p1418
ag4
aS'variable_11'
p1419
ag8
aS'variable_43'
p1420
ag8
aS'variable_1'
p1421
ag8
aS'variable_6'
p1422
ag37
ag93
ag8
ag87
ag8
aS'variable_44'
p1423
ag13
ag18
aS'func_78'
p1424
ag4
aS'variable_11'
p1425
ag8
aS'variable_45'
p1426
ag8
aS'variable_1'
p1427
ag8
aS'variable_6'
p1428
ag37
ag93
ag8
ag87
ag8
aS'variable_44'
p1429
ag13
ag18
aS'func_79'
p1430
ag4
aS'variable_12'
p1431
ag8
ag164
ag8
aS'PDU'
p1432
ag173
aS'ACK'
p1433
ag4
ag175
ag176
ag13
ag164
ag8
aS'variable_54'
p1434
ag13
ag18
aS'variable_55'
p1435
ag16
aS'func_80'
p1436
ag4
aS'variable_1'
p1437
ag8
aS'variable_6'
p1438
ag13
ag43
aS'0x07'
p1439
ag18
aS'func_81'
p1440
ag4
aS'variable_11'
p1441
ag8
aS'variable_56'
p1442
ag8
aS'variable_1'
p1443
ag8
aS'variable_6'
p1444
ag8
ag93
ag8
aS'variable_40'
p1445
ag13
ag18
aS'func_82'
p1446
ag4
aS'variable_11'
p1447
ag8
aS'variable_43'
p1448
ag8
aS'variable_1'
p1449
ag8
aS'variable_6'
p1450
ag37
ag93
ag8
ag87
ag8
aS'variable_44'
p1451
ag13
ag18
aS'func_83'
p1452
ag4
aS'variable_11'
p1453
ag8
aS'variable_45'
p1454
ag8
aS'variable_1'
p1455
ag8
aS'variable_6'
p1456
ag37
ag93
ag8
ag87
ag8
aS'variable_44'
p1457
ag13
ag18
aS'if'
p1458
ag4
aS'variable_55'
p1459
aS'=='
p1460
aS'variable_57'
p1461
ag13
aS'guint8'
p1462
aS'variable_58'
p1463
ag16
aS'func_84'
p1464
ag4
aS'variable_1'
p1465
ag8
aS'variable_6'
p1466
ag37
ag55
ag13
ag18
aS'func_85'
p1467
ag4
aS'variable_11'
p1468
ag8
aS'variable_59'
p1469
ag8
aS'variable_1'
p1470
ag8
aS'variable_6'
p1471
ag37
ag55
ag8
ag93
ag8
aS'variable_40'
p1472
ag13
ag18
aS'if'
p1473
ag4
aS'variable_55'
p1474
aS'=='
p1475
aS'variable_60'
p1476
ag13
aS'guint8'
p1477
aS'variable_58'
p1478
ag16
aS'func_86'
p1479
ag4
aS'variable_1'
p1480
ag8
aS'variable_6'
p1481
ag37
ag55
ag13
ag18
aS'func_87'
p1482
ag4
aS'variable_11'
p1483
ag8
aS'variable_61'
p1484
ag8
aS'variable_1'
p1485
ag8
aS'variable_6'
p1486
ag37
ag55
ag8
ag93
ag8
aS'variable_40'
p1487
ag13
ag18
aS'func_88'
p1488
ag4
aS'variable_11'
p1489
ag8
aS'variable_41'
p1490
ag8
aS'variable_1'
p1491
ag8
aS'variable_6'
p1492
ag8
ag93
ag8
aS'variable_40'
p1493
ag13
ag18
aS'func_89'
p1494
ag4
aS'variable_11'
p1495
ag8
aS'variable_42'
p1496
ag8
aS'variable_1'
p1497
ag8
aS'variable_6'
p1498
ag8
ag93
ag8
aS'variable_40'
p1499
ag13
ag18
aS'func_90'
p1500
ag4
aS'variable_11'
p1501
ag8
aS'variable_43'
p1502
ag8
aS'variable_1'
p1503
ag8
aS'variable_6'
p1504
ag37
ag93
ag8
ag87
ag8
aS'variable_44'
p1505
ag13
ag18
aS'func_91'
p1506
ag4
aS'variable_11'
p1507
ag8
aS'variable_45'
p1508
ag8
aS'variable_1'
p1509
ag8
aS'variable_6'
p1510
ag37
ag93
ag8
ag87
ag8
aS'variable_44'
p1511
ag13
ag18
aS'func_92'
p1512
ag4
aS'variable_11'
p1513
ag8
aS'variable_62'
p1514
ag8
aS'variable_1'
p1515
ag8
aS'variable_6'
p1516
ag37
ag55
ag8
ag93
ag8
aS'variable_40'
p1517
ag13
ag18
aS'func_93'
p1518
ag4
ag164
ag8
aS'Packet'
p1519
aS'Sequence'
p1520
aS'Number'
p1521
ag173
ag175
ag176
ag164
aS'variable_63'
p1522
ag8
aS'variable_33'
p1523
ag13
aS'func_94'
p1524
ag4
aS'variable_11'
p1525
ag8
aS'variable_41'
p1526
ag8
aS'variable_1'
p1527
ag8
aS'variable_6'
p1528
ag8
ag93
ag8
aS'variable_40'
p1529
ag13
ag18
aS'func_95'
p1530
ag4
aS'variable_11'
p1531
ag8
aS'variable_42'
p1532
ag8
aS'variable_1'
p1533
ag8
aS'variable_6'
p1534
ag8
ag93
ag8
aS'variable_40'
p1535
ag13
ag18
aS'func_96'
p1536
ag4
aS'variable_11'
p1537
ag8
aS'variable_43'
p1538
ag8
aS'variable_1'
p1539
ag8
aS'variable_6'
p1540
ag37
ag93
ag8
ag87
ag8
aS'variable_44'
p1541
ag13
ag18
aS'func_97'
p1542
ag4
aS'variable_11'
p1543
ag8
aS'variable_45'
p1544
ag8
aS'variable_1'
p1545
ag8
aS'variable_6'
p1546
ag37
ag93
ag8
ag87
ag8
aS'variable_44'
p1547
ag13
ag18
aS'func_98'
p1548
ag4
aS'variable_11'
p1549
ag8
aS'variable_62'
p1550
ag8
aS'variable_1'
p1551
ag8
aS'variable_6'
p1552
ag37
ag55
ag8
ag93
ag8
aS'variable_40'
p1553
ag13
ag18
aS'func_99'
p1554
ag4
ag164
ag8
aS'Packet'
p1555
aS'Sequence'
p1556
aS'Number'
p1557
ag173
ag175
ag176
ag164
aS'variable_64'
p1558
ag8
aS'variable_33'
p1559
ag13
aS'func_100'
p1560
ag4
aS'variable_11'
p1561
ag8
aS'variable_42'
p1562
ag8
aS'variable_1'
p1563
ag8
aS'variable_6'
p1564
ag8
ag93
ag8
aS'variable_40'
p1565
ag13
ag18
aS'func_101'
p1566
ag4
aS'variable_11'
p1567
ag8
aS'variable_43'
p1568
ag8
aS'variable_1'
p1569
ag8
aS'variable_6'
p1570
ag37
ag93
ag8
ag87
ag8
aS'variable_44'
p1571
ag13
ag18
aS'func_102'
p1572
ag4
aS'variable_11'
p1573
ag8
aS'variable_45'
p1574
ag8
aS'variable_1'
p1575
ag8
aS'variable_6'
p1576
ag37
ag93
ag8
ag87
ag8
aS'variable_44'
p1577
ag13
ag18
aS'func_103'
p1578
ag4
aS'variable_11'
p1579
ag8
aS'variable_65'
p1580
ag8
aS'variable_1'
p1581
ag8
aS'variable_6'
p1582
ag37
ag55
ag8
ag93
ag8
aS'variable_40'
p1583
ag13
ag18
aS'for'
p1584
ag4
aS'variable_19'
p1585
ag16
ag17
ag18
aS'variable_19'
p1586
ag933
aS'variable_34'
p1587
ag18
aS'variable_19'
p1588
aS'++'
p1589
ag13
aS'func_104'
p1590
ag4
aS'variable_11'
p1591
ag8
aS'variable_62'
p1592
ag8
aS'variable_1'
p1593
ag8
aS'variable_6'
p1594
ag37
ag51
ag37
aS'variable_19'
p1595
ag8
ag93
ag8
aS'variable_40'
p1596
ag13
ag18
aS'func_105'
p1597
ag4
ag164
ag8
aS'Missing'
p1598
aS'Packets'
p1599
ag173
ag175
ag176
ag164
aS'variable_66'
p1600
ag8
aS'variable_34'
p1601
ag13
aS'if'
p1602
ag4
aS'variable_21'
p1603
ag13
aS'func_106'
p1604
ag4
aS'variable_12'
p1605
ag8
ag164
ag8
aS'Retransmission'
p1606
ag164
ag13
ag18
aS'fprintf'
p1607
ag4
aS'variable_36'
p1608
ag8
ag164
aS'dissect_wtp'
p1609
ag173
ag4
ag51
ag13
aS'tree'
p1610
aS'was'
p1611
ag175
ag181
ag184
ag185
ag164
ag8
aS'variable_5'
p1612
ag13
ag18
aS'if'
p1613
ag4
aS'variable_20'
p1614
ag13
aS'variable_67'
p1615
ag16
aS'func_107'
p1616
ag4
aS'variable_1'
p1617
ag8
aS'variable_6'
p1618
ag37
aS'variable_35'
p1619
ag37
aS'variable_68'
p1620
ag13
ag18
aS'variable_69'
p1621
ag16
aS'variable_67'
p1622
ag43
aS'0x80'
p1623
ag18
aS'if'
p1624
ag4
aS'variable_67'
p1625
ag43
aS'0x04'
p1626
ag13
aS'variable_70'
p1627
ag16
ag87
ag37
aS'func_108'
p1628
ag4
aS'variable_1'
p1629
ag8
aS'variable_6'
p1630
ag37
aS'variable_35'
p1631
ag37
aS'variable_68'
p1632
ag37
ag93
ag13
ag18
aS'variable_70'
p1633
ag16
ag93
ag37
ag4
aS'variable_67'
p1634
ag43
aS'0x03'
p1635
ag13
ag18
aS'if'
p1636
ag4
aS'variable_5'
p1637
ag13
aS'variable_71'
p1638
ag16
aS'func_109'
p1639
ag4
aS'variable_1'
p1640
ag8
aS'variable_6'
p1641
ag37
aS'variable_35'
p1642
ag37
aS'variable_68'
p1643
ag8
aS'variable_70'
p1644
ag8
aS'variable_70'
p1645
ag13
ag18
aS'func_110'
p1646
ag4
aS'variable_11'
p1647
ag8
aS'variable_71'
p1648
ag13
ag18
aS'variable_68'
p1649
aS'+='
p1650
aS'variable_70'
p1651
ag18
aS'while'
p1652
ag4
aS'variable_69'
p1653
ag13
aS'if'
p1654
ag4
aS'variable_5'
p1655
ag13
aS'func_111'
p1656
ag4
aS'variable_12'
p1657
ag8
aS'variable_35'
p1658
ag37
aS'variable_68'
p1659
ag13
ag18
aS'fprintf'
p1660
ag4
aS'variable_36'
p1661
ag8
ag164
aS'dissect_wtp'
p1662
ag173
aS'cbHeader'
p1663
ag16
ag175
ag179
ag184
ag185
ag164
ag8
aS'variable_35'
p1664
ag13
ag18
aS'variable_72'
p1665
ag16
aS'variable_6'
p1666
ag37
aS'variable_35'
p1667
ag37
aS'variable_68'
p1668
ag18
aS'variable_73'
p1669
ag16
aS'func_112'
p1670
ag4
aS'variable_1'
p1671
ag8
aS'variable_72'
p1672
ag13
ag18
aS'if'
p1673
ag4
ag4
aS'variable_73'
p1674
ag112
ag16
ag17
ag13
aS'&&'
p1675
ag114
ag4
ag4
aS'variable_22'
p1676
aS'=='
p1677
aS'variable_54'
p1678
ag13
aS'||'
p1679
ag4
aS'variable_22'
p1680
aS'=='
p1681
aS'variable_66'
p1682
ag13
aS'||'
p1683
ag4
aS'variable_22'
p1684
aS'=='
p1685
aS'variable_74'
p1686
ag13
ag13
ag13
aS'if'
p1687
ag4
ag4
ag4
aS'variable_22'
p1688
aS'=='
p1689
aS'variable_63'
p1690
ag13
aS'||'
p1691
ag4
aS'variable_22'
p1692
aS'=='
p1693
aS'variable_64'
p1694
ag13
aS'||'
p1695
ag4
ag4
ag4
aS'variable_22'
p1696
aS'=='
p1697
aS'variable_75'
p1698
ag13
aS'||'
p1699
ag4
aS'variable_22'
p1700
aS'=='
p1701
aS'variable_52'
p1702
ag13
ag13
aS'&&'
p1703
ag4
ag114
aS'variable_30'
p1704
ag13
ag13
ag13
aS'&&'
p1705
aS'func_113'
p1706
ag4
aS'variable_1'
p1707
ag8
aS'variable_72'
p1708
ag8
aS'variable_73'
p1709
ag13
ag13
aS'gboolean'
p1710
aS'variable_76'
p1711
ag16
aS'variable_3'
p1712
aS'->'
p1713
aS'variable_77'
p1714
ag18
aS'variable_3'
p1715
aS'->'
p1716
aS'variable_77'
p1717
ag16
aS'variable_78'
p1718
ag18
aS'variable_79'
p1719
ag16
aS'func_114'
p1720
ag4
aS'variable_1'
p1721
ag8
aS'variable_72'
p1722
ag8
aS'variable_3'
p1723
ag8
aS'variable_31'
p1724
ag8
aS'variable_80'
p1725
ag8
aS'variable_33'
p1726
ag8
aS'variable_73'
p1727
ag8
ag114
aS'variable_30'
p1728
ag13
ag18
aS'variable_81'
p1729
ag16
aS'func_115'
p1730
ag4
aS'variable_1'
p1731
ag8
aS'variable_72'
p1732
ag8
aS'variable_3'
p1733
ag8
ag164
aS'Reassembled'
p1734
aS'WTP'
p1735
ag164
ag8
aS'variable_79'
p1736
ag8
ag43
aS'variable_82'
p1737
ag8
aS'NULL'
p1738
ag8
aS'variable_11'
p1739
ag13
ag18
aS'printf'
p1740
ag4
ag164
aS'WTP'
p1741
ag173
aS'Packet'
p1742
ag175
ag176
ag175
ag177
aS'->'
p1743
ag175
ag179
ag173
aS'wsp_tvb'
p1744
ag16
ag175
ag181
ag8
aS'fd_wtp'
p1745
ag16
ag175
ag181
ag8
aS'frame'
p1746
ag16
ag175
ag176
ag184
ag185
ag164
ag8
aS'variable_3'
p1747
aS'->'
p1748
aS'variable_23'
p1749
aS'->'
p1750
aS'variable_24'
p1751
ag8
aS'variable_79'
p1752
ag192
ag164
aS'Reassembled'
p1753
ag164
ag173
ag164
aS'Not'
p1754
aS'reassembled'
p1755
ag164
ag8
aS'variable_79'
p1756
ag192
aS'variable_79'
p1757
aS'->'
p1758
aS'variable_83'
p1759
ag173
ag200
ag93
ag8
aS'variable_81'
p1760
ag8
aS'variable_79'
p1761
ag13
ag18
aS'if'
p1762
ag4
aS'variable_79'
p1763
ag13
aS'variable_83'
p1764
ag16
aS'variable_79'
p1765
aS'->'
p1766
aS'variable_83'
p1767
ag18
aS'if'
p1768
ag4
aS'variable_3'
p1769
aS'->'
p1770
aS'variable_23'
p1771
aS'->'
p1772
aS'variable_24'
p1773
aS'=='
p1774
aS'variable_83'
p1775
ag13
aS'func_116'
p1776
ag4
aS'variable_84'
p1777
ag8
aS'variable_81'
p1778
ag8
aS'variable_3'
p1779
ag8
aS'variable_5'
p1780
ag13
ag18
aS'if'
p1781
ag4
aS'func_117'
p1782
ag4
aS'variable_3'
p1783
aS'->'
p1784
aS'variable_17'
p1785
ag8
aS'variable_18'
p1786
ag13
ag13
aS'func_118'
p1787
ag4
aS'variable_3'
p1788
aS'->'
p1789
aS'variable_17'
p1790
ag8
aS'variable_18'
p1791
ag8
ag164
ag175
ag177
ag4
aS'WTP'
p1792
aS'payload'
p1793
aS'reassembled'
p1794
aS'in'
p1795
aS'packet'
p1796
ag175
ag176
ag13
ag164
ag8
aS'variable_27'
p1797
ag8
aS'variable_79'
p1798
aS'->'
p1799
aS'variable_83'
p1800
ag13
ag18
aS'if'
p1801
ag4
aS'variable_5'
p1802
ag13
aS'func_119'
p1803
ag4
aS'variable_11'
p1804
ag8
aS'variable_1'
p1805
ag8
aS'variable_72'
p1806
ag8
ag200
ag93
ag8
ag164
aS'Payload'
p1807
ag164
ag13
ag18
aS'if'
p1808
ag4
aS'func_120'
p1809
ag4
aS'variable_3'
p1810
aS'->'
p1811
aS'variable_17'
p1812
ag8
aS'variable_18'
p1813
ag13
ag13
aS'func_121'
p1814
ag4
aS'variable_3'
p1815
aS'->'
p1816
aS'variable_17'
p1817
ag8
aS'variable_18'
p1818
ag8
ag164
ag175
ag177
ag4
aS'Unreassembled'
p1819
aS'fragment'
p1820
ag175
ag176
ag13
ag164
ag8
aS'variable_27'
p1821
ag8
aS'variable_33'
p1822
ag13
ag18
aS'if'
p1823
ag4
aS'variable_5'
p1824
ag13
aS'func_122'
p1825
ag4
aS'variable_11'
p1826
ag8
aS'variable_1'
p1827
ag8
aS'variable_72'
p1828
ag8
ag200
ag93
ag8
ag164
aS'Payload'
p1829
ag164
ag13
ag18
aS'variable_3'
p1830
aS'->'
p1831
aS'variable_77'
p1832
ag16
aS'variable_76'
p1833
ag18
aS'if'
p1834
ag4
ag4
ag4
aS'variable_22'
p1835
aS'=='
p1836
aS'variable_75'
p1837
ag13
aS'||'
p1838
ag4
aS'variable_22'
p1839
aS'=='
p1840
aS'variable_52'
p1841
ag13
ag13
aS'&&'
p1842
ag4
aS'variable_30'
p1843
ag13
ag13
aS'variable_81'
p1844
ag16
aS'func_123'
p1845
ag4
aS'variable_1'
p1846
ag8
aS'variable_72'
p1847
ag13
ag18
aS'func_124'
p1848
ag4
aS'variable_84'
p1849
ag8
aS'variable_81'
p1850
ag8
aS'variable_3'
p1851
ag8
aS'variable_5'
p1852
ag13
ag18
aS'if'
p1853
ag4
aS'func_125'
p1854
ag4
aS'variable_3'
p1855
aS'->'
p1856
aS'variable_17'
p1857
ag8
aS'variable_18'
p1858
ag13
ag13
aS'func_126'
p1859
ag4
aS'variable_3'
p1860
aS'->'
p1861
aS'variable_17'
p1862
ag8
aS'variable_18'
p1863
ag8
aS'variable_27'
p1864
ag13
ag18
aS'if'
p1865
ag4
aS'func_127'
p1866
ag4
aS'variable_3'
p1867
aS'->'
p1868
aS'variable_17'
p1869
ag8
aS'variable_18'
p1870
ag13
ag13
aS'func_128'
p1871
ag4
aS'variable_3'
p1872
aS'->'
p1873
aS'variable_17'
p1874
ag8
aS'variable_18'
p1875
ag8
aS'variable_27'
p1876
ag13
ag18
aS'variable_6'
p1877
aS'+='
p1878
aS'variable_9'
p1879
ag37
aS'variable_10'
p1880
ag18
aS'if'
p1881
ag4
aS'variable_5'
p1882
ag13
aS'func_129'
p1883
ag4
aS'variable_12'
p1884
ag8
ag164
ag8
aS'PDU'
p1885
aS'count'
p1886
ag173
ag175
ag176
ag164
ag8
aS'variable_19'
p1887
ag13
ag18
aS'variable_20'
p1888
ag16
aS'variable_7'
p1889
ag43
aS'0x80'
p1890
ag18
aS'variable_21'
p1891
ag16
aS'func_130'
p1892
ag4
aS'variable_7'
p1893
ag13
ag18
aS'variable_22'
p1894
ag16
aS'func_131'
p1895
ag4
aS'variable_7'
p1896
ag13
ag18
aS'printf'
p1897
ag4
ag164
aS'WTP'
p1898
aS'packet'
p1899
ag175
ag176
ag173
aS'tree'
p1900
ag16
ag175
ag181
ag8
aS'pdu'
p1901
ag16
ag175
ag177
ag4
ag175
ag176
ag13
aS'length'
p1902
ag173
ag175
ag176
ag184
ag185
ag164
ag8
aS'variable_3'
p1903
aS'->'
p1904
aS'variable_23'
p1905
aS'->'
p1906
aS'variable_24'
p1907
ag8
aS'variable_5'
p1908
ag8
aS'func_132'
p1909
ag4
aS'variable_22'
p1910
ag8
aS'variable_25'
p1911
ag8
ag164
aS'Unknown'
p1912
aS'PDU'
p1913
aS'type'
p1914
aS'0x'
p1915
ag175
ag642
ag164
ag13
ag8
aS'variable_22'
p1916
ag8
aS'func_133'
p1917
ag4
aS'variable_1'
p1918
ag13
ag13
ag18
aS'variable_26'
p1919
ag16
aS'func_134'
p1920
ag4
aS'variable_27'
p1921
ag8
aS'variable_28'
p1922
ag8
ag164
aS'WTP'
p1923
ag175
ag177
ag164
ag8
aS'func_135'
p1924
ag4
aS'variable_22'
p1925
ag8
aS'variable_25'
p1926
ag8
ag164
aS'Unknown'
p1927
aS'PDU'
p1928
aS'type'
p1929
aS'0x'
p1930
ag175
ag642
ag164
ag13
ag13
ag18
aS'variable_29'
p1931
aS'+='
p1932
aS'func_136'
p1933
ag4
aS'variable_26'
p1934
ag8
aS'variable_28'
p1935
ag200
aS'variable_29'
p1936
ag13
ag18
aS'switch'
p1937
ag4
aS'variable_22'
p1938
ag13
aS'variable_30'
p1939
ag16
aS'func_137'
p1940
ag4
aS'variable_7'
p1941
ag13
ag18
aS'variable_31'
p1942
ag16
aS'func_138'
p1943
ag4
aS'variable_1'
p1944
ag8
aS'variable_6'
p1945
ag37
ag93
ag13
ag18
aS'variable_32'
p1946
ag16
aS'func_139'
p1947
ag4
aS'func_140'
p1948
ag4
aS'variable_1'
p1949
ag8
aS'variable_6'
p1950
ag37
ag55
ag13
ag13
ag18
aS'variable_26'
p1951
ag16
aS'func_141'
p1952
ag4
ag43
aS'variable_27'
p1953
ag660
aS'variable_29'
p1954
ag662
ag8
aS'variable_28'
p1955
ag200
aS'variable_29'
p1956
ag8
ag164
aS'Class'
p1957
ag175
ag179
ag164
ag8
aS'variable_32'
p1958
ag13
ag18
aS'variable_29'
p1959
aS'+='
p1960
aS'func_142'
p1961
ag4
aS'variable_26'
p1962
ag8
aS'variable_28'
p1963
ag200
aS'variable_29'
p1964
ag13
ag18
aS'variable_30'
p1965
ag16
aS'func_143'
p1966
ag4
aS'variable_7'
p1967
ag13
ag18
aS'variable_31'
p1968
ag16
aS'func_144'
p1969
ag4
aS'variable_1'
p1970
ag8
aS'variable_6'
p1971
ag37
ag93
ag13
ag18
aS'variable_33'
p1972
ag16
aS'func_145'
p1973
ag4
aS'variable_1'
p1974
ag8
aS'variable_6'
p1975
ag37
ag55
ag13
ag18
aS'if'
p1976
ag4
aS'variable_33'
p1977
aS'!='
p1978
ag17
ag13
aS'variable_26'
p1979
ag16
aS'func_146'
p1980
ag4
ag43
aS'variable_27'
p1981
ag660
aS'variable_29'
p1982
ag662
ag8
aS'variable_28'
p1983
ag200
aS'variable_29'
p1984
ag8
ag164
ag4
ag175
ag176
ag13
ag164
ag8
aS'variable_33'
p1985
ag13
ag18
aS'variable_29'
p1986
aS'+='
p1987
aS'func_147'
p1988
ag4
aS'variable_26'
p1989
ag8
aS'variable_28'
p1990
ag200
aS'variable_29'
p1991
ag13
ag18
aS'variable_30'
p1992
ag16
aS'func_148'
p1993
ag4
aS'variable_7'
p1994
ag13
ag18
aS'variable_31'
p1995
ag16
aS'func_149'
p1996
ag4
aS'variable_1'
p1997
ag8
aS'variable_6'
p1998
ag37
ag93
ag13
ag18
aS'variable_34'
p1999
ag16
aS'func_150'
p2000
ag4
aS'variable_1'
p2001
ag8
aS'variable_6'
p2002
ag37
ag55
ag13
ag18
aS'variable_35'
p2003
ag16
aS'variable_34'
p2004
ag37
ag51
ag18
aS'if'
p2005
ag4
aS'variable_21'
p2006
ag13
aS'variable_26'
p2007
ag16
aS'func_151'
p2008
ag4
ag43
aS'variable_27'
p2009
ag660
aS'variable_29'
p2010
ag662
ag8
aS'variable_28'
p2011
ag200
aS'variable_29'
p2012
ag8
ag164
ag701
ag164
ag13
ag18
aS'variable_29'
p2013
aS'+='
p2014
aS'func_152'
p2015
ag4
aS'variable_26'
p2016
ag8
aS'variable_28'
p2017
ag200
aS'variable_29'
p2018
ag13
ag18
aS'if'
p2019
ag4
aS'variable_5'
p2020
ag13
aS'fprintf'
p2021
ag4
aS'variable_36'
p2022
ag8
ag164
aS'dissect_wtp'
p2023
ag173
aS'cbHeader'
p2024
ag16
ag175
ag179
ag184
ag185
ag164
ag8
aS'variable_35'
p2025
ag13
ag18
aS'variable_12'
p2026
ag16
aS'func_153'
p2027
ag4
aS'variable_5'
p2028
ag8
aS'variable_13'
p2029
ag8
aS'variable_1'
p2030
ag8
aS'variable_6'
p2031
ag8
ag17
ag8
aS'variable_14'
p2032
ag13
ag18
aS'fprintf'
p2033
ag4
aS'variable_36'
p2034
ag8
ag164
aS'dissect_wtp'
p2035
ag173
ag4
ag1283
ag13
aS'Returned'
p2036
aS'from'
p2037
aS'proto_tree_add_item'
p2038
ag184
ag185
ag164
ag13
ag18
aS'variable_11'
p2039
ag16
aS'func_154'
p2040
ag4
aS'variable_12'
p2041
ag8
aS'variable_37'
p2042
ag13
ag18
aS'fprintf'
p2043
ag4
aS'variable_36'
p2044
ag8
ag164
aS'dissect_wtp'
p2045
ag173
aS'cbHeader'
p2046
ag16
ag175
ag179
ag184
ag185
ag164
ag8
aS'variable_35'
p2047
ag13
ag18
aS'fprintf'
p2048
ag4
aS'variable_36'
p2049
ag8
ag164
aS'dissect_wtp'
p2050
ag173
aS'offCur'
p2051
ag16
ag175
ag179
ag184
ag185
ag164
ag8
aS'variable_6'
p2052
ag13
ag18
aS'func_155'
p2053
ag4
aS'variable_11'
p2054
ag8
aS'variable_38'
p2055
ag8
aS'variable_1'
p2056
ag8
aS'variable_6'
p2057
ag8
ag93
ag8
aS'variable_7'
p2058
ag13
ag18
aS'func_156'
p2059
ag4
aS'variable_11'
p2060
ag8
aS'variable_39'
p2061
ag8
aS'variable_1'
p2062
ag8
aS'variable_6'
p2063
ag8
ag93
ag8
aS'variable_40'
p2064
ag13
ag18
aS'switch'
p2065
ag4
aS'variable_22'
p2066
ag13
aS'func_157'
p2067
ag4
aS'variable_11'
p2068
ag8
aS'variable_41'
p2069
ag8
aS'variable_1'
p2070
ag8
aS'variable_6'
p2071
ag8
ag93
ag8
aS'variable_40'
p2072
ag13
ag18
aS'func_158'
p2073
ag4
aS'variable_11'
p2074
ag8
aS'variable_42'
p2075
ag8
aS'variable_1'
p2076
ag8
aS'variable_6'
p2077
ag8
ag93
ag8
aS'variable_40'
p2078
ag13
ag18
aS'func_159'
p2079
ag4
aS'variable_11'
p2080
ag8
aS'variable_43'
p2081
ag8
aS'variable_1'
p2082
ag8
aS'variable_6'
p2083
ag37
ag93
ag8
ag87
ag8
aS'variable_44'
p2084
ag13
ag18
aS'func_160'
p2085
ag4
aS'variable_11'
p2086
ag8
aS'variable_45'
p2087
ag8
aS'variable_1'
p2088
ag8
aS'variable_6'
p2089
ag37
ag93
ag8
ag87
ag8
aS'variable_44'
p2090
ag13
ag18
aS'func_161'
p2091
ag4
aS'variable_11'
p2092
ag8
aS'variable_46'
p2093
ag8
aS'variable_1'
p2094
ag8
aS'variable_6'
p2095
ag37
ag55
ag8
ag93
ag8
aS'variable_40'
p2096
ag13
ag18
aS'func_162'
p2097
ag4
aS'variable_11'
p2098
ag8
aS'variable_47'
p2099
ag8
aS'variable_1'
p2100
ag8
aS'variable_6'
p2101
ag37
ag55
ag8
ag93
ag8
aS'variable_40'
p2102
ag13
ag18
aS'func_163'
p2103
ag4
aS'variable_11'
p2104
ag8
aS'variable_48'
p2105
ag8
aS'variable_1'
p2106
ag8
aS'variable_6'
p2107
ag37
ag55
ag8
ag93
ag8
aS'variable_40'
p2108
ag13
ag18
aS'func_164'
p2109
ag4
aS'variable_11'
p2110
ag8
aS'variable_49'
p2111
ag8
aS'variable_1'
p2112
ag8
aS'variable_6'
p2113
ag37
ag55
ag8
ag93
ag8
aS'variable_40'
p2114
ag13
ag18
aS'func_165'
p2115
ag4
aS'variable_11'
p2116
ag8
aS'variable_50'
p2117
ag8
aS'variable_1'
p2118
ag8
aS'variable_6'
p2119
ag37
ag55
ag8
ag93
ag8
aS'variable_40'
p2120
ag13
ag18
aS'func_166'
p2121
ag4
ag164
ag8
aS'Transaction'
p2122
aS'Class'
p2123
ag173
ag175
ag177
ag4
ag175
ag176
ag13
ag164
aS'func_167'
p2124
ag4
aS'variable_32'
p2125
ag8
aS'variable_51'
p2126
ag8
ag164
aS'Undefined'
p2127
ag164
ag13
aS'variable_32'
p2128
ag13
aS'func_168'
p2129
ag4
aS'variable_11'
p2130
ag8
aS'variable_41'
p2131
ag8
aS'variable_1'
p2132
ag8
aS'variable_6'
p2133
ag8
ag93
ag8
aS'variable_40'
p2134
ag13
ag18
aS'func_169'
p2135
ag4
aS'variable_11'
p2136
ag8
aS'variable_42'
p2137
ag8
aS'variable_1'
p2138
ag8
aS'variable_6'
p2139
ag8
ag93
ag8
aS'variable_40'
p2140
ag13
ag18
aS'func_170'
p2141
ag4
aS'variable_11'
p2142
ag8
aS'variable_43'
p2143
ag8
aS'variable_1'
p2144
ag8
aS'variable_6'
p2145
ag37
ag93
ag8
ag87
ag8
aS'variable_44'
p2146
ag13
ag18
aS'func_171'
p2147
ag4
aS'variable_11'
p2148
ag8
aS'variable_45'
p2149
ag8
aS'variable_1'
p2150
ag8
aS'variable_6'
p2151
ag37
ag93
ag8
ag87
ag8
aS'variable_44'
p2152
ag13
ag18
aS'func_172'
p2153
ag4
aS'variable_12'
p2154
ag8
ag164
ag8
aS'PDU'
p2155
ag173
aS'Result'
p2156
ag4
ag175
ag176
ag13
ag164
ag8
aS'variable_52'
p2157
ag13
ag18
aS'func_173'
p2158
ag4
aS'variable_11'
p2159
ag8
aS'variable_53'
p2160
ag8
aS'variable_1'
p2161
ag8
aS'variable_6'
p2162
ag8
ag93
ag8
aS'variable_44'
p2163
ag13
ag18
aS'func_174'
p2164
ag4
aS'variable_11'
p2165
ag8
aS'variable_42'
p2166
ag8
aS'variable_1'
p2167
ag8
aS'variable_6'
p2168
ag8
ag93
ag8
aS'variable_40'
p2169
ag13
ag18
aS'func_175'
p2170
ag4
aS'variable_11'
p2171
ag8
aS'variable_43'
p2172
ag8
aS'variable_1'
p2173
ag8
aS'variable_6'
p2174
ag37
ag93
ag8
ag87
ag8
aS'variable_44'
p2175
ag13
ag18
aS'func_176'
p2176
ag4
aS'variable_11'
p2177
ag8
aS'variable_45'
p2178
ag8
aS'variable_1'
p2179
ag8
aS'variable_6'
p2180
ag37
ag93
ag8
ag87
ag8
aS'variable_44'
p2181
ag13
ag18
aS'func_177'
p2182
ag4
aS'variable_12'
p2183
ag8
ag164
ag8
aS'PDU'
p2184
ag173
aS'ACK'
p2185
ag4
ag175
ag176
ag13
ag164
ag8
aS'variable_54'
p2186
ag13
ag18
aS'variable_55'
p2187
ag16
aS'func_178'
p2188
ag4
aS'variable_1'
p2189
ag8
aS'variable_6'
p2190
ag13
ag43
aS'0x07'
p2191
ag18
aS'func_179'
p2192
ag4
aS'variable_11'
p2193
ag8
aS'variable_56'
p2194
ag8
aS'variable_1'
p2195
ag8
aS'variable_6'
p2196
ag8
ag93
ag8
aS'variable_40'
p2197
ag13
ag18
aS'func_180'
p2198
ag4
aS'variable_11'
p2199
ag8
aS'variable_43'
p2200
ag8
aS'variable_1'
p2201
ag8
aS'variable_6'
p2202
ag37
ag93
ag8
ag87
ag8
aS'variable_44'
p2203
ag13
ag18
aS'func_181'
p2204
ag4
aS'variable_11'
p2205
ag8
aS'variable_45'
p2206
ag8
aS'variable_1'
p2207
ag8
aS'variable_6'
p2208
ag37
ag93
ag8
ag87
ag8
aS'variable_44'
p2209
ag13
ag18
aS'if'
p2210
ag4
aS'variable_55'
p2211
aS'=='
p2212
aS'variable_57'
p2213
ag13
aS'guint8'
p2214
aS'variable_58'
p2215
ag16
aS'func_182'
p2216
ag4
aS'variable_1'
p2217
ag8
aS'variable_6'
p2218
ag37
ag55
ag13
ag18
aS'func_183'
p2219
ag4
aS'variable_11'
p2220
ag8
aS'variable_59'
p2221
ag8
aS'variable_1'
p2222
ag8
aS'variable_6'
p2223
ag37
ag55
ag8
ag93
ag8
aS'variable_40'
p2224
ag13
ag18
aS'if'
p2225
ag4
aS'variable_55'
p2226
aS'=='
p2227
aS'variable_60'
p2228
ag13
aS'guint8'
p2229
aS'variable_58'
p2230
ag16
aS'func_184'
p2231
ag4
aS'variable_1'
p2232
ag8
aS'variable_6'
p2233
ag37
ag55
ag13
ag18
aS'func_185'
p2234
ag4
aS'variable_11'
p2235
ag8
aS'variable_61'
p2236
ag8
aS'variable_1'
p2237
ag8
aS'variable_6'
p2238
ag37
ag55
ag8
ag93
ag8
aS'variable_40'
p2239
ag13
ag18
aS'func_186'
p2240
ag4
aS'variable_11'
p2241
ag8
aS'variable_41'
p2242
ag8
aS'variable_1'
p2243
ag8
aS'variable_6'
p2244
ag8
ag93
ag8
aS'variable_40'
p2245
ag13
ag18
aS'func_187'
p2246
ag4
aS'variable_11'
p2247
ag8
aS'variable_42'
p2248
ag8
aS'variable_1'
p2249
ag8
aS'variable_6'
p2250
ag8
ag93
ag8
aS'variable_40'
p2251
ag13
ag18
aS'func_188'
p2252
ag4
aS'variable_11'
p2253
ag8
aS'variable_43'
p2254
ag8
aS'variable_1'
p2255
ag8
aS'variable_6'
p2256
ag37
ag93
ag8
ag87
ag8
aS'variable_44'
p2257
ag13
ag18
aS'func_189'
p2258
ag4
aS'variable_11'
p2259
ag8
aS'variable_45'
p2260
ag8
aS'variable_1'
p2261
ag8
aS'variable_6'
p2262
ag37
ag93
ag8
ag87
ag8
aS'variable_44'
p2263
ag13
ag18
aS'func_190'
p2264
ag4
aS'variable_11'
p2265
ag8
aS'variable_62'
p2266
ag8
aS'variable_1'
p2267
ag8
aS'variable_6'
p2268
ag37
ag55
ag8
ag93
ag8
aS'variable_40'
p2269
ag13
ag18
aS'func_191'
p2270
ag4
ag164
ag8
aS'Packet'
p2271
aS'Sequence'
p2272
aS'Number'
p2273
ag173
ag175
ag176
ag164
aS'variable_63'
p2274
ag8
aS'variable_33'
p2275
ag13
aS'func_192'
p2276
ag4
aS'variable_11'
p2277
ag8
aS'variable_41'
p2278
ag8
aS'variable_1'
p2279
ag8
aS'variable_6'
p2280
ag8
ag93
ag8
aS'variable_40'
p2281
ag13
ag18
aS'func_193'
p2282
ag4
aS'variable_11'
p2283
ag8
aS'variable_42'
p2284
ag8
aS'variable_1'
p2285
ag8
aS'variable_6'
p2286
ag8
ag93
ag8
aS'variable_40'
p2287
ag13
ag18
aS'func_194'
p2288
ag4
aS'variable_11'
p2289
ag8
aS'variable_43'
p2290
ag8
aS'variable_1'
p2291
ag8
aS'variable_6'
p2292
ag37
ag93
ag8
ag87
ag8
aS'variable_44'
p2293
ag13
ag18
aS'func_195'
p2294
ag4
aS'variable_11'
p2295
ag8
aS'variable_45'
p2296
ag8
aS'variable_1'
p2297
ag8
aS'variable_6'
p2298
ag37
ag93
ag8
ag87
ag8
aS'variable_44'
p2299
ag13
ag18
aS'func_196'
p2300
ag4
aS'variable_11'
p2301
ag8
aS'variable_62'
p2302
ag8
aS'variable_1'
p2303
ag8
aS'variable_6'
p2304
ag37
ag55
ag8
ag93
ag8
aS'variable_40'
p2305
ag13
ag18
aS'func_197'
p2306
ag4
ag164
ag8
aS'Packet'
p2307
aS'Sequence'
p2308
aS'Number'
p2309
ag173
ag175
ag176
ag164
aS'variable_64'
p2310
ag8
aS'variable_33'
p2311
ag13
aS'func_198'
p2312
ag4
aS'variable_11'
p2313
ag8
aS'variable_42'
p2314
ag8
aS'variable_1'
p2315
ag8
aS'variable_6'
p2316
ag8
ag93
ag8
aS'variable_40'
p2317
ag13
ag18
aS'func_199'
p2318
ag4
aS'variable_11'
p2319
ag8
aS'variable_43'
p2320
ag8
aS'variable_1'
p2321
ag8
aS'variable_6'
p2322
ag37
ag93
ag8
ag87
ag8
aS'variable_44'
p2323
ag13
ag18
aS'func_200'
p2324
ag4
aS'variable_11'
p2325
ag8
aS'variable_45'
p2326
ag8
aS'variable_1'
p2327
ag8
aS'variable_6'
p2328
ag37
ag93
ag8
ag87
ag8
aS'variable_44'
p2329
ag13
ag18
aS'func_201'
p2330
ag4
aS'variable_11'
p2331
ag8
aS'variable_65'
p2332
ag8
aS'variable_1'
p2333
ag8
aS'variable_6'
p2334
ag37
ag55
ag8
ag93
ag8
aS'variable_40'
p2335
ag13
ag18
aS'func_202'
p2336
ag4
aS'variable_11'
p2337
ag8
aS'variable_62'
p2338
ag8
aS'variable_1'
p2339
ag8
aS'variable_6'
p2340
ag37
ag51
ag37
aS'variable_19'
p2341
ag8
ag93
ag8
aS'variable_40'
p2342
ag13
ag18
aS'func_203'
p2343
ag4
ag164
ag8
aS'Missing'
p2344
aS'Packets'
p2345
ag173
ag175
ag176
ag164
aS'variable_66'
p2346
ag8
aS'variable_34'
p2347
ag13
aS'if'
p2348
ag4
aS'variable_21'
p2349
ag13
aS'func_204'
p2350
ag4
aS'variable_12'
p2351
ag8
ag164
ag8
aS'Retransmission'
p2352
ag164
ag13
ag18
aS'fprintf'
p2353
ag4
aS'variable_36'
p2354
ag8
ag164
aS'dissect_wtp'
p2355
ag173
ag4
ag51
ag13
aS'tree'
p2356
aS'was'
p2357
ag175
ag181
ag184
ag185
ag164
ag8
aS'variable_5'
p2358
ag13
ag18
aS'if'
p2359
ag4
aS'variable_20'
p2360
ag13
aS'variable_67'
p2361
ag16
aS'func_205'
p2362
ag4
aS'variable_1'
p2363
ag8
aS'variable_6'
p2364
ag37
aS'variable_35'
p2365
ag37
aS'variable_68'
p2366
ag13
ag18
aS'variable_69'
p2367
ag16
aS'variable_67'
p2368
ag43
aS'0x80'
p2369
ag18
aS'if'
p2370
ag4
aS'variable_67'
p2371
ag43
aS'0x04'
p2372
ag13
aS'variable_70'
p2373
ag16
ag87
ag37
aS'func_206'
p2374
ag4
aS'variable_1'
p2375
ag8
aS'variable_6'
p2376
ag37
aS'variable_35'
p2377
ag37
aS'variable_68'
p2378
ag37
ag93
ag13
ag18
aS'variable_70'
p2379
ag16
ag93
ag37
ag4
aS'variable_67'
p2380
ag43
aS'0x03'
p2381
ag13
ag18
aS'if'
p2382
ag4
aS'variable_5'
p2383
ag13
aS'variable_71'
p2384
ag16
aS'func_207'
p2385
ag4
aS'variable_1'
p2386
ag8
aS'variable_6'
p2387
ag37
aS'variable_35'
p2388
ag37
aS'variable_68'
p2389
ag8
aS'variable_70'
p2390
ag8
aS'variable_70'
p2391
ag13
ag18
aS'func_208'
p2392
ag4
aS'variable_11'
p2393
ag8
aS'variable_71'
p2394
ag13
ag18
aS'variable_68'
p2395
aS'+='
p2396
aS'variable_70'
p2397
ag18
aS'while'
p2398
ag4
aS'variable_69'
p2399
ag13
aS'if'
p2400
ag4
aS'variable_5'
p2401
ag13
aS'func_209'
p2402
ag4
aS'variable_12'
p2403
ag8
aS'variable_35'
p2404
ag37
aS'variable_68'
p2405
ag13
ag18
aS'fprintf'
p2406
ag4
aS'variable_36'
p2407
ag8
ag164
aS'dissect_wtp'
p2408
ag173
aS'cbHeader'
p2409
ag16
ag175
ag179
ag184
ag185
ag164
ag8
aS'variable_35'
p2410
ag13
ag18
aS'variable_72'
p2411
ag16
aS'variable_6'
p2412
ag37
aS'variable_35'
p2413
ag37
aS'variable_68'
p2414
ag18
aS'variable_73'
p2415
ag16
aS'func_210'
p2416
ag4
aS'variable_1'
p2417
ag8
aS'variable_72'
p2418
ag13
ag18
aS'if'
p2419
ag4
ag4
aS'variable_73'
p2420
ag112
ag16
ag17
ag13
aS'&&'
p2421
ag114
ag4
ag4
aS'variable_22'
p2422
aS'=='
p2423
aS'variable_54'
p2424
ag13
aS'||'
p2425
ag4
aS'variable_22'
p2426
aS'=='
p2427
aS'variable_66'
p2428
ag13
aS'||'
p2429
ag4
aS'variable_22'
p2430
aS'=='
p2431
aS'variable_74'
p2432
ag13
ag13
ag13
aS'if'
p2433
ag4
ag4
ag4
aS'variable_22'
p2434
aS'=='
p2435
aS'variable_63'
p2436
ag13
aS'||'
p2437
ag4
aS'variable_22'
p2438
aS'=='
p2439
aS'variable_64'
p2440
ag13
aS'||'
p2441
ag4
ag4
ag4
aS'variable_22'
p2442
aS'=='
p2443
aS'variable_75'
p2444
ag13
aS'||'
p2445
ag4
aS'variable_22'
p2446
aS'=='
p2447
aS'variable_52'
p2448
ag13
ag13
aS'&&'
p2449
ag4
ag114
aS'variable_30'
p2450
ag13
ag13
ag13
aS'&&'
p2451
aS'func_211'
p2452
ag4
aS'variable_1'
p2453
ag8
aS'variable_72'
p2454
ag8
aS'variable_73'
p2455
ag13
ag13
aS'gboolean'
p2456
aS'variable_76'
p2457
ag16
aS'variable_3'
p2458
aS'->'
p2459
aS'variable_77'
p2460
ag18
aS'variable_3'
p2461
aS'->'
p2462
aS'variable_77'
p2463
ag16
aS'variable_78'
p2464
ag18
aS'variable_79'
p2465
ag16
aS'func_212'
p2466
ag4
aS'variable_1'
p2467
ag8
aS'variable_72'
p2468
ag8
aS'variable_3'
p2469
ag8
aS'variable_31'
p2470
ag8
aS'variable_80'
p2471
ag8
aS'variable_33'
p2472
ag8
aS'variable_73'
p2473
ag8
ag114
aS'variable_30'
p2474
ag13
ag18
aS'variable_81'
p2475
ag16
aS'func_213'
p2476
ag4
aS'variable_1'
p2477
ag8
aS'variable_72'
p2478
ag8
aS'variable_3'
p2479
ag8
ag164
aS'Reassembled'
p2480
aS'WTP'
p2481
ag164
ag8
aS'variable_79'
p2482
ag8
ag43
aS'variable_82'
p2483
ag8
aS'NULL'
p2484
ag8
aS'variable_11'
p2485
ag13
ag18
aS'printf'
p2486
ag4
ag164
aS'WTP'
p2487
ag173
aS'Packet'
p2488
ag175
ag176
ag175
ag177
aS'->'
p2489
ag175
ag179
ag173
aS'wsp_tvb'
p2490
ag16
ag175
ag181
ag8
aS'fd_wtp'
p2491
ag16
ag175
ag181
ag8
aS'frame'
p2492
ag16
ag175
ag176
ag184
ag185
ag164
ag8
aS'variable_3'
p2493
aS'->'
p2494
aS'variable_23'
p2495
aS'->'
p2496
aS'variable_24'
p2497
ag8
aS'variable_79'
p2498
ag192
ag164
aS'Reassembled'
p2499
ag164
ag173
ag164
aS'Not'
p2500
aS'reassembled'
p2501
ag164
ag8
aS'variable_79'
p2502
ag192
aS'variable_79'
p2503
aS'->'
p2504
aS'variable_83'
p2505
ag173
ag200
ag93
ag8
aS'variable_81'
p2506
ag8
aS'variable_79'
p2507
ag13
ag18
aS'if'
p2508
ag4
aS'variable_79'
p2509
ag13
aS'variable_83'
p2510
ag16
aS'variable_79'
p2511
aS'->'
p2512
aS'variable_83'
p2513
ag18
aS'if'
p2514
ag4
aS'variable_3'
p2515
aS'->'
p2516
aS'variable_23'
p2517
aS'->'
p2518
aS'variable_24'
p2519
aS'=='
p2520
aS'variable_83'
p2521
ag13
aS'func_214'
p2522
ag4
aS'variable_84'
p2523
ag8
aS'variable_81'
p2524
ag8
aS'variable_3'
p2525
ag8
aS'variable_5'
p2526
ag13
ag18
aS'if'
p2527
ag4
aS'func_215'
p2528
ag4
aS'variable_3'
p2529
aS'->'
p2530
aS'variable_17'
p2531
ag8
aS'variable_18'
p2532
ag13
ag13
aS'func_216'
p2533
ag4
aS'variable_3'
p2534
aS'->'
p2535
aS'variable_17'
p2536
ag8
aS'variable_18'
p2537
ag8
ag164
ag175
ag177
ag4
aS'WTP'
p2538
aS'payload'
p2539
aS'reassembled'
p2540
aS'in'
p2541
aS'packet'
p2542
ag175
ag176
ag13
ag164
ag8
aS'variable_27'
p2543
ag8
aS'variable_79'
p2544
aS'->'
p2545
aS'variable_83'
p2546
ag13
ag18
aS'if'
p2547
ag4
aS'variable_5'
p2548
ag13
aS'func_217'
p2549
ag4
aS'variable_11'
p2550
ag8
aS'variable_1'
p2551
ag8
aS'variable_72'
p2552
ag8
ag200
ag93
ag8
ag164
aS'Payload'
p2553
ag164
ag13
ag18
aS'if'
p2554
ag4
aS'func_218'
p2555
ag4
aS'variable_3'
p2556
aS'->'
p2557
aS'variable_17'
p2558
ag8
aS'variable_18'
p2559
ag13
ag13
aS'func_219'
p2560
ag4
aS'variable_3'
p2561
aS'->'
p2562
aS'variable_17'
p2563
ag8
aS'variable_18'
p2564
ag8
ag164
ag175
ag177
ag4
aS'Unreassembled'
p2565
aS'fragment'
p2566
ag175
ag176
ag13
ag164
ag8
aS'variable_27'
p2567
ag8
aS'variable_33'
p2568
ag13
ag18
aS'if'
p2569
ag4
aS'variable_5'
p2570
ag13
aS'func_220'
p2571
ag4
aS'variable_11'
p2572
ag8
aS'variable_1'
p2573
ag8
aS'variable_72'
p2574
ag8
ag200
ag93
ag8
ag164
aS'Payload'
p2575
ag164
ag13
ag18
aS'variable_3'
p2576
aS'->'
p2577
aS'variable_77'
p2578
ag16
aS'variable_76'
p2579
ag18
aS'if'
p2580
ag4
ag4
ag4
aS'variable_22'
p2581
aS'=='
p2582
aS'variable_75'
p2583
ag13
aS'||'
p2584
ag4
aS'variable_22'
p2585
aS'=='
p2586
aS'variable_52'
p2587
ag13
ag13
aS'&&'
p2588
ag4
aS'variable_30'
p2589
ag13
ag13
aS'variable_81'
p2590
ag16
aS'func_221'
p2591
ag4
aS'variable_1'
p2592
ag8
aS'variable_72'
p2593
ag13
ag18
aS'func_222'
p2594
ag4
aS'variable_84'
p2595
ag8
aS'variable_81'
p2596
ag8
aS'variable_3'
p2597
ag8
aS'variable_5'
p2598
ag13
ag18
aS'if'
p2599
ag4
aS'func_223'
p2600
ag4
aS'variable_3'
p2601
aS'->'
p2602
aS'variable_17'
p2603
ag8
aS'variable_18'
p2604
ag13
ag13
aS'func_224'
p2605
ag4
aS'variable_3'
p2606
aS'->'
p2607
aS'variable_17'
p2608
ag8
aS'variable_18'
p2609
ag8
aS'variable_27'
p2610
ag13
ag18
aS'if'
p2611
ag4
aS'func_225'
p2612
ag4
aS'variable_3'
p2613
aS'->'
p2614
aS'variable_17'
p2615
ag8
aS'variable_18'
p2616
ag13
ag13
aS'func_226'
p2617
ag4
aS'variable_3'
p2618
aS'->'
p2619
aS'variable_17'
p2620
ag8
aS'variable_18'
p2621
ag8
aS'variable_27'
p2622
ag13
ag18
aS'variable_6'
p2623
aS'+='
p2624
aS'variable_9'
p2625
ag37
aS'variable_10'
p2626
ag18
aaa(lp2627
I0
aI0
aI0
aI0
aI0
aI0
aI0
aa(lp2628
I199
aI200
aI165
aI250
aI201
aI149
aI123
aa(lp2629
(lp2630
S'main'
p2631
aa(lp2632
g2631
aa(lp2633
g2631
aa(lp2634
g2631
aa(lp2635
g2631
aa(lp2636
g2631
aa(lp2637
g2631
aaa(lp2638
S'72 ../data/NVD/CVE_2012_6061_PATCHED_dissect_wtp_common.c dataOffset = offCur + cbHeader + vHeader 359'
p2639
aS'73 ../data/NVD/CVE_2012_6061_PATCHED_dissect_wtp_common.c tmp_tvb = tvb_new_subset ( tvb , offCur + cbHeader + vHeader , tpiLen , tpiLen ) 326'
p2640
aS'74 ../data/NVD/CVE_2012_6061_PATCHED_dissect_wtp_common.c tpiLen = 2 + tvb_get_guint8 ( tvb , offCur + cbHeader + vHeader + 1 ) 320'
p2641
aS'76 ../data/NVD/CVE_2012_6061_PATCHED_dissect_wtp_common.c returned_length = g_snprintf ( & szInfo [ str_index ] , SZINFO_SIZE - str_index , " R" ) 150'
p2642
aS'77 ../data/NVD/CVE_2012_6061_PATCHED_dissect_wtp_common.c returned_length = g_snprintf ( & szInfo [ str_index ] , SZINFO_SIZE - str_index , " (%u)" , psn ) 118'
p2643
aS'78 ../data/NVD/CVE_2012_6061_PATCHED_dissect_wtp_common.c returned_length = g_snprintf ( & szInfo [ str_index ] , SZINFO_SIZE - str_index , " Class %d" , clsTransaction ) 106'
p2644
aS'79 ../data/NVD/CVE_2012_6061_PATCHED_dissect_wtp_common.c wtp_tvb = tvb_new_subset ( tvb , offCur + c_fieldlen , c_pdulen , c_pdulen ) 73'
p2645
aa.