(lp0
(lp1
(lp2
S'variable_0'
p3
aS':'
p4
ag4
aS'func_0'
p5
aS'('
p6
aS'variable_1'
p7
aS'&'
p8
aS'variable_2'
p9
aS','
p10
aS'variable_3'
p11
aS'*'
p12
aS'variable_4'
p13
ag8
aS'variable_5'
p14
ag8
aS'variable_6'
p15
aS')'
p16
aS'int32_t'
p17
aS'variable_7'
p18
aS'='
p19
aS'func_1'
p20
ag6
ag16
aS';'
p21
aS'if'
p22
ag6
aS'!'
p23
aS'variable_7'
p24
ag16
aS'const'
p25
aS'nsStyleText'
p26
ag12
aS'variable_8'
p27
ag19
aS'func_2'
p28
ag6
ag16
ag21
aS'bool'
p29
aS'variable_9'
p30
ag19
aS'variable_2'
p31
aS'.'
p32
aS'func_3'
p33
ag6
ag16
ag21
aS'const'
p34
aS'nsTextFragment'
p35
ag12
aS'variable_10'
p36
ag19
aS'variable_11'
p37
aS'->'
p38
aS'func_4'
p39
ag6
ag16
ag21
aS'int32_t'
p40
aS'variable_12'
p41
ag19
aS'variable_7'
p42
ag21
aS'int32_t'
p43
aS'variable_13'
p44
ag19
aS'func_5'
p45
ag6
ag16
ag21
aS'int32_t'
p46
aS'variable_14'
p47
ag19
aS'-'
p48
aS'1'
p49
ag21
aS'int32_t'
p50
aS'variable_15'
p51
ag19
ag48
ag49
ag21
aS'variable_16'
p52
ag12
aS'variable_17'
p53
ag19
aS'variable_18'
p54
ag21
aS'if'
p55
ag6
aS'variable_8'
p56
aS'->'
p57
aS'func_6'
p58
ag6
ag16
ag16
aS'variable_19'
p59
aS'<'
p60
aS'variable_16'
p61
ag12
aS'>'
p62
aS'variable_11'
p63
aS'->'
p64
aS'func_7'
p65
ag6
aS'variable_20'
p66
ag4
ag4
aS'variable_21'
p67
ag16
aS'if'
p68
ag6
aS'variable_17'
p69
aS'&&'
p70
aS'variable_17'
p71
aS'->'
p72
aS'variable_22'
p73
ag60
ag19
aS'variable_13'
p74
aS'&&'
p75
ag6
aS'variable_17'
p76
aS'->'
p77
aS'variable_23'
p78
aS'=='
p79
ag48
ag49
aS'||'
p80
aS'variable_17'
p81
aS'->'
p82
aS'variable_23'
p83
ag62
ag19
aS'variable_13'
p84
ag16
ag16
aS'variable_15'
p85
ag19
aS'variable_17'
p86
aS'->'
p87
aS'variable_23'
p88
ag21
aS'variable_15'
p89
ag19
aS'func_8'
p90
ag6
aS'variable_10'
p91
ag10
aS'variable_13'
p92
ag10
aS'variable_11'
p93
aS'->'
p94
aS'func_9'
p95
ag6
ag16
ag48
aS'variable_13'
p96
ag10
aS"'"
p97
aS'\\'
p98
aS'n'
p99
ag97
ag16
ag21
aS'if'
p100
ag6
aS'variable_15'
p101
ag60
aS'variable_13'
p102
aS'+'
p103
aS'variable_12'
p104
ag16
aS'variable_14'
p105
ag19
aS'variable_15'
p106
ag21
aS'if'
p107
ag6
aS'variable_14'
p108
ag62
ag19
aS'0'
p109
ag16
aS'variable_12'
p110
ag19
aS'variable_14'
p111
ag103
ag49
ag48
aS'variable_13'
p112
ag21
aS'if'
p113
ag6
ag6
aS'variable_9'
p114
aS'&&'
p115
ag23
aS'variable_8'
p116
aS'->'
p117
aS'func_10'
p118
ag6
ag16
ag16
aS'||'
p119
ag6
aS'func_11'
p120
ag6
ag16
ag8
aS'variable_24'
p121
ag16
ag16
aS'int32_t'
p122
aS'variable_25'
p123
ag19
aS'variable_14'
p124
ag62
ag19
ag109
aS'?'
p125
aS'variable_12'
p126
ag48
ag49
ag4
aS'variable_12'
p127
ag21
aS'int32_t'
p128
aS'variable_26'
p129
ag19
aS'func_12'
p130
ag6
aS'variable_10'
p131
ag10
aS'variable_13'
p132
ag10
aS'variable_25'
p133
ag10
ag49
ag16
ag21
aS'if'
p134
ag6
aS'variable_26'
p135
ag16
aS'variable_13'
p136
aS'+='
p137
aS'variable_26'
p138
ag21
aS'variable_12'
p139
aS'-='
p140
aS'variable_26'
p141
ag21
aS'if'
p142
ag6
aS'variable_2'
p143
ag32
aS'func_13'
p144
ag6
ag16
aS'||'
p145
aS'variable_2'
p146
ag32
aS'func_14'
p147
ag6
ag16
ag16
aS'if'
p148
ag6
aS'variable_2'
p149
ag32
aS'func_15'
p150
ag6
ag16
ag16
aS'if'
p151
ag6
aS'variable_27'
p152
ag16
aS'int32_t'
p153
aS'variable_28'
p154
ag19
aS'variable_12'
p155
ag21
aS'if'
p156
ag6
aS'variable_2'
p157
ag32
aS'func_16'
p158
ag6
ag16
ag16
aS'if'
p159
ag6
aS'variable_14'
p160
ag62
ag19
ag109
ag16
aS'variable_28'
p161
ag19
aS'func_17'
p162
ag6
aS'variable_28'
p163
ag10
aS'variable_12'
p164
ag48
ag49
ag16
ag21
aS'variable_28'
p165
ag19
ag109
ag21
aS'variable_12'
p166
ag19
aS'variable_28'
p167
ag21
aS'if'
p168
ag6
ag23
aS'variable_27'
p169
ag16
aS'PropertyProvider'
p170
aS'func_18'
p171
ag6
aS'variable_27'
p172
ag10
aS'variable_8'
p173
ag10
aS'variable_10'
p174
ag10
aS'variable_29'
p175
ag10
aS'variable_30'
p176
ag10
aS'variable_12'
p177
ag10
aS'variable_31'
p178
ag10
aS'variable_32'
p179
ag10
aS'variable_33'
p180
ag4
ag4
aS'variable_34'
p181
ag16
ag21
aS'int32_t'
p182
aS'variable_35'
p183
ag19
aS'variable_12'
p184
ag21
aS'int32_t'
p185
aS'variable_36'
p186
ag19
aS'variable_2'
p187
ag32
aS'func_19'
p188
ag6
aS'variable_11'
p189
ag16
ag21
aS'if'
p190
ag6
aS'variable_36'
p191
ag62
ag19
aS'variable_13'
p192
ag103
aS'variable_12'
p193
ag16
aS'variable_36'
p194
ag19
ag48
ag49
ag21
aS'if'
p195
ag6
aS'variable_36'
p196
ag62
ag19
ag109
ag16
aS'variable_35'
p197
ag19
aS'variable_36'
p198
ag48
aS'variable_13'
p199
ag21
aS'gfxSkipCharsIterator'
p200
aS'end'
p201
ag6
aS'variable_37'
p202
ag32
aS'func_20'
p203
ag6
ag16
ag16
ag21
aS'int32_t'
p204
aS'variable_38'
p205
ag19
aS'variable_39'
p206
ag32
aS'func_21'
p207
ag6
ag16
ag48
aS'variable_13'
p208
ag21
aS'if'
p209
ag6
aS'variable_38'
p210
ag62
ag19
aS'variable_35'
p211
ag16
aS'variable_38'
p212
ag19
aS'variable_35'
p213
ag21
aS'int32_t'
p214
aS'variable_40'
p215
ag19
aS'variable_13'
p216
ag103
aS'variable_38'
p217
ag48
aS'func_22'
p218
ag6
ag16
ag21
aS'variable_6'
p219
ag19
aS'variable_40'
p220
aS'=='
p221
aS'variable_7'
p222
ag125
aS'variable_41'
p223
ag4
aS'variable_42'
p224
ag21
aS'if'
p225
ag6
aS'variable_40'
p226
ag62
ag109
aS'&&'
p227
aS'variable_43'
p228
ag103
aS'variable_40'
p229
ag48
ag49
aS'=='
p230
aS'variable_14'
p231
ag16
aS'variable_6'
p232
ag19
aS'func_23'
p233
ag6
aS'variable_6'
p234
ag16
ag21
aS'variable_6'
p235
ag19
aS'func_24'
p236
ag6
aS'variable_6'
p237
ag16
ag21
aS'variable_6'
p238
aS'|'
p239
ag19
aS'variable_44'
p240
ag21
aS'if'
p241
ag6
aS'variable_40'
p242
ag60
aS'variable_7'
p243
aS'&&'
p244
aS'variable_8'
p245
aS'->'
p246
aS'func_25'
p247
ag6
ag16
aS'&&'
p248
ag6
aS'variable_15'
p249
ag60
ag109
aS'||'
p250
aS'variable_43'
p251
ag103
aS'variable_40'
p252
ag60
ag19
aS'variable_15'
p253
ag16
ag16
aS'if'
p254
ag6
ag23
aS'variable_17'
p255
ag16
aS'variable_17'
p256
ag19
aS'func_26'
p257
ag6
aS'variable_40'
p258
ag10
ag8
aS'variable_2'
p259
ag10
aS'variable_45'
p260
ag16
ag21
aS'printf'
p261
ag6
aS'"'
p262
ag4
aS'desiredSize'
p263
ag19
aS'%'
p264
aS'd'
p265
ag10
ag264
ag265
ag6
aS'b'
p266
ag19
ag264
ag265
ag16
aS'status'
p267
ag19
ag264
aS'x'
p268
ag98
ag99
ag262
ag10
aS'variable_46'
p269
ag32
aS'variable_47'
p270
ag10
aS'variable_46'
p271
ag32
aS'variable_48'
p272
ag10
aS'variable_46'
p273
ag32
aS'variable_49'
p274
ag10
aS'variable_6'
p275
ag16
ag21
aaa(lp276
I0
aa(lp277
I424
aa(lp278
(lp279
S'main'
p280
aaa(lp281
S'209 ../data/NVD/CVE_2013_0771_PATCHED_nsTextFrame__ReflowText.c int32_t contentLength = offset + charsFit - GetContentOffset ( ) ; 369'
p282
aa.