(lp0
(lp1
(lp2
S'func_0'
p3
aS'('
p4
aS'variable_0'
p5
aS'*'
p6
aS'variable_1'
p7
aS','
p8
aS'variable_2'
p9
ag6
aS'variable_3'
p10
ag8
aS'variable_4'
p11
ag6
aS'variable_5'
p12
aS')'
p13
aS'int'
p14
aS'variable_6'
p15
aS'='
p16
aS'0'
p17
aS';'
p18
aS'unsigned'
p19
aS'char'
p20
aS'variable_7'
p21
ag18
aS'unsigned'
p22
aS'char'
p23
aS'variable_8'
p24
ag18
aS'guint'
p25
aS'variable_9'
p26
ag16
ag17
ag18
aS'guint'
p27
aS'variable_10'
p28
ag16
ag17
ag18
aS'char'
p29
aS'variable_11'
p30
ag18
aS'int'
p31
aS'variable_12'
p32
ag18
aS'variable_7'
p33
ag16
aS'func_1'
p34
ag4
aS'variable_1'
p35
ag8
aS'variable_6'
p36
aS'+'
p37
ag17
ag13
ag18
aS'if'
p38
ag4
aS'variable_7'
p39
aS'=='
p40
ag17
ag13
aS'variable_8'
p41
ag16
aS'variable_7'
p42
aS'&'
p43
aS'0x80'
p44
ag18
aS'variable_11'
p45
ag16
aS'func_2'
p46
ag4
aS'variable_7'
p47
ag13
ag18
aS'switch'
p48
ag4
aS'variable_11'
p49
ag13
aS'variable_9'
p50
ag16
aS'4'
p51
ag18
aS'variable_9'
p52
ag16
ag51
ag18
aS'variable_9'
p53
ag16
ag51
ag18
aS'variable_9'
p54
ag16
aS'3'
p55
ag18
aS'variable_9'
p56
ag16
ag55
ag18
aS'variable_13'
p57
ag16
aS'func_3'
p58
ag4
aS'variable_1'
p59
ag8
aS'variable_6'
p60
ag37
ag55
ag13
ag18
aS'variable_9'
p61
ag16
aS'variable_13'
p62
ag37
ag51
ag18
aS'if'
p63
ag4
aS'variable_8'
p64
ag13
aS'unsigned'
p65
aS'char'
p66
aS'variable_14'
p67
ag18
aS'unsigned'
p68
aS'char'
p69
aS'variable_15'
p70
ag18
aS'unsigned'
p71
aS'char'
p72
aS'variable_16'
p73
ag18
aS'variable_10'
p74
ag16
ag17
ag18
aS'variable_15'
p75
ag16
aS'func_4'
p76
ag4
aS'variable_1'
p77
ag8
aS'variable_6'
p78
ag37
aS'variable_9'
p79
ag37
aS'variable_10'
p80
ag13
ag18
aS'variable_14'
p81
ag16
aS'variable_15'
p82
ag43
aS'0x80'
p83
ag18
aS'if'
p84
ag4
aS'variable_15'
p85
ag43
aS'0x04'
p86
ag13
aS'variable_16'
p87
ag16
aS'2'
p88
ag37
aS'func_5'
p89
ag4
aS'variable_1'
p90
ag8
aS'variable_6'
p91
ag37
aS'variable_9'
p92
ag37
aS'variable_10'
p93
ag37
aS'1'
p94
ag13
ag18
aS'variable_16'
p95
ag16
ag94
ag37
ag4
aS'variable_15'
p96
ag43
aS'0x03'
p97
ag13
ag18
aS'variable_10'
p98
aS'+='
p99
aS'variable_16'
p100
ag18
aS'while'
p101
ag4
aS'variable_14'
p102
ag13
aS'variable_12'
p103
ag16
aS'variable_6'
p104
ag37
aS'variable_9'
p105
ag37
aS'variable_10'
p106
ag18
aS'variable_17'
p107
ag16
aS'func_6'
p108
ag4
aS'variable_1'
p109
ag8
aS'variable_12'
p110
ag13
ag18
aS'if'
p111
ag4
ag4
aS'variable_17'
p112
aS'>'
p113
ag16
ag17
ag13
aS'&&'
p114
aS'!'
p115
ag4
ag4
aS'variable_11'
p116
aS'=='
p117
aS'variable_18'
p118
ag13
aS'||'
p119
ag4
aS'variable_11'
p120
aS'=='
p121
aS'variable_19'
p122
ag13
aS'||'
p123
ag4
aS'variable_11'
p124
aS'=='
p125
aS'variable_20'
p126
ag13
ag13
ag13
aS'if'
p127
ag4
ag4
ag4
aS'variable_11'
p128
aS'=='
p129
aS'variable_21'
p130
ag13
aS'||'
p131
ag4
aS'variable_11'
p132
aS'=='
p133
aS'variable_22'
p134
ag13
aS'||'
p135
ag4
ag4
ag4
aS'variable_11'
p136
aS'=='
p137
aS'variable_23'
p138
ag13
aS'||'
p139
ag4
aS'variable_11'
p140
aS'=='
p141
aS'variable_24'
p142
ag13
ag13
aS'&&'
p143
ag4
ag115
aS'variable_25'
p144
ag13
ag13
ag13
aS'&&'
p145
aS'func_7'
p146
ag4
aS'variable_1'
p147
ag8
aS'variable_12'
p148
ag8
aS'variable_17'
p149
ag13
ag13
aS'variable_26'
p150
ag16
aS'func_8'
p151
ag4
aS'variable_1'
p152
ag8
aS'variable_12'
p153
ag8
aS'variable_3'
p154
ag8
aS'variable_27'
p155
ag8
aS'variable_28'
p156
ag8
aS'variable_29'
p157
ag8
aS'variable_17'
p158
ag8
ag115
aS'variable_25'
p159
ag13
ag18
aS'variable_30'
p160
ag16
aS'func_9'
p161
ag4
aS'variable_1'
p162
ag8
aS'variable_12'
p163
ag8
aS'variable_3'
p164
ag8
aS'"'
p165
aS'Reassembled'
p166
aS'WTP'
p167
ag165
ag8
aS'variable_26'
p168
ag8
ag43
aS'variable_31'
p169
ag8
aS'NULL'
p170
ag8
aS'variable_32'
p171
ag13
ag18
aS'printf'
p172
ag4
ag165
aS'WTP'
p173
aS':'
p174
aS'Packet'
p175
aS'%'
p176
aS'u'
p177
ag176
aS's'
p178
aS'->'
p179
ag176
aS'd'
p180
ag174
aS'wsp_tvb'
p181
ag16
ag176
aS'p'
p182
ag8
aS'fd_wtp'
p183
ag16
ag176
ag182
ag8
aS'frame'
p184
ag16
ag176
ag177
aS'\\'
p185
aS'n'
p186
ag165
ag8
aS'variable_3'
p187
aS'->'
p188
aS'variable_33'
p189
aS'->'
p190
aS'variable_34'
p191
ag8
aS'variable_26'
p192
aS'?'
p193
ag165
aS'Reassembled'
p194
ag165
ag174
ag165
aS'Not'
p195
aS'reassembled'
p196
ag165
ag8
aS'variable_26'
p197
ag193
aS'variable_26'
p198
aS'->'
p199
aS'variable_35'
p200
ag174
aS'-'
p201
ag94
ag8
aS'variable_30'
p202
ag8
aS'variable_26'
p203
ag13
ag18
aS'if'
p204
ag4
aS'variable_26'
p205
ag13
aS'variable_35'
p206
ag16
aS'variable_26'
p207
aS'->'
p208
aS'variable_35'
p209
ag18
aS'if'
p210
ag4
aS'variable_3'
p211
aS'->'
p212
aS'variable_33'
p213
aS'->'
p214
aS'variable_34'
p215
aS'=='
p216
aS'variable_35'
p217
ag13
aS'func_10'
p218
ag4
aS'variable_36'
p219
ag8
aS'variable_30'
p220
ag8
aS'variable_3'
p221
ag8
aS'variable_5'
p222
ag13
ag18
aS'func_11'
p223
ag4
aS'variable_3'
p224
aS'->'
p225
aS'variable_37'
p226
ag8
aS'variable_38'
p227
ag8
ag165
ag176
ag178
ag4
aS'WTP'
p228
aS'payload'
p229
aS'reassembled'
p230
aS'in'
p231
aS'packet'
p232
ag176
ag177
ag13
ag165
ag8
aS'variable_39'
p233
ag8
aS'variable_26'
p234
aS'->'
p235
aS'variable_35'
p236
ag13
ag18
aS'func_12'
p237
ag4
aS'variable_32'
p238
ag8
aS'variable_1'
p239
ag8
aS'variable_12'
p240
ag8
ag201
ag94
ag8
ag165
aS'Payload'
p241
ag165
ag13
ag18
aS'func_13'
p242
ag4
aS'variable_32'
p243
ag8
aS'variable_1'
p244
ag8
aS'variable_12'
p245
ag8
ag201
ag94
ag8
ag165
aS'Payload'
p246
ag165
ag13
ag18
aS'variable_30'
p247
ag16
aS'func_14'
p248
ag4
aS'variable_1'
p249
ag8
aS'variable_12'
p250
ag13
ag18
aS'func_15'
p251
ag4
aS'variable_36'
p252
ag8
aS'variable_30'
p253
ag8
aS'variable_3'
p254
ag8
aS'variable_5'
p255
ag13
ag18
aa(lp256
S'func_0'
p257
ag4
aS'variable_0'
p258
ag6
aS'variable_1'
p259
ag8
aS'variable_2'
p260
ag6
aS'variable_3'
p261
ag8
aS'variable_4'
p262
ag6
aS'variable_5'
p263
ag13
aS'int'
p264
aS'variable_6'
p265
ag16
ag17
ag18
aS'unsigned'
p266
aS'char'
p267
aS'variable_7'
p268
ag18
aS'unsigned'
p269
aS'char'
p270
aS'variable_8'
p271
ag18
aS'guint'
p272
aS'variable_9'
p273
ag16
ag17
ag18
aS'char'
p274
aS'variable_10'
p275
ag18
aS'variable_7'
p276
ag16
aS'func_1'
p277
ag4
aS'variable_1'
p278
ag8
aS'variable_6'
p279
ag37
ag17
ag13
ag18
aS'if'
p280
ag4
aS'variable_7'
p281
aS'=='
p282
ag17
ag13
aS'variable_8'
p283
ag16
aS'variable_7'
p284
ag43
aS'0x80'
p285
ag18
aS'variable_10'
p286
ag16
aS'func_2'
p287
ag4
aS'variable_7'
p288
ag13
ag18
aS'switch'
p289
ag4
aS'variable_10'
p290
ag13
aS'variable_9'
p291
ag16
ag51
ag18
aS'variable_9'
p292
ag16
ag51
ag18
aS'variable_9'
p293
ag16
ag51
ag18
aS'variable_9'
p294
ag16
ag55
ag18
aS'variable_9'
p295
ag16
ag55
ag18
aS'variable_11'
p296
ag16
aS'func_3'
p297
ag4
aS'variable_1'
p298
ag8
aS'variable_6'
p299
ag37
ag55
ag13
ag18
aS'variable_9'
p300
ag16
aS'variable_11'
p301
ag37
ag51
ag18
aS'if'
p302
ag4
aS'variable_8'
p303
ag13
aS'unsigned'
p304
aS'char'
p305
aS'variable_12'
p306
ag18
aS'unsigned'
p307
aS'char'
p308
aS'variable_13'
p309
ag18
aS'unsigned'
p310
aS'char'
p311
aS'variable_14'
p312
ag18
aS'variable_0'
p313
ag6
aS'variable_15'
p314
ag18
aS'variable_16'
p315
ag16
ag17
ag18
aS'variable_13'
p316
ag16
aS'func_4'
p317
ag4
aS'variable_1'
p318
ag8
aS'variable_6'
p319
ag37
aS'variable_9'
p320
ag37
aS'variable_16'
p321
ag13
ag18
aS'variable_12'
p322
ag16
aS'variable_13'
p323
ag43
aS'0x80'
p324
ag18
aS'if'
p325
ag4
aS'variable_13'
p326
ag43
aS'0x04'
p327
ag13
aS'variable_14'
p328
ag16
ag88
ag37
aS'func_5'
p329
ag4
aS'variable_1'
p330
ag8
aS'variable_6'
p331
ag37
aS'variable_9'
p332
ag37
aS'variable_16'
p333
ag37
ag94
ag13
ag18
aS'variable_14'
p334
ag16
ag94
ag37
ag4
aS'variable_13'
p335
ag43
aS'0x03'
p336
ag13
ag18
aS'if'
p337
ag4
aS'variable_5'
p338
ag13
aS'variable_15'
p339
ag16
aS'func_6'
p340
ag4
aS'variable_1'
p341
ag8
aS'variable_6'
p342
ag37
aS'variable_9'
p343
ag37
aS'variable_16'
p344
ag8
aS'variable_14'
p345
ag8
aS'variable_14'
p346
ag13
ag18
aS'func_7'
p347
ag4
aS'variable_17'
p348
ag8
aS'variable_15'
p349
ag13
ag18
aS'variable_16'
p350
aS'+='
p351
aS'variable_14'
p352
ag18
aS'while'
p353
ag4
aS'variable_12'
p354
ag13
aa(lp355
S'func_0'
p356
ag4
aS'variable_0'
p357
ag6
aS'variable_1'
p358
ag8
aS'variable_2'
p359
ag6
aS'variable_3'
p360
ag8
aS'variable_4'
p361
ag6
aS'variable_5'
p362
ag13
aS'int'
p363
aS'variable_6'
p364
ag16
ag17
ag18
aS'unsigned'
p365
aS'char'
p366
aS'variable_7'
p367
ag18
aS'unsigned'
p368
aS'char'
p369
aS'variable_8'
p370
ag18
aS'guint'
p371
aS'variable_9'
p372
ag16
ag17
ag18
aS'char'
p373
aS'variable_10'
p374
ag18
aS'variable_7'
p375
ag16
aS'func_1'
p376
ag4
aS'variable_1'
p377
ag8
aS'variable_6'
p378
ag37
ag17
ag13
ag18
aS'if'
p379
ag4
aS'variable_7'
p380
aS'=='
p381
ag17
ag13
aS'variable_8'
p382
ag16
aS'variable_7'
p383
ag43
aS'0x80'
p384
ag18
aS'variable_10'
p385
ag16
aS'func_2'
p386
ag4
aS'variable_7'
p387
ag13
ag18
aS'switch'
p388
ag4
aS'variable_10'
p389
ag13
aS'variable_9'
p390
ag16
ag51
ag18
aS'variable_9'
p391
ag16
ag51
ag18
aS'variable_9'
p392
ag16
ag51
ag18
aS'variable_9'
p393
ag16
ag55
ag18
aS'variable_9'
p394
ag16
ag55
ag18
aS'variable_11'
p395
ag16
aS'func_3'
p396
ag4
aS'variable_1'
p397
ag8
aS'variable_6'
p398
ag37
ag55
ag13
ag18
aS'variable_9'
p399
ag16
aS'variable_11'
p400
ag37
ag51
ag18
aS'if'
p401
ag4
aS'variable_8'
p402
ag13
aS'unsigned'
p403
aS'char'
p404
aS'variable_12'
p405
ag18
aS'unsigned'
p406
aS'char'
p407
aS'variable_13'
p408
ag18
aS'unsigned'
p409
aS'char'
p410
aS'variable_14'
p411
ag18
aS'variable_15'
p412
ag16
ag17
ag18
aS'variable_13'
p413
ag16
aS'func_4'
p414
ag4
aS'variable_1'
p415
ag8
aS'variable_6'
p416
ag37
aS'variable_9'
p417
ag37
aS'variable_15'
p418
ag13
ag18
aS'variable_12'
p419
ag16
aS'variable_13'
p420
ag43
aS'0x80'
p421
ag18
aS'if'
p422
ag4
aS'variable_13'
p423
ag43
aS'0x04'
p424
ag13
aS'variable_14'
p425
ag16
ag88
ag37
aS'func_5'
p426
ag4
aS'variable_1'
p427
ag8
aS'variable_6'
p428
ag37
aS'variable_9'
p429
ag37
aS'variable_15'
p430
ag37
ag94
ag13
ag18
aS'variable_14'
p431
ag16
ag94
ag37
ag4
aS'variable_13'
p432
ag43
aS'0x03'
p433
ag13
ag18
aS'variable_16'
p434
ag16
aS'func_6'
p435
ag4
aS'variable_1'
p436
ag8
aS'variable_6'
p437
ag37
aS'variable_9'
p438
ag37
aS'variable_15'
p439
ag8
aS'variable_14'
p440
ag8
aS'variable_14'
p441
ag13
ag18
aS'func_7'
p442
ag4
aS'variable_17'
p443
ag8
aS'variable_16'
p444
ag13
ag18
aS'variable_15'
p445
aS'+='
p446
aS'variable_14'
p447
ag18
aS'while'
p448
ag4
aS'variable_12'
p449
ag13
aS'func_8'
p450
ag4
aS'variable_18'
p451
ag8
aS'variable_9'
p452
ag37
aS'variable_15'
p453
ag13
ag18
aS'variable_19'
p454
ag16
aS'variable_6'
p455
ag37
aS'variable_9'
p456
ag37
aS'variable_15'
p457
ag18
aS'variable_20'
p458
ag16
aS'func_9'
p459
ag4
aS'variable_1'
p460
ag8
aS'variable_19'
p461
ag13
ag18
aS'if'
p462
ag4
ag4
aS'variable_20'
p463
ag113
ag16
ag17
ag13
aS'&&'
p464
ag115
ag4
ag4
aS'variable_10'
p465
aS'=='
p466
aS'variable_21'
p467
ag13
aS'||'
p468
ag4
aS'variable_10'
p469
aS'=='
p470
aS'variable_22'
p471
ag13
aS'||'
p472
ag4
aS'variable_10'
p473
aS'=='
p474
aS'variable_23'
p475
ag13
ag13
ag13
aS'if'
p476
ag4
ag4
ag4
aS'variable_10'
p477
aS'=='
p478
aS'variable_24'
p479
ag13
aS'||'
p480
ag4
aS'variable_10'
p481
aS'=='
p482
aS'variable_25'
p483
ag13
aS'||'
p484
ag4
ag4
ag4
aS'variable_10'
p485
aS'=='
p486
aS'variable_26'
p487
ag13
aS'||'
p488
ag4
aS'variable_10'
p489
aS'=='
p490
aS'variable_27'
p491
ag13
ag13
aS'&&'
p492
ag4
ag115
aS'variable_28'
p493
ag13
ag13
ag13
aS'&&'
p494
aS'func_10'
p495
ag4
aS'variable_1'
p496
ag8
aS'variable_19'
p497
ag8
aS'variable_20'
p498
ag13
ag13
aS'variable_29'
p499
ag16
aS'func_11'
p500
ag4
aS'variable_1'
p501
ag8
aS'variable_19'
p502
ag8
aS'variable_3'
p503
ag8
aS'variable_30'
p504
ag8
aS'variable_31'
p505
ag8
aS'variable_32'
p506
ag8
aS'variable_20'
p507
ag8
ag115
aS'variable_28'
p508
ag13
ag18
aS'variable_33'
p509
ag16
aS'func_12'
p510
ag4
aS'variable_1'
p511
ag8
aS'variable_19'
p512
ag8
aS'variable_3'
p513
ag8
ag165
aS'Reassembled'
p514
aS'WTP'
p515
ag165
ag8
aS'variable_29'
p516
ag8
ag43
aS'variable_34'
p517
ag8
aS'NULL'
p518
ag8
aS'variable_17'
p519
ag13
ag18
aS'printf'
p520
ag4
ag165
aS'WTP'
p521
ag174
aS'Packet'
p522
ag176
ag177
ag176
ag178
aS'->'
p523
ag176
ag180
ag174
aS'wsp_tvb'
p524
ag16
ag176
ag182
ag8
aS'fd_wtp'
p525
ag16
ag176
ag182
ag8
aS'frame'
p526
ag16
ag176
ag177
ag185
ag186
ag165
ag8
aS'variable_3'
p527
aS'->'
p528
aS'variable_35'
p529
aS'->'
p530
aS'variable_36'
p531
ag8
aS'variable_29'
p532
ag193
ag165
aS'Reassembled'
p533
ag165
ag174
ag165
aS'Not'
p534
aS'reassembled'
p535
ag165
ag8
aS'variable_29'
p536
ag193
aS'variable_29'
p537
aS'->'
p538
aS'variable_37'
p539
ag174
ag201
ag94
ag8
aS'variable_33'
p540
ag8
aS'variable_29'
p541
ag13
ag18
aS'if'
p542
ag4
aS'variable_29'
p543
ag13
aS'variable_37'
p544
ag16
aS'variable_29'
p545
aS'->'
p546
aS'variable_37'
p547
ag18
aS'if'
p548
ag4
aS'variable_3'
p549
aS'->'
p550
aS'variable_35'
p551
aS'->'
p552
aS'variable_36'
p553
aS'=='
p554
aS'variable_37'
p555
ag13
aS'func_13'
p556
ag4
aS'variable_38'
p557
ag8
aS'variable_33'
p558
ag8
aS'variable_3'
p559
ag8
aS'variable_5'
p560
ag13
ag18
aS'func_14'
p561
ag4
aS'variable_3'
p562
aS'->'
p563
aS'variable_39'
p564
ag8
aS'variable_40'
p565
ag8
ag165
ag176
ag178
ag4
aS'WTP'
p566
aS'payload'
p567
aS'reassembled'
p568
aS'in'
p569
aS'packet'
p570
ag176
ag177
ag13
ag165
ag8
aS'variable_41'
p571
ag8
aS'variable_29'
p572
aS'->'
p573
aS'variable_37'
p574
ag13
ag18
aS'func_15'
p575
ag4
aS'variable_17'
p576
ag8
aS'variable_1'
p577
ag8
aS'variable_19'
p578
ag8
ag201
ag94
ag8
ag165
aS'Payload'
p579
ag165
ag13
ag18
aS'func_16'
p580
ag4
aS'variable_17'
p581
ag8
aS'variable_1'
p582
ag8
aS'variable_19'
p583
ag8
ag201
ag94
ag8
ag165
aS'Payload'
p584
ag165
ag13
ag18
aS'variable_33'
p585
ag16
aS'func_17'
p586
ag4
aS'variable_1'
p587
ag8
aS'variable_19'
p588
ag13
ag18
aS'func_18'
p589
ag4
aS'variable_38'
p590
ag8
aS'variable_33'
p591
ag8
aS'variable_3'
p592
ag8
aS'variable_5'
p593
ag13
ag18
aa(lp594
S'func_0'
p595
ag4
aS'variable_0'
p596
ag6
aS'variable_1'
p597
ag8
aS'variable_2'
p598
ag6
aS'variable_3'
p599
ag8
aS'variable_4'
p600
ag6
aS'variable_5'
p601
ag13
aS'char'
p602
ag6
aS'variable_6'
p603
ag18
aS'int'
p604
aS'variable_7'
p605
ag16
ag17
ag18
aS'gint'
p606
aS'variable_8'
p607
ag8
aS'variable_9'
p608
ag16
ag17
ag18
aS'unsigned'
p609
aS'char'
p610
aS'variable_10'
p611
ag18
aS'unsigned'
p612
aS'char'
p613
aS'variable_11'
p614
ag18
aS'char'
p615
aS'variable_12'
p616
ag18
aS'variable_6'
p617
ag16
aS'func_1'
p618
ag4
aS'variable_13'
p619
ag13
ag18
aS'variable_10'
p620
ag16
aS'func_2'
p621
ag4
aS'variable_1'
p622
ag8
aS'variable_7'
p623
ag37
ag17
ag13
ag18
aS'if'
p624
ag4
aS'variable_10'
p625
aS'=='
p626
ag17
ag13
aS'variable_11'
p627
ag16
aS'func_3'
p628
ag4
aS'variable_10'
p629
ag13
ag18
aS'variable_12'
p630
ag16
aS'func_4'
p631
ag4
aS'variable_10'
p632
ag13
ag18
aS'variable_8'
p633
ag16
aS'func_5'
p634
ag4
aS'variable_6'
p635
ag8
aS'variable_13'
p636
ag8
ag165
aS'WTP'
p637
ag176
ag178
ag165
ag8
aS'func_6'
p638
ag4
aS'variable_12'
p639
ag8
aS'variable_14'
p640
ag8
ag165
aS'Unknown'
p641
aS'PDU'
p642
aS'type'
p643
aS'0x'
p644
ag176
aS'x'
p645
ag165
ag13
ag13
ag18
aS'variable_9'
p646
aS'+='
p647
aS'func_7'
p648
ag4
aS'variable_8'
p649
ag8
aS'variable_13'
p650
ag201
aS'variable_9'
p651
ag13
ag18
aS'switch'
p652
ag4
aS'variable_12'
p653
ag13
aS'variable_15'
p654
ag16
ag17
ag18
aS'variable_16'
p655
ag16
aS'func_8'
p656
ag4
aS'func_9'
p657
ag4
aS'variable_1'
p658
ag8
aS'variable_7'
p659
ag37
ag55
ag13
ag13
ag18
aS'variable_8'
p660
ag16
aS'func_10'
p661
ag4
ag43
aS'variable_6'
p662
aS'['
p663
aS'variable_9'
p664
aS']'
p665
ag8
aS'variable_13'
p666
ag201
aS'variable_9'
p667
ag8
ag165
aS'Class'
p668
ag176
ag180
ag165
ag8
aS'variable_16'
p669
ag13
ag18
aS'variable_9'
p670
aS'+='
p671
aS'func_11'
p672
ag4
aS'variable_8'
p673
ag8
aS'variable_13'
p674
ag201
aS'variable_9'
p675
ag13
ag18
aS'variable_15'
p676
ag16
aS'func_12'
p677
ag4
aS'variable_1'
p678
ag8
aS'variable_7'
p679
ag37
ag55
ag13
ag18
aS'if'
p680
ag4
aS'variable_15'
p681
aS'!='
p682
ag17
ag13
aS'variable_8'
p683
ag16
aS'func_13'
p684
ag4
ag43
aS'variable_6'
p685
ag663
aS'variable_9'
p686
ag665
ag8
aS'variable_13'
p687
ag201
aS'variable_9'
p688
ag8
ag165
ag4
ag176
ag177
ag13
ag165
ag8
aS'variable_15'
p689
ag13
ag18
aS'variable_9'
p690
aS'+='
p691
aS'func_14'
p692
ag4
aS'variable_8'
p693
ag8
aS'variable_13'
p694
ag201
aS'variable_9'
p695
ag13
ag18
aS'if'
p696
ag4
aS'variable_11'
p697
ag13
aS'variable_8'
p698
ag16
aS'func_15'
p699
ag4
ag43
aS'variable_6'
p700
ag663
aS'variable_9'
p701
ag665
ag8
aS'variable_13'
p702
ag201
aS'variable_9'
p703
ag8
ag165
aS'R'
p704
ag165
ag13
ag18
aS'variable_9'
p705
aS'+='
p706
aS'func_16'
p707
ag4
aS'variable_8'
p708
ag8
aS'variable_13'
p709
ag201
aS'variable_9'
p710
ag13
ag18
aa(lp711
S'func_0'
p712
ag4
aS'variable_0'
p713
ag6
aS'variable_1'
p714
ag8
aS'variable_2'
p715
ag6
aS'variable_3'
p716
ag8
aS'variable_4'
p717
ag6
aS'variable_5'
p718
ag13
aS'char'
p719
ag6
aS'variable_6'
p720
ag18
aS'int'
p721
aS'variable_7'
p722
ag16
ag17
ag18
aS'gint'
p723
aS'variable_8'
p724
ag8
aS'variable_9'
p725
ag16
ag17
ag18
aS'unsigned'
p726
aS'char'
p727
aS'variable_10'
p728
ag18
aS'char'
p729
aS'variable_11'
p730
ag18
aS'variable_6'
p731
ag16
aS'func_1'
p732
ag4
aS'variable_12'
p733
ag13
ag18
aS'variable_10'
p734
ag16
aS'func_2'
p735
ag4
aS'variable_1'
p736
ag8
aS'variable_7'
p737
ag37
ag17
ag13
ag18
aS'if'
p738
ag4
aS'variable_10'
p739
aS'=='
p740
ag17
ag13
aS'variable_11'
p741
ag16
aS'func_3'
p742
ag4
aS'variable_10'
p743
ag13
ag18
aS'variable_8'
p744
ag16
aS'func_4'
p745
ag4
aS'variable_6'
p746
ag8
aS'variable_12'
p747
ag8
ag165
aS'WTP'
p748
ag176
ag178
ag165
ag8
aS'func_5'
p749
ag4
aS'variable_11'
p750
ag8
aS'variable_13'
p751
ag8
ag165
aS'Unknown'
p752
aS'PDU'
p753
aS'type'
p754
aS'0x'
p755
ag176
ag645
ag165
ag13
ag13
ag18
aS'variable_9'
p756
aS'+='
p757
aS'func_6'
p758
ag4
aS'variable_8'
p759
ag8
aS'variable_12'
p760
ag201
aS'variable_9'
p761
ag13
ag18
aS'switch'
p762
ag4
aS'variable_11'
p763
ag13
aS'variable_14'
p764
ag16
ag17
ag18
aS'variable_15'
p765
ag16
aS'func_7'
p766
ag4
aS'func_8'
p767
ag4
aS'variable_1'
p768
ag8
aS'variable_7'
p769
ag37
ag55
ag13
ag13
ag18
aS'variable_8'
p770
ag16
aS'func_9'
p771
ag4
ag43
aS'variable_6'
p772
ag663
aS'variable_9'
p773
ag665
ag8
aS'variable_12'
p774
ag201
aS'variable_9'
p775
ag8
ag165
aS'Class'
p776
ag176
ag180
ag165
ag8
aS'variable_15'
p777
ag13
ag18
aS'variable_9'
p778
aS'+='
p779
aS'func_10'
p780
ag4
aS'variable_8'
p781
ag8
aS'variable_12'
p782
ag201
aS'variable_9'
p783
ag13
ag18
aS'variable_14'
p784
ag16
aS'func_11'
p785
ag4
aS'variable_1'
p786
ag8
aS'variable_7'
p787
ag37
ag55
ag13
ag18
aS'if'
p788
ag4
aS'variable_14'
p789
aS'!='
p790
ag17
ag13
aS'variable_8'
p791
ag16
aS'func_12'
p792
ag4
ag43
aS'variable_6'
p793
ag663
aS'variable_9'
p794
ag665
ag8
aS'variable_12'
p795
ag201
aS'variable_9'
p796
ag8
ag165
ag4
ag176
ag177
ag13
ag165
ag8
aS'variable_14'
p797
ag13
ag18
aS'variable_9'
p798
aS'+='
p799
aS'func_13'
p800
ag4
aS'variable_8'
p801
ag8
aS'variable_12'
p802
ag201
aS'variable_9'
p803
ag13
ag18
aS'variable_8'
p804
ag16
aS'func_14'
p805
ag4
ag43
aS'variable_6'
p806
ag663
aS'variable_9'
p807
ag665
ag8
aS'variable_12'
p808
ag201
aS'variable_9'
p809
ag8
ag165
ag704
ag165
ag13
ag18
aS'variable_9'
p810
aS'+='
p811
aS'func_15'
p812
ag4
aS'variable_8'
p813
ag8
aS'variable_12'
p814
ag201
aS'variable_9'
p815
ag13
ag18
aa(lp816
S'func_0'
p817
ag4
aS'variable_0'
p818
ag6
aS'variable_1'
p819
ag8
aS'variable_2'
p820
ag6
aS'variable_3'
p821
ag8
aS'variable_4'
p822
ag6
aS'variable_5'
p823
ag13
aS'char'
p824
ag6
aS'variable_6'
p825
ag18
aS'int'
p826
aS'variable_7'
p827
ag16
ag17
ag18
aS'gint'
p828
aS'variable_8'
p829
ag8
aS'variable_9'
p830
ag16
ag17
ag18
aS'unsigned'
p831
aS'char'
p832
aS'variable_10'
p833
ag18
aS'char'
p834
aS'variable_11'
p835
ag18
aS'variable_6'
p836
ag16
aS'func_1'
p837
ag4
aS'variable_12'
p838
ag13
ag18
aS'variable_10'
p839
ag16
aS'func_2'
p840
ag4
aS'variable_1'
p841
ag8
aS'variable_7'
p842
ag37
ag17
ag13
ag18
aS'if'
p843
ag4
aS'variable_10'
p844
aS'=='
p845
ag17
ag13
aS'variable_11'
p846
ag16
aS'func_3'
p847
ag4
aS'variable_10'
p848
ag13
ag18
aS'variable_8'
p849
ag16
aS'func_4'
p850
ag4
aS'variable_6'
p851
ag8
aS'variable_12'
p852
ag8
ag165
aS'WTP'
p853
ag176
ag178
ag165
ag8
aS'func_5'
p854
ag4
aS'variable_11'
p855
ag8
aS'variable_13'
p856
ag8
ag165
aS'Unknown'
p857
aS'PDU'
p858
aS'type'
p859
aS'0x'
p860
ag176
ag645
ag165
ag13
ag13
ag18
aS'variable_9'
p861
aS'+='
p862
aS'func_6'
p863
ag4
aS'variable_8'
p864
ag8
aS'variable_12'
p865
ag201
aS'variable_9'
p866
ag13
ag18
aS'switch'
p867
ag4
aS'variable_11'
p868
ag13
aS'variable_14'
p869
ag16
aS'func_7'
p870
ag4
aS'func_8'
p871
ag4
aS'variable_1'
p872
ag8
aS'variable_7'
p873
ag37
ag55
ag13
ag13
ag18
aS'variable_8'
p874
ag16
aS'func_9'
p875
ag4
ag43
aS'variable_6'
p876
ag663
aS'variable_9'
p877
ag665
ag8
aS'variable_12'
p878
ag201
aS'variable_9'
p879
ag8
ag165
aS'Class'
p880
ag176
ag180
ag165
ag8
aS'variable_14'
p881
ag13
ag18
aS'variable_9'
p882
aS'+='
p883
aS'func_10'
p884
ag4
aS'variable_8'
p885
ag8
aS'variable_12'
p886
ag201
aS'variable_9'
p887
ag13
ag18
aS'variable_8'
p888
ag16
aS'func_11'
p889
ag4
ag43
aS'variable_6'
p890
ag663
aS'variable_9'
p891
ag665
ag8
aS'variable_12'
p892
ag201
aS'variable_9'
p893
ag8
ag165
ag4
ag176
ag177
ag13
ag165
ag8
aS'variable_15'
p894
ag13
ag18
aS'variable_9'
p895
aS'+='
p896
aS'func_12'
p897
ag4
aS'variable_8'
p898
ag8
aS'variable_12'
p899
ag201
aS'variable_9'
p900
ag13
ag18
aS'variable_8'
p901
ag16
aS'func_13'
p902
ag4
ag43
aS'variable_6'
p903
ag663
aS'variable_9'
p904
ag665
ag8
aS'variable_12'
p905
ag201
aS'variable_9'
p906
ag8
ag165
ag704
ag165
ag13
ag18
aS'variable_9'
p907
aS'+='
p908
aS'func_14'
p909
ag4
aS'variable_8'
p910
ag8
aS'variable_12'
p911
ag201
aS'variable_9'
p912
ag13
ag18
aa(lp913
S'func_0'
p914
ag4
aS'variable_0'
p915
ag6
aS'variable_1'
p916
ag8
aS'variable_2'
p917
ag6
aS'variable_3'
p918
ag8
aS'variable_4'
p919
ag6
aS'variable_5'
p920
ag13
aS'int'
p921
aS'variable_6'
p922
ag16
ag17
ag18
aS'unsigned'
p923
aS'char'
p924
aS'variable_7'
p925
ag18
aS'variable_7'
p926
ag16
aS'func_1'
p927
ag4
aS'variable_1'
p928
ag8
aS'variable_6'
p929
ag37
ag17
ag13
ag18
aS'if'
p930
ag4
aS'variable_7'
p931
aS'=='
p932
ag17
ag13
aS'variable_6'
p933
ag16
ag94
ag18
aS'while'
p934
ag4
aS'variable_6'
p935
aS'<'
p936
ag4
aS'int'
p937
ag13
aS'func_2'
p938
ag4
aS'variable_1'
p939
ag13
ag13
aS'variable_0'
p940
ag6
aS'variable_8'
p941
ag18
aS'variable_7'
p942
ag16
aS'func_3'
p943
ag4
aS'variable_1'
p944
ag8
aS'variable_6'
p945
ag37
ag17
ag13
ag18
aS'if'
p946
ag4
aS'variable_7'
p947
ag43
aS'0x80'
p948
ag13
aS'variable_9'
p949
ag16
ag88
ag18
aS'variable_10'
p950
ag16
ag4
ag4
aS'variable_7'
p951
ag43
aS'0x7f'
p952
ag13
aS'<<'
p953
aS'8'
p954
ag13
aS'|'
p955
aS'func_4'
p956
ag4
aS'variable_1'
p957
ag8
aS'variable_6'
p958
ag37
ag94
ag13
ag18
aS'variable_9'
p959
ag16
ag94
ag18
aS'variable_10'
p960
ag16
aS'variable_7'
p961
ag18
aS'variable_8'
p962
ag16
aS'func_5'
p963
ag4
aS'variable_1'
p964
ag8
aS'variable_6'
p965
ag37
aS'variable_9'
p966
ag8
aS'variable_10'
p967
ag8
aS'variable_10'
p968
ag13
ag18
aS'func_6'
p969
ag4
aS'variable_8'
p970
ag8
aS'variable_3'
p971
ag8
aS'variable_11'
p972
ag13
ag18
aS'func_7'
p973
ag4
aS'variable_0'
p974
ag6
aS'variable_1'
p975
ag8
aS'variable_2'
p976
ag6
aS'variable_3'
p977
ag8
aS'variable_4'
p978
ag6
aS'variable_5'
p979
ag13
aS'variable_7'
p980
ag16
aS'func_8'
p981
ag4
aS'variable_1'
p982
ag8
aS'variable_6'
p983
ag37
ag17
ag13
ag18
aS'if'
p984
ag4
aS'variable_7'
p985
aS'=='
p986
ag17
ag13
aS'if'
p987
ag4
aS'variable_5'
p988
ag13
aS'variable_12'
p989
ag16
aS'func_9'
p990
ag4
aS'variable_5'
p991
ag8
aS'variable_13'
p992
ag8
aS'variable_1'
p993
ag8
aS'variable_6'
p994
ag8
ag94
ag8
aS'variable_14'
p995
ag13
ag18
aS'variable_11'
p996
ag16
aS'func_10'
p997
ag4
aS'variable_12'
p998
ag8
aS'variable_15'
p999
ag13
ag18
aS'func_11'
p1000
ag4
aS'variable_12'
p1001
ag8
ag165
ag8
aS'PDU'
p1002
aS'concatenation'
p1003
ag165
ag13
ag18
aS'while'
p1004
ag4
aS'variable_6'
p1005
ag936
ag4
aS'int'
p1006
ag13
aS'func_12'
p1007
ag4
aS'variable_1'
p1008
ag13
ag13
aS'variable_7'
p1009
ag16
aS'func_13'
p1010
ag4
aS'variable_1'
p1011
ag8
aS'variable_6'
p1012
ag37
ag17
ag13
ag18
aS'if'
p1013
ag4
aS'variable_7'
p1014
ag43
aS'0x80'
p1015
ag13
aS'variable_10'
p1016
ag16
ag4
ag4
aS'variable_7'
p1017
ag43
aS'0x7f'
p1018
ag13
aS'<<'
p1019
ag954
ag13
ag955
aS'func_14'
p1020
ag4
aS'variable_1'
p1021
ag8
aS'variable_6'
p1022
ag37
ag94
ag13
ag18
aS'variable_10'
p1023
ag16
aS'variable_7'
p1024
ag18
aS'if'
p1025
ag4
aS'variable_5'
p1026
ag13
aS'func_15'
p1027
ag4
aS'variable_11'
p1028
ag8
aS'variable_16'
p1029
ag8
aS'variable_1'
p1030
ag8
aS'variable_6'
p1031
ag8
aS'variable_9'
p1032
ag8
aS'variable_10'
p1033
ag13
ag18
aS'func_16'
p1034
ag4
aS'variable_3'
p1035
aS'->'
p1036
aS'variable_17'
p1037
ag8
aS'variable_18'
p1038
ag8
ag165
ag8
ag165
ag13
ag18
aS'variable_8'
p1039
ag16
aS'func_17'
p1040
ag4
aS'variable_1'
p1041
ag8
aS'variable_6'
p1042
ag37
aS'variable_9'
p1043
ag8
aS'variable_10'
p1044
ag8
aS'variable_10'
p1045
ag13
ag18
aS'func_18'
p1046
ag4
aS'variable_8'
p1047
ag8
aS'variable_3'
p1048
ag8
aS'variable_11'
p1049
ag13
ag18
aS'func_19'
p1050
ag4
aS'variable_0'
p1051
ag6
aS'variable_1'
p1052
ag8
aS'variable_2'
p1053
ag6
aS'variable_3'
p1054
ag8
aS'variable_4'
p1055
ag6
aS'variable_5'
p1056
ag13
aS'variable_7'
p1057
ag16
aS'func_20'
p1058
ag4
aS'variable_1'
p1059
ag8
aS'variable_6'
p1060
ag37
ag17
ag13
ag18
aS'if'
p1061
ag4
aS'variable_7'
p1062
aS'=='
p1063
ag17
ag13
aS'if'
p1064
ag4
aS'variable_5'
p1065
ag13
aS'variable_12'
p1066
ag16
aS'func_21'
p1067
ag4
aS'variable_5'
p1068
ag8
aS'variable_13'
p1069
ag8
aS'variable_1'
p1070
ag8
aS'variable_6'
p1071
ag8
ag94
ag8
aS'variable_14'
p1072
ag13
ag18
aS'variable_11'
p1073
ag16
aS'func_22'
p1074
ag4
aS'variable_12'
p1075
ag8
aS'variable_15'
p1076
ag13
ag18
aS'func_23'
p1077
ag4
aS'variable_12'
p1078
ag8
ag165
ag8
aS'PDU'
p1079
aS'concatenation'
p1080
ag165
ag13
ag18
aS'while'
p1081
ag4
aS'variable_6'
p1082
ag936
ag4
aS'int'
p1083
ag13
aS'func_24'
p1084
ag4
aS'variable_1'
p1085
ag13
ag13
aS'variable_7'
p1086
ag16
aS'func_25'
p1087
ag4
aS'variable_1'
p1088
ag8
aS'variable_6'
p1089
ag37
ag17
ag13
ag18
aS'if'
p1090
ag4
aS'variable_7'
p1091
ag43
aS'0x80'
p1092
ag13
aS'variable_10'
p1093
ag16
ag4
ag4
aS'variable_7'
p1094
ag43
aS'0x7f'
p1095
ag13
aS'<<'
p1096
ag954
ag13
ag955
aS'func_26'
p1097
ag4
aS'variable_1'
p1098
ag8
aS'variable_6'
p1099
ag37
ag94
ag13
ag18
aS'variable_10'
p1100
ag16
aS'variable_7'
p1101
ag18
aS'if'
p1102
ag4
aS'variable_5'
p1103
ag13
aS'func_27'
p1104
ag4
aS'variable_11'
p1105
ag8
aS'variable_16'
p1106
ag8
aS'variable_1'
p1107
ag8
aS'variable_6'
p1108
ag8
aS'variable_9'
p1109
ag8
aS'variable_10'
p1110
ag13
ag18
aS'func_28'
p1111
ag4
aS'variable_3'
p1112
aS'->'
p1113
aS'variable_17'
p1114
ag8
aS'variable_18'
p1115
ag8
ag165
ag8
ag165
ag13
ag18
aS'variable_8'
p1116
ag16
aS'func_29'
p1117
ag4
aS'variable_1'
p1118
ag8
aS'variable_6'
p1119
ag37
aS'variable_9'
p1120
ag8
aS'variable_10'
p1121
ag8
aS'variable_10'
p1122
ag13
ag18
aS'func_30'
p1123
ag4
aS'variable_8'
p1124
ag8
aS'variable_3'
p1125
ag8
aS'variable_11'
p1126
ag13
ag18
aS'variable_6'
p1127
aS'+='
p1128
aS'variable_9'
p1129
ag37
aS'variable_10'
p1130
ag18
aS'if'
p1131
ag4
aS'variable_5'
p1132
ag13
aS'func_31'
p1133
ag4
aS'variable_12'
p1134
ag8
ag165
ag8
aS'PDU'
p1135
aS'count'
p1136
ag174
ag176
ag177
ag165
ag8
aS'variable_19'
p1137
ag13
ag18
aS'variable_20'
p1138
ag16
aS'variable_7'
p1139
ag43
aS'0x80'
p1140
ag18
aS'variable_21'
p1141
ag16
aS'func_32'
p1142
ag4
aS'variable_7'
p1143
ag13
ag18
aS'variable_22'
p1144
ag16
aS'func_33'
p1145
ag4
aS'variable_7'
p1146
ag13
ag18
aS'printf'
p1147
ag4
ag165
aS'WTP'
p1148
aS'packet'
p1149
ag176
ag177
ag174
aS'tree'
p1150
ag16
ag176
ag182
ag8
aS'pdu'
p1151
ag16
ag176
ag178
ag4
ag176
ag177
ag13
aS'length'
p1152
ag174
ag176
ag177
ag185
ag186
ag165
ag8
aS'variable_3'
p1153
aS'->'
p1154
aS'variable_23'
p1155
aS'->'
p1156
aS'variable_24'
p1157
ag8
aS'variable_5'
p1158
ag8
aS'func_34'
p1159
ag4
aS'variable_22'
p1160
ag8
aS'variable_25'
p1161
ag8
ag165
aS'Unknown'
p1162
aS'PDU'
p1163
aS'type'
p1164
aS'0x'
p1165
ag176
ag645
ag165
ag13
ag8
aS'variable_22'
p1166
ag8
aS'func_35'
p1167
ag4
aS'variable_1'
p1168
ag13
ag13
ag18
aS'variable_26'
p1169
ag16
aS'func_36'
p1170
ag4
aS'variable_27'
p1171
ag8
aS'variable_28'
p1172
ag8
ag165
aS'WTP'
p1173
ag176
ag178
ag165
ag8
aS'func_37'
p1174
ag4
aS'variable_22'
p1175
ag8
aS'variable_25'
p1176
ag8
ag165
aS'Unknown'
p1177
aS'PDU'
p1178
aS'type'
p1179
aS'0x'
p1180
ag176
ag645
ag165
ag13
ag13
ag18
aS'variable_29'
p1181
aS'+='
p1182
aS'func_38'
p1183
ag4
aS'variable_26'
p1184
ag8
aS'variable_28'
p1185
ag201
aS'variable_29'
p1186
ag13
ag18
aS'switch'
p1187
ag4
aS'variable_22'
p1188
ag13
aS'variable_30'
p1189
ag16
aS'func_39'
p1190
ag4
aS'variable_7'
p1191
ag13
ag18
aS'variable_31'
p1192
ag16
aS'func_40'
p1193
ag4
aS'variable_1'
p1194
ag8
aS'variable_6'
p1195
ag37
ag94
ag13
ag18
aS'variable_32'
p1196
ag16
aS'func_41'
p1197
ag4
aS'func_42'
p1198
ag4
aS'variable_1'
p1199
ag8
aS'variable_6'
p1200
ag37
ag55
ag13
ag13
ag18
aS'variable_26'
p1201
ag16
aS'func_43'
p1202
ag4
ag43
aS'variable_27'
p1203
ag663
aS'variable_29'
p1204
ag665
ag8
aS'variable_28'
p1205
ag201
aS'variable_29'
p1206
ag8
ag165
aS'Class'
p1207
ag176
ag180
ag165
ag8
aS'variable_32'
p1208
ag13
ag18
aS'variable_29'
p1209
aS'+='
p1210
aS'func_44'
p1211
ag4
aS'variable_26'
p1212
ag8
aS'variable_28'
p1213
ag201
aS'variable_29'
p1214
ag13
ag18
aS'variable_30'
p1215
ag16
aS'func_45'
p1216
ag4
aS'variable_7'
p1217
ag13
ag18
aS'variable_31'
p1218
ag16
aS'func_46'
p1219
ag4
aS'variable_1'
p1220
ag8
aS'variable_6'
p1221
ag37
ag94
ag13
ag18
aS'variable_33'
p1222
ag16
aS'func_47'
p1223
ag4
aS'variable_1'
p1224
ag8
aS'variable_6'
p1225
ag37
ag55
ag13
ag18
aS'if'
p1226
ag4
aS'variable_33'
p1227
aS'!='
p1228
ag17
ag13
aS'variable_26'
p1229
ag16
aS'func_48'
p1230
ag4
ag43
aS'variable_27'
p1231
ag663
aS'variable_29'
p1232
ag665
ag8
aS'variable_28'
p1233
ag201
aS'variable_29'
p1234
ag8
ag165
ag4
ag176
ag177
ag13
ag165
ag8
aS'variable_33'
p1235
ag13
ag18
aS'variable_29'
p1236
aS'+='
p1237
aS'func_49'
p1238
ag4
aS'variable_26'
p1239
ag8
aS'variable_28'
p1240
ag201
aS'variable_29'
p1241
ag13
ag18
aS'variable_30'
p1242
ag16
aS'func_50'
p1243
ag4
aS'variable_7'
p1244
ag13
ag18
aS'variable_31'
p1245
ag16
aS'func_51'
p1246
ag4
aS'variable_1'
p1247
ag8
aS'variable_6'
p1248
ag37
ag94
ag13
ag18
aS'variable_34'
p1249
ag16
aS'func_52'
p1250
ag4
aS'variable_1'
p1251
ag8
aS'variable_6'
p1252
ag37
ag55
ag13
ag18
aS'variable_35'
p1253
ag16
aS'variable_34'
p1254
ag37
ag51
ag18
aS'if'
p1255
ag4
aS'variable_21'
p1256
ag13
aS'variable_26'
p1257
ag16
aS'func_53'
p1258
ag4
ag43
aS'variable_27'
p1259
ag663
aS'variable_29'
p1260
ag665
ag8
aS'variable_28'
p1261
ag201
aS'variable_29'
p1262
ag8
ag165
ag704
ag165
ag13
ag18
aS'variable_29'
p1263
aS'+='
p1264
aS'func_54'
p1265
ag4
aS'variable_26'
p1266
ag8
aS'variable_28'
p1267
ag201
aS'variable_29'
p1268
ag13
ag18
aS'if'
p1269
ag4
aS'variable_5'
p1270
ag13
aS'fprintf'
p1271
ag4
aS'variable_36'
p1272
ag8
ag165
aS'dissect_wtp'
p1273
ag174
aS'cbHeader'
p1274
ag16
ag176
ag180
ag185
ag186
ag165
ag8
aS'variable_35'
p1275
ag13
ag18
aS'variable_12'
p1276
ag16
aS'func_55'
p1277
ag4
aS'variable_5'
p1278
ag8
aS'variable_13'
p1279
ag8
aS'variable_1'
p1280
ag8
aS'variable_6'
p1281
ag8
ag17
ag8
aS'variable_14'
p1282
ag13
ag18
aS'fprintf'
p1283
ag4
aS'variable_36'
p1284
ag8
ag165
aS'dissect_wtp'
p1285
ag174
ag4
aS'7'
p1286
ag13
aS'Returned'
p1287
aS'from'
p1288
aS'proto_tree_add_item'
p1289
ag185
ag186
ag165
ag13
ag18
aS'variable_11'
p1290
ag16
aS'func_56'
p1291
ag4
aS'variable_12'
p1292
ag8
aS'variable_37'
p1293
ag13
ag18
aS'fprintf'
p1294
ag4
aS'variable_36'
p1295
ag8
ag165
aS'dissect_wtp'
p1296
ag174
aS'cbHeader'
p1297
ag16
ag176
ag180
ag185
ag186
ag165
ag8
aS'variable_35'
p1298
ag13
ag18
aS'fprintf'
p1299
ag4
aS'variable_36'
p1300
ag8
ag165
aS'dissect_wtp'
p1301
ag174
aS'offCur'
p1302
ag16
ag176
ag180
ag185
ag186
ag165
ag8
aS'variable_6'
p1303
ag13
ag18
aS'func_57'
p1304
ag4
aS'variable_11'
p1305
ag8
aS'variable_38'
p1306
ag8
aS'variable_1'
p1307
ag8
aS'variable_6'
p1308
ag8
ag94
ag8
aS'variable_7'
p1309
ag13
ag18
aS'func_58'
p1310
ag4
aS'variable_11'
p1311
ag8
aS'variable_39'
p1312
ag8
aS'variable_1'
p1313
ag8
aS'variable_6'
p1314
ag8
ag94
ag8
aS'variable_40'
p1315
ag13
ag18
aS'switch'
p1316
ag4
aS'variable_22'
p1317
ag13
aS'func_59'
p1318
ag4
aS'variable_11'
p1319
ag8
aS'variable_41'
p1320
ag8
aS'variable_1'
p1321
ag8
aS'variable_6'
p1322
ag8
ag94
ag8
aS'variable_40'
p1323
ag13
ag18
aS'func_60'
p1324
ag4
aS'variable_11'
p1325
ag8
aS'variable_42'
p1326
ag8
aS'variable_1'
p1327
ag8
aS'variable_6'
p1328
ag8
ag94
ag8
aS'variable_40'
p1329
ag13
ag18
aS'func_61'
p1330
ag4
aS'variable_11'
p1331
ag8
aS'variable_43'
p1332
ag8
aS'variable_1'
p1333
ag8
aS'variable_6'
p1334
ag37
ag94
ag8
ag88
ag8
aS'variable_44'
p1335
ag13
ag18
aS'func_62'
p1336
ag4
aS'variable_11'
p1337
ag8
aS'variable_45'
p1338
ag8
aS'variable_1'
p1339
ag8
aS'variable_6'
p1340
ag37
ag94
ag8
ag88
ag8
aS'variable_44'
p1341
ag13
ag18
aS'func_63'
p1342
ag4
aS'variable_11'
p1343
ag8
aS'variable_46'
p1344
ag8
aS'variable_1'
p1345
ag8
aS'variable_6'
p1346
ag37
ag55
ag8
ag94
ag8
aS'variable_40'
p1347
ag13
ag18
aS'func_64'
p1348
ag4
aS'variable_11'
p1349
ag8
aS'variable_47'
p1350
ag8
aS'variable_1'
p1351
ag8
aS'variable_6'
p1352
ag37
ag55
ag8
ag94
ag8
aS'variable_40'
p1353
ag13
ag18
aS'func_65'
p1354
ag4
aS'variable_11'
p1355
ag8
aS'variable_48'
p1356
ag8
aS'variable_1'
p1357
ag8
aS'variable_6'
p1358
ag37
ag55
ag8
ag94
ag8
aS'variable_40'
p1359
ag13
ag18
aS'func_66'
p1360
ag4
aS'variable_11'
p1361
ag8
aS'variable_49'
p1362
ag8
aS'variable_1'
p1363
ag8
aS'variable_6'
p1364
ag37
ag55
ag8
ag94
ag8
aS'variable_40'
p1365
ag13
ag18
aS'func_67'
p1366
ag4
aS'variable_11'
p1367
ag8
aS'variable_50'
p1368
ag8
aS'variable_1'
p1369
ag8
aS'variable_6'
p1370
ag37
ag55
ag8
ag94
ag8
aS'variable_40'
p1371
ag13
ag18
aS'func_68'
p1372
ag4
ag165
ag8
aS'Transaction'
p1373
aS'Class'
p1374
ag174
ag176
ag178
ag4
ag176
ag177
ag13
ag165
aS'func_69'
p1375
ag4
aS'variable_32'
p1376
ag8
aS'variable_51'
p1377
ag8
ag165
aS'Undefined'
p1378
ag165
ag13
aS'variable_32'
p1379
ag13
aS'func_70'
p1380
ag4
aS'variable_11'
p1381
ag8
aS'variable_41'
p1382
ag8
aS'variable_1'
p1383
ag8
aS'variable_6'
p1384
ag8
ag94
ag8
aS'variable_40'
p1385
ag13
ag18
aS'func_71'
p1386
ag4
aS'variable_11'
p1387
ag8
aS'variable_42'
p1388
ag8
aS'variable_1'
p1389
ag8
aS'variable_6'
p1390
ag8
ag94
ag8
aS'variable_40'
p1391
ag13
ag18
aS'func_72'
p1392
ag4
aS'variable_11'
p1393
ag8
aS'variable_43'
p1394
ag8
aS'variable_1'
p1395
ag8
aS'variable_6'
p1396
ag37
ag94
ag8
ag88
ag8
aS'variable_44'
p1397
ag13
ag18
aS'func_73'
p1398
ag4
aS'variable_11'
p1399
ag8
aS'variable_45'
p1400
ag8
aS'variable_1'
p1401
ag8
aS'variable_6'
p1402
ag37
ag94
ag8
ag88
ag8
aS'variable_44'
p1403
ag13
ag18
aS'func_74'
p1404
ag4
aS'variable_12'
p1405
ag8
ag165
ag8
aS'PDU'
p1406
ag174
aS'Result'
p1407
ag4
ag176
ag177
ag13
ag165
ag8
aS'variable_52'
p1408
ag13
ag18
aS'func_75'
p1409
ag4
aS'variable_11'
p1410
ag8
aS'variable_53'
p1411
ag8
aS'variable_1'
p1412
ag8
aS'variable_6'
p1413
ag8
ag94
ag8
aS'variable_44'
p1414
ag13
ag18
aS'func_76'
p1415
ag4
aS'variable_11'
p1416
ag8
aS'variable_42'
p1417
ag8
aS'variable_1'
p1418
ag8
aS'variable_6'
p1419
ag8
ag94
ag8
aS'variable_40'
p1420
ag13
ag18
aS'func_77'
p1421
ag4
aS'variable_11'
p1422
ag8
aS'variable_43'
p1423
ag8
aS'variable_1'
p1424
ag8
aS'variable_6'
p1425
ag37
ag94
ag8
ag88
ag8
aS'variable_44'
p1426
ag13
ag18
aS'func_78'
p1427
ag4
aS'variable_11'
p1428
ag8
aS'variable_45'
p1429
ag8
aS'variable_1'
p1430
ag8
aS'variable_6'
p1431
ag37
ag94
ag8
ag88
ag8
aS'variable_44'
p1432
ag13
ag18
aS'func_79'
p1433
ag4
aS'variable_12'
p1434
ag8
ag165
ag8
aS'PDU'
p1435
ag174
aS'ACK'
p1436
ag4
ag176
ag177
ag13
ag165
ag8
aS'variable_54'
p1437
ag13
ag18
aS'variable_55'
p1438
ag16
aS'func_80'
p1439
ag4
aS'variable_1'
p1440
ag8
aS'variable_6'
p1441
ag13
ag43
aS'0x07'
p1442
ag18
aS'func_81'
p1443
ag4
aS'variable_11'
p1444
ag8
aS'variable_56'
p1445
ag8
aS'variable_1'
p1446
ag8
aS'variable_6'
p1447
ag8
ag94
ag8
aS'variable_40'
p1448
ag13
ag18
aS'func_82'
p1449
ag4
aS'variable_11'
p1450
ag8
aS'variable_43'
p1451
ag8
aS'variable_1'
p1452
ag8
aS'variable_6'
p1453
ag37
ag94
ag8
ag88
ag8
aS'variable_44'
p1454
ag13
ag18
aS'func_83'
p1455
ag4
aS'variable_11'
p1456
ag8
aS'variable_45'
p1457
ag8
aS'variable_1'
p1458
ag8
aS'variable_6'
p1459
ag37
ag94
ag8
ag88
ag8
aS'variable_44'
p1460
ag13
ag18
aS'if'
p1461
ag4
aS'variable_55'
p1462
aS'=='
p1463
aS'variable_57'
p1464
ag13
aS'guint8'
p1465
aS'variable_58'
p1466
ag16
aS'func_84'
p1467
ag4
aS'variable_1'
p1468
ag8
aS'variable_6'
p1469
ag37
ag55
ag13
ag18
aS'func_85'
p1470
ag4
aS'variable_11'
p1471
ag8
aS'variable_59'
p1472
ag8
aS'variable_1'
p1473
ag8
aS'variable_6'
p1474
ag37
ag55
ag8
ag94
ag8
aS'variable_40'
p1475
ag13
ag18
aS'func_86'
p1476
ag4
ag165
ag8
aS'Reason'
p1477
ag174
ag176
ag178
ag4
ag176
ag177
ag13
ag165
aS'func_87'
p1478
ag4
aS'variable_58'
p1479
ag8
aS'variable_60'
p1480
ag8
ag165
aS'Undefined'
p1481
ag165
ag13
aS'variable_58'
p1482
ag13
aS'if'
p1483
ag4
aS'variable_55'
p1484
aS'=='
p1485
aS'variable_61'
p1486
ag13
aS'guint8'
p1487
aS'variable_58'
p1488
ag16
aS'func_88'
p1489
ag4
aS'variable_1'
p1490
ag8
aS'variable_6'
p1491
ag37
ag55
ag13
ag18
aS'func_89'
p1492
ag4
aS'variable_11'
p1493
ag8
aS'variable_62'
p1494
ag8
aS'variable_1'
p1495
ag8
aS'variable_6'
p1496
ag37
ag55
ag8
ag94
ag8
aS'variable_40'
p1497
ag13
ag18
aS'func_90'
p1498
ag4
ag165
ag8
aS'Reason'
p1499
ag174
ag176
ag178
ag4
ag176
ag177
ag13
ag165
aS'func_91'
p1500
ag4
aS'variable_58'
p1501
ag8
ag43
aS'variable_63'
p1502
ag8
ag165
aS'Undefined'
p1503
ag165
ag13
aS'variable_58'
p1504
ag13
aS'func_92'
p1505
ag4
aS'variable_11'
p1506
ag8
aS'variable_41'
p1507
ag8
aS'variable_1'
p1508
ag8
aS'variable_6'
p1509
ag8
ag94
ag8
aS'variable_40'
p1510
ag13
ag18
aS'func_93'
p1511
ag4
aS'variable_11'
p1512
ag8
aS'variable_42'
p1513
ag8
aS'variable_1'
p1514
ag8
aS'variable_6'
p1515
ag8
ag94
ag8
aS'variable_40'
p1516
ag13
ag18
aS'func_94'
p1517
ag4
aS'variable_11'
p1518
ag8
aS'variable_43'
p1519
ag8
aS'variable_1'
p1520
ag8
aS'variable_6'
p1521
ag37
ag94
ag8
ag88
ag8
aS'variable_44'
p1522
ag13
ag18
aS'func_95'
p1523
ag4
aS'variable_11'
p1524
ag8
aS'variable_45'
p1525
ag8
aS'variable_1'
p1526
ag8
aS'variable_6'
p1527
ag37
ag94
ag8
ag88
ag8
aS'variable_44'
p1528
ag13
ag18
aS'func_96'
p1529
ag4
aS'variable_11'
p1530
ag8
aS'variable_64'
p1531
ag8
aS'variable_1'
p1532
ag8
aS'variable_6'
p1533
ag37
ag55
ag8
ag94
ag8
aS'variable_40'
p1534
ag13
ag18
aS'func_97'
p1535
ag4
ag165
ag8
aS'Packet'
p1536
aS'Sequence'
p1537
aS'Number'
p1538
ag174
ag176
ag177
ag165
aS'variable_65'
p1539
ag8
aS'variable_33'
p1540
ag13
aS'func_98'
p1541
ag4
aS'variable_11'
p1542
ag8
aS'variable_41'
p1543
ag8
aS'variable_1'
p1544
ag8
aS'variable_6'
p1545
ag8
ag94
ag8
aS'variable_40'
p1546
ag13
ag18
aS'func_99'
p1547
ag4
aS'variable_11'
p1548
ag8
aS'variable_42'
p1549
ag8
aS'variable_1'
p1550
ag8
aS'variable_6'
p1551
ag8
ag94
ag8
aS'variable_40'
p1552
ag13
ag18
aS'func_100'
p1553
ag4
aS'variable_11'
p1554
ag8
aS'variable_43'
p1555
ag8
aS'variable_1'
p1556
ag8
aS'variable_6'
p1557
ag37
ag94
ag8
ag88
ag8
aS'variable_44'
p1558
ag13
ag18
aS'func_101'
p1559
ag4
aS'variable_11'
p1560
ag8
aS'variable_45'
p1561
ag8
aS'variable_1'
p1562
ag8
aS'variable_6'
p1563
ag37
ag94
ag8
ag88
ag8
aS'variable_44'
p1564
ag13
ag18
aS'func_102'
p1565
ag4
aS'variable_11'
p1566
ag8
aS'variable_64'
p1567
ag8
aS'variable_1'
p1568
ag8
aS'variable_6'
p1569
ag37
ag55
ag8
ag94
ag8
aS'variable_40'
p1570
ag13
ag18
aS'func_103'
p1571
ag4
ag165
ag8
aS'Packet'
p1572
aS'Sequence'
p1573
aS'Number'
p1574
ag174
ag176
ag177
ag165
aS'variable_66'
p1575
ag8
aS'variable_33'
p1576
ag13
aS'func_104'
p1577
ag4
aS'variable_11'
p1578
ag8
aS'variable_42'
p1579
ag8
aS'variable_1'
p1580
ag8
aS'variable_6'
p1581
ag8
ag94
ag8
aS'variable_40'
p1582
ag13
ag18
aS'func_105'
p1583
ag4
aS'variable_11'
p1584
ag8
aS'variable_43'
p1585
ag8
aS'variable_1'
p1586
ag8
aS'variable_6'
p1587
ag37
ag94
ag8
ag88
ag8
aS'variable_44'
p1588
ag13
ag18
aS'func_106'
p1589
ag4
aS'variable_11'
p1590
ag8
aS'variable_45'
p1591
ag8
aS'variable_1'
p1592
ag8
aS'variable_6'
p1593
ag37
ag94
ag8
ag88
ag8
aS'variable_44'
p1594
ag13
ag18
aS'func_107'
p1595
ag4
aS'variable_11'
p1596
ag8
aS'variable_67'
p1597
ag8
aS'variable_1'
p1598
ag8
aS'variable_6'
p1599
ag37
ag55
ag8
ag94
ag8
aS'variable_40'
p1600
ag13
ag18
aS'for'
p1601
ag4
aS'variable_19'
p1602
ag16
ag17
ag18
aS'variable_19'
p1603
ag936
aS'variable_34'
p1604
ag18
aS'variable_19'
p1605
aS'++'
p1606
ag13
aS'func_108'
p1607
ag4
aS'variable_11'
p1608
ag8
aS'variable_64'
p1609
ag8
aS'variable_1'
p1610
ag8
aS'variable_6'
p1611
ag37
ag51
ag37
aS'variable_19'
p1612
ag8
ag94
ag8
aS'variable_40'
p1613
ag13
ag18
aS'func_109'
p1614
ag4
ag165
ag8
aS'Missing'
p1615
aS'Packets'
p1616
ag174
ag176
ag177
ag165
aS'variable_68'
p1617
ag8
aS'variable_34'
p1618
ag13
aS'if'
p1619
ag4
aS'variable_21'
p1620
ag13
aS'func_110'
p1621
ag4
aS'variable_12'
p1622
ag8
ag165
ag8
aS'Retransmission'
p1623
ag165
ag13
ag18
aS'fprintf'
p1624
ag4
aS'variable_36'
p1625
ag8
ag165
aS'dissect_wtp'
p1626
ag174
ag4
ag51
ag13
aS'tree'
p1627
aS'was'
p1628
ag176
ag182
ag185
ag186
ag165
ag8
aS'variable_5'
p1629
ag13
ag18
aS'if'
p1630
ag4
aS'variable_20'
p1631
ag13
aS'variable_69'
p1632
ag16
aS'func_111'
p1633
ag4
aS'variable_1'
p1634
ag8
aS'variable_6'
p1635
ag37
aS'variable_35'
p1636
ag37
aS'variable_70'
p1637
ag13
ag18
aS'variable_71'
p1638
ag16
aS'variable_69'
p1639
ag43
aS'0x80'
p1640
ag18
aS'if'
p1641
ag4
aS'variable_69'
p1642
ag43
aS'0x04'
p1643
ag13
aS'variable_72'
p1644
ag16
ag88
ag37
aS'func_112'
p1645
ag4
aS'variable_1'
p1646
ag8
aS'variable_6'
p1647
ag37
aS'variable_35'
p1648
ag37
aS'variable_70'
p1649
ag37
ag94
ag13
ag18
aS'variable_72'
p1650
ag16
ag94
ag37
ag4
aS'variable_69'
p1651
ag43
aS'0x03'
p1652
ag13
ag18
aS'if'
p1653
ag4
aS'variable_5'
p1654
ag13
aS'variable_73'
p1655
ag16
aS'func_113'
p1656
ag4
aS'variable_1'
p1657
ag8
aS'variable_6'
p1658
ag37
aS'variable_35'
p1659
ag37
aS'variable_70'
p1660
ag8
aS'variable_72'
p1661
ag8
aS'variable_72'
p1662
ag13
ag18
aS'func_114'
p1663
ag4
aS'variable_11'
p1664
ag8
aS'variable_73'
p1665
ag13
ag18
aS'variable_70'
p1666
aS'+='
p1667
aS'variable_72'
p1668
ag18
aS'while'
p1669
ag4
aS'variable_71'
p1670
ag13
aS'if'
p1671
ag4
aS'variable_5'
p1672
ag13
aS'func_115'
p1673
ag4
aS'variable_12'
p1674
ag8
aS'variable_35'
p1675
ag37
aS'variable_70'
p1676
ag13
ag18
aS'fprintf'
p1677
ag4
aS'variable_36'
p1678
ag8
ag165
aS'dissect_wtp'
p1679
ag174
aS'cbHeader'
p1680
ag16
ag176
ag180
ag185
ag186
ag165
ag8
aS'variable_35'
p1681
ag13
ag18
aS'variable_74'
p1682
ag16
aS'variable_6'
p1683
ag37
aS'variable_35'
p1684
ag37
aS'variable_70'
p1685
ag18
aS'variable_75'
p1686
ag16
aS'func_116'
p1687
ag4
aS'variable_1'
p1688
ag8
aS'variable_74'
p1689
ag13
ag18
aS'if'
p1690
ag4
ag4
aS'variable_75'
p1691
ag113
ag16
ag17
ag13
aS'&&'
p1692
ag115
ag4
ag4
aS'variable_22'
p1693
aS'=='
p1694
aS'variable_54'
p1695
ag13
aS'||'
p1696
ag4
aS'variable_22'
p1697
aS'=='
p1698
aS'variable_68'
p1699
ag13
aS'||'
p1700
ag4
aS'variable_22'
p1701
aS'=='
p1702
aS'variable_76'
p1703
ag13
ag13
ag13
aS'if'
p1704
ag4
ag4
ag4
aS'variable_22'
p1705
aS'=='
p1706
aS'variable_65'
p1707
ag13
aS'||'
p1708
ag4
aS'variable_22'
p1709
aS'=='
p1710
aS'variable_66'
p1711
ag13
aS'||'
p1712
ag4
ag4
ag4
aS'variable_22'
p1713
aS'=='
p1714
aS'variable_77'
p1715
ag13
aS'||'
p1716
ag4
aS'variable_22'
p1717
aS'=='
p1718
aS'variable_52'
p1719
ag13
ag13
aS'&&'
p1720
ag4
ag115
aS'variable_30'
p1721
ag13
ag13
ag13
aS'&&'
p1722
aS'func_117'
p1723
ag4
aS'variable_1'
p1724
ag8
aS'variable_74'
p1725
ag8
aS'variable_75'
p1726
ag13
ag13
aS'gboolean'
p1727
aS'variable_78'
p1728
ag16
aS'variable_3'
p1729
aS'->'
p1730
aS'variable_79'
p1731
ag18
aS'variable_3'
p1732
aS'->'
p1733
aS'variable_79'
p1734
ag16
aS'variable_80'
p1735
ag18
aS'variable_81'
p1736
ag16
aS'func_118'
p1737
ag4
aS'variable_1'
p1738
ag8
aS'variable_74'
p1739
ag8
aS'variable_3'
p1740
ag8
aS'variable_31'
p1741
ag8
aS'variable_82'
p1742
ag8
aS'variable_33'
p1743
ag8
aS'variable_75'
p1744
ag8
ag115
aS'variable_30'
p1745
ag13
ag18
aS'variable_83'
p1746
ag16
aS'func_119'
p1747
ag4
aS'variable_1'
p1748
ag8
aS'variable_74'
p1749
ag8
aS'variable_3'
p1750
ag8
ag165
aS'Reassembled'
p1751
aS'WTP'
p1752
ag165
ag8
aS'variable_81'
p1753
ag8
ag43
aS'variable_84'
p1754
ag8
aS'NULL'
p1755
ag8
aS'variable_11'
p1756
ag13
ag18
aS'printf'
p1757
ag4
ag165
aS'WTP'
p1758
ag174
aS'Packet'
p1759
ag176
ag177
ag176
ag178
aS'->'
p1760
ag176
ag180
ag174
aS'wsp_tvb'
p1761
ag16
ag176
ag182
ag8
aS'fd_wtp'
p1762
ag16
ag176
ag182
ag8
aS'frame'
p1763
ag16
ag176
ag177
ag185
ag186
ag165
ag8
aS'variable_3'
p1764
aS'->'
p1765
aS'variable_23'
p1766
aS'->'
p1767
aS'variable_24'
p1768
ag8
aS'variable_81'
p1769
ag193
ag165
aS'Reassembled'
p1770
ag165
ag174
ag165
aS'Not'
p1771
aS'reassembled'
p1772
ag165
ag8
aS'variable_81'
p1773
ag193
aS'variable_81'
p1774
aS'->'
p1775
aS'variable_85'
p1776
ag174
ag201
ag94
ag8
aS'variable_83'
p1777
ag8
aS'variable_81'
p1778
ag13
ag18
aS'if'
p1779
ag4
aS'variable_81'
p1780
ag13
aS'variable_85'
p1781
ag16
aS'variable_81'
p1782
aS'->'
p1783
aS'variable_85'
p1784
ag18
aS'if'
p1785
ag4
aS'variable_3'
p1786
aS'->'
p1787
aS'variable_23'
p1788
aS'->'
p1789
aS'variable_24'
p1790
aS'=='
p1791
aS'variable_85'
p1792
ag13
aS'func_120'
p1793
ag4
aS'variable_86'
p1794
ag8
aS'variable_83'
p1795
ag8
aS'variable_3'
p1796
ag8
aS'variable_5'
p1797
ag13
ag18
aS'if'
p1798
ag4
aS'func_121'
p1799
ag4
aS'variable_3'
p1800
aS'->'
p1801
aS'variable_17'
p1802
ag8
aS'variable_18'
p1803
ag13
ag13
aS'func_122'
p1804
ag4
aS'variable_3'
p1805
aS'->'
p1806
aS'variable_17'
p1807
ag8
aS'variable_18'
p1808
ag8
ag165
ag176
ag178
ag4
aS'WTP'
p1809
aS'payload'
p1810
aS'reassembled'
p1811
aS'in'
p1812
aS'packet'
p1813
ag176
ag177
ag13
ag165
ag8
aS'variable_27'
p1814
ag8
aS'variable_81'
p1815
aS'->'
p1816
aS'variable_85'
p1817
ag13
ag18
aS'if'
p1818
ag4
aS'variable_5'
p1819
ag13
aS'func_123'
p1820
ag4
aS'variable_11'
p1821
ag8
aS'variable_1'
p1822
ag8
aS'variable_74'
p1823
ag8
ag201
ag94
ag8
ag165
aS'Payload'
p1824
ag165
ag13
ag18
aS'if'
p1825
ag4
aS'func_124'
p1826
ag4
aS'variable_3'
p1827
aS'->'
p1828
aS'variable_17'
p1829
ag8
aS'variable_18'
p1830
ag13
ag13
aS'func_125'
p1831
ag4
aS'variable_3'
p1832
aS'->'
p1833
aS'variable_17'
p1834
ag8
aS'variable_18'
p1835
ag8
ag165
ag176
ag178
ag4
aS'Unreassembled'
p1836
aS'fragment'
p1837
ag176
ag177
ag13
ag165
ag8
aS'variable_27'
p1838
ag8
aS'variable_33'
p1839
ag13
ag18
aS'if'
p1840
ag4
aS'variable_5'
p1841
ag13
aS'func_126'
p1842
ag4
aS'variable_11'
p1843
ag8
aS'variable_1'
p1844
ag8
aS'variable_74'
p1845
ag8
ag201
ag94
ag8
ag165
aS'Payload'
p1846
ag165
ag13
ag18
aS'variable_3'
p1847
aS'->'
p1848
aS'variable_79'
p1849
ag16
aS'variable_78'
p1850
ag18
aS'if'
p1851
ag4
ag4
ag4
aS'variable_22'
p1852
aS'=='
p1853
aS'variable_77'
p1854
ag13
aS'||'
p1855
ag4
aS'variable_22'
p1856
aS'=='
p1857
aS'variable_52'
p1858
ag13
ag13
aS'&&'
p1859
ag4
aS'variable_30'
p1860
ag13
ag13
aS'variable_83'
p1861
ag16
aS'func_127'
p1862
ag4
aS'variable_1'
p1863
ag8
aS'variable_74'
p1864
ag13
ag18
aS'func_128'
p1865
ag4
aS'variable_86'
p1866
ag8
aS'variable_83'
p1867
ag8
aS'variable_3'
p1868
ag8
aS'variable_5'
p1869
ag13
ag18
aS'if'
p1870
ag4
aS'func_129'
p1871
ag4
aS'variable_3'
p1872
aS'->'
p1873
aS'variable_17'
p1874
ag8
aS'variable_18'
p1875
ag13
ag13
aS'func_130'
p1876
ag4
aS'variable_3'
p1877
aS'->'
p1878
aS'variable_17'
p1879
ag8
aS'variable_18'
p1880
ag8
aS'variable_27'
p1881
ag13
ag18
aS'if'
p1882
ag4
aS'func_131'
p1883
ag4
aS'variable_3'
p1884
aS'->'
p1885
aS'variable_17'
p1886
ag8
aS'variable_18'
p1887
ag13
ag13
aS'func_132'
p1888
ag4
aS'variable_3'
p1889
aS'->'
p1890
aS'variable_17'
p1891
ag8
aS'variable_18'
p1892
ag8
aS'variable_27'
p1893
ag13
ag18
aS'variable_6'
p1894
aS'+='
p1895
aS'variable_9'
p1896
ag37
aS'variable_10'
p1897
ag18
aS'if'
p1898
ag4
aS'variable_5'
p1899
ag13
aS'func_133'
p1900
ag4
aS'variable_12'
p1901
ag8
ag165
ag8
aS'PDU'
p1902
aS'count'
p1903
ag174
ag176
ag177
ag165
ag8
aS'variable_19'
p1904
ag13
ag18
aS'variable_20'
p1905
ag16
aS'variable_7'
p1906
ag43
aS'0x80'
p1907
ag18
aS'variable_21'
p1908
ag16
aS'func_134'
p1909
ag4
aS'variable_7'
p1910
ag13
ag18
aS'variable_22'
p1911
ag16
aS'func_135'
p1912
ag4
aS'variable_7'
p1913
ag13
ag18
aS'printf'
p1914
ag4
ag165
aS'WTP'
p1915
aS'packet'
p1916
ag176
ag177
ag174
aS'tree'
p1917
ag16
ag176
ag182
ag8
aS'pdu'
p1918
ag16
ag176
ag178
ag4
ag176
ag177
ag13
aS'length'
p1919
ag174
ag176
ag177
ag185
ag186
ag165
ag8
aS'variable_3'
p1920
aS'->'
p1921
aS'variable_23'
p1922
aS'->'
p1923
aS'variable_24'
p1924
ag8
aS'variable_5'
p1925
ag8
aS'func_136'
p1926
ag4
aS'variable_22'
p1927
ag8
aS'variable_25'
p1928
ag8
ag165
aS'Unknown'
p1929
aS'PDU'
p1930
aS'type'
p1931
aS'0x'
p1932
ag176
ag645
ag165
ag13
ag8
aS'variable_22'
p1933
ag8
aS'func_137'
p1934
ag4
aS'variable_1'
p1935
ag13
ag13
ag18
aS'variable_26'
p1936
ag16
aS'func_138'
p1937
ag4
aS'variable_27'
p1938
ag8
aS'variable_28'
p1939
ag8
ag165
aS'WTP'
p1940
ag176
ag178
ag165
ag8
aS'func_139'
p1941
ag4
aS'variable_22'
p1942
ag8
aS'variable_25'
p1943
ag8
ag165
aS'Unknown'
p1944
aS'PDU'
p1945
aS'type'
p1946
aS'0x'
p1947
ag176
ag645
ag165
ag13
ag13
ag18
aS'variable_29'
p1948
aS'+='
p1949
aS'func_140'
p1950
ag4
aS'variable_26'
p1951
ag8
aS'variable_28'
p1952
ag201
aS'variable_29'
p1953
ag13
ag18
aS'switch'
p1954
ag4
aS'variable_22'
p1955
ag13
aS'variable_30'
p1956
ag16
aS'func_141'
p1957
ag4
aS'variable_7'
p1958
ag13
ag18
aS'variable_31'
p1959
ag16
aS'func_142'
p1960
ag4
aS'variable_1'
p1961
ag8
aS'variable_6'
p1962
ag37
ag94
ag13
ag18
aS'variable_32'
p1963
ag16
aS'func_143'
p1964
ag4
aS'func_144'
p1965
ag4
aS'variable_1'
p1966
ag8
aS'variable_6'
p1967
ag37
ag55
ag13
ag13
ag18
aS'variable_26'
p1968
ag16
aS'func_145'
p1969
ag4
ag43
aS'variable_27'
p1970
ag663
aS'variable_29'
p1971
ag665
ag8
aS'variable_28'
p1972
ag201
aS'variable_29'
p1973
ag8
ag165
aS'Class'
p1974
ag176
ag180
ag165
ag8
aS'variable_32'
p1975
ag13
ag18
aS'variable_29'
p1976
aS'+='
p1977
aS'func_146'
p1978
ag4
aS'variable_26'
p1979
ag8
aS'variable_28'
p1980
ag201
aS'variable_29'
p1981
ag13
ag18
aS'variable_30'
p1982
ag16
aS'func_147'
p1983
ag4
aS'variable_7'
p1984
ag13
ag18
aS'variable_31'
p1985
ag16
aS'func_148'
p1986
ag4
aS'variable_1'
p1987
ag8
aS'variable_6'
p1988
ag37
ag94
ag13
ag18
aS'variable_33'
p1989
ag16
aS'func_149'
p1990
ag4
aS'variable_1'
p1991
ag8
aS'variable_6'
p1992
ag37
ag55
ag13
ag18
aS'if'
p1993
ag4
aS'variable_33'
p1994
aS'!='
p1995
ag17
ag13
aS'variable_26'
p1996
ag16
aS'func_150'
p1997
ag4
ag43
aS'variable_27'
p1998
ag663
aS'variable_29'
p1999
ag665
ag8
aS'variable_28'
p2000
ag201
aS'variable_29'
p2001
ag8
ag165
ag4
ag176
ag177
ag13
ag165
ag8
aS'variable_33'
p2002
ag13
ag18
aS'variable_29'
p2003
aS'+='
p2004
aS'func_151'
p2005
ag4
aS'variable_26'
p2006
ag8
aS'variable_28'
p2007
ag201
aS'variable_29'
p2008
ag13
ag18
aS'variable_30'
p2009
ag16
aS'func_152'
p2010
ag4
aS'variable_7'
p2011
ag13
ag18
aS'variable_31'
p2012
ag16
aS'func_153'
p2013
ag4
aS'variable_1'
p2014
ag8
aS'variable_6'
p2015
ag37
ag94
ag13
ag18
aS'variable_34'
p2016
ag16
aS'func_154'
p2017
ag4
aS'variable_1'
p2018
ag8
aS'variable_6'
p2019
ag37
ag55
ag13
ag18
aS'variable_35'
p2020
ag16
aS'variable_34'
p2021
ag37
ag51
ag18
aS'if'
p2022
ag4
aS'variable_21'
p2023
ag13
aS'variable_26'
p2024
ag16
aS'func_155'
p2025
ag4
ag43
aS'variable_27'
p2026
ag663
aS'variable_29'
p2027
ag665
ag8
aS'variable_28'
p2028
ag201
aS'variable_29'
p2029
ag8
ag165
ag704
ag165
ag13
ag18
aS'variable_29'
p2030
aS'+='
p2031
aS'func_156'
p2032
ag4
aS'variable_26'
p2033
ag8
aS'variable_28'
p2034
ag201
aS'variable_29'
p2035
ag13
ag18
aS'if'
p2036
ag4
aS'variable_5'
p2037
ag13
aS'fprintf'
p2038
ag4
aS'variable_36'
p2039
ag8
ag165
aS'dissect_wtp'
p2040
ag174
aS'cbHeader'
p2041
ag16
ag176
ag180
ag185
ag186
ag165
ag8
aS'variable_35'
p2042
ag13
ag18
aS'variable_12'
p2043
ag16
aS'func_157'
p2044
ag4
aS'variable_5'
p2045
ag8
aS'variable_13'
p2046
ag8
aS'variable_1'
p2047
ag8
aS'variable_6'
p2048
ag8
ag17
ag8
aS'variable_14'
p2049
ag13
ag18
aS'fprintf'
p2050
ag4
aS'variable_36'
p2051
ag8
ag165
aS'dissect_wtp'
p2052
ag174
ag4
ag1286
ag13
aS'Returned'
p2053
aS'from'
p2054
aS'proto_tree_add_item'
p2055
ag185
ag186
ag165
ag13
ag18
aS'variable_11'
p2056
ag16
aS'func_158'
p2057
ag4
aS'variable_12'
p2058
ag8
aS'variable_37'
p2059
ag13
ag18
aS'fprintf'
p2060
ag4
aS'variable_36'
p2061
ag8
ag165
aS'dissect_wtp'
p2062
ag174
aS'cbHeader'
p2063
ag16
ag176
ag180
ag185
ag186
ag165
ag8
aS'variable_35'
p2064
ag13
ag18
aS'fprintf'
p2065
ag4
aS'variable_36'
p2066
ag8
ag165
aS'dissect_wtp'
p2067
ag174
aS'offCur'
p2068
ag16
ag176
ag180
ag185
ag186
ag165
ag8
aS'variable_6'
p2069
ag13
ag18
aS'func_159'
p2070
ag4
aS'variable_11'
p2071
ag8
aS'variable_38'
p2072
ag8
aS'variable_1'
p2073
ag8
aS'variable_6'
p2074
ag8
ag94
ag8
aS'variable_7'
p2075
ag13
ag18
aS'func_160'
p2076
ag4
aS'variable_11'
p2077
ag8
aS'variable_39'
p2078
ag8
aS'variable_1'
p2079
ag8
aS'variable_6'
p2080
ag8
ag94
ag8
aS'variable_40'
p2081
ag13
ag18
aS'switch'
p2082
ag4
aS'variable_22'
p2083
ag13
aS'func_161'
p2084
ag4
aS'variable_11'
p2085
ag8
aS'variable_41'
p2086
ag8
aS'variable_1'
p2087
ag8
aS'variable_6'
p2088
ag8
ag94
ag8
aS'variable_40'
p2089
ag13
ag18
aS'func_162'
p2090
ag4
aS'variable_11'
p2091
ag8
aS'variable_42'
p2092
ag8
aS'variable_1'
p2093
ag8
aS'variable_6'
p2094
ag8
ag94
ag8
aS'variable_40'
p2095
ag13
ag18
aS'func_163'
p2096
ag4
aS'variable_11'
p2097
ag8
aS'variable_43'
p2098
ag8
aS'variable_1'
p2099
ag8
aS'variable_6'
p2100
ag37
ag94
ag8
ag88
ag8
aS'variable_44'
p2101
ag13
ag18
aS'func_164'
p2102
ag4
aS'variable_11'
p2103
ag8
aS'variable_45'
p2104
ag8
aS'variable_1'
p2105
ag8
aS'variable_6'
p2106
ag37
ag94
ag8
ag88
ag8
aS'variable_44'
p2107
ag13
ag18
aS'func_165'
p2108
ag4
aS'variable_11'
p2109
ag8
aS'variable_46'
p2110
ag8
aS'variable_1'
p2111
ag8
aS'variable_6'
p2112
ag37
ag55
ag8
ag94
ag8
aS'variable_40'
p2113
ag13
ag18
aS'func_166'
p2114
ag4
aS'variable_11'
p2115
ag8
aS'variable_47'
p2116
ag8
aS'variable_1'
p2117
ag8
aS'variable_6'
p2118
ag37
ag55
ag8
ag94
ag8
aS'variable_40'
p2119
ag13
ag18
aS'func_167'
p2120
ag4
aS'variable_11'
p2121
ag8
aS'variable_48'
p2122
ag8
aS'variable_1'
p2123
ag8
aS'variable_6'
p2124
ag37
ag55
ag8
ag94
ag8
aS'variable_40'
p2125
ag13
ag18
aS'func_168'
p2126
ag4
aS'variable_11'
p2127
ag8
aS'variable_49'
p2128
ag8
aS'variable_1'
p2129
ag8
aS'variable_6'
p2130
ag37
ag55
ag8
ag94
ag8
aS'variable_40'
p2131
ag13
ag18
aS'func_169'
p2132
ag4
aS'variable_11'
p2133
ag8
aS'variable_50'
p2134
ag8
aS'variable_1'
p2135
ag8
aS'variable_6'
p2136
ag37
ag55
ag8
ag94
ag8
aS'variable_40'
p2137
ag13
ag18
aS'func_170'
p2138
ag4
ag165
ag8
aS'Transaction'
p2139
aS'Class'
p2140
ag174
ag176
ag178
ag4
ag176
ag177
ag13
ag165
aS'func_171'
p2141
ag4
aS'variable_32'
p2142
ag8
aS'variable_51'
p2143
ag8
ag165
aS'Undefined'
p2144
ag165
ag13
aS'variable_32'
p2145
ag13
aS'func_172'
p2146
ag4
aS'variable_11'
p2147
ag8
aS'variable_41'
p2148
ag8
aS'variable_1'
p2149
ag8
aS'variable_6'
p2150
ag8
ag94
ag8
aS'variable_40'
p2151
ag13
ag18
aS'func_173'
p2152
ag4
aS'variable_11'
p2153
ag8
aS'variable_42'
p2154
ag8
aS'variable_1'
p2155
ag8
aS'variable_6'
p2156
ag8
ag94
ag8
aS'variable_40'
p2157
ag13
ag18
aS'func_174'
p2158
ag4
aS'variable_11'
p2159
ag8
aS'variable_43'
p2160
ag8
aS'variable_1'
p2161
ag8
aS'variable_6'
p2162
ag37
ag94
ag8
ag88
ag8
aS'variable_44'
p2163
ag13
ag18
aS'func_175'
p2164
ag4
aS'variable_11'
p2165
ag8
aS'variable_45'
p2166
ag8
aS'variable_1'
p2167
ag8
aS'variable_6'
p2168
ag37
ag94
ag8
ag88
ag8
aS'variable_44'
p2169
ag13
ag18
aS'func_176'
p2170
ag4
aS'variable_12'
p2171
ag8
ag165
ag8
aS'PDU'
p2172
ag174
aS'Result'
p2173
ag4
ag176
ag177
ag13
ag165
ag8
aS'variable_52'
p2174
ag13
ag18
aS'func_177'
p2175
ag4
aS'variable_11'
p2176
ag8
aS'variable_53'
p2177
ag8
aS'variable_1'
p2178
ag8
aS'variable_6'
p2179
ag8
ag94
ag8
aS'variable_44'
p2180
ag13
ag18
aS'func_178'
p2181
ag4
aS'variable_11'
p2182
ag8
aS'variable_42'
p2183
ag8
aS'variable_1'
p2184
ag8
aS'variable_6'
p2185
ag8
ag94
ag8
aS'variable_40'
p2186
ag13
ag18
aS'func_179'
p2187
ag4
aS'variable_11'
p2188
ag8
aS'variable_43'
p2189
ag8
aS'variable_1'
p2190
ag8
aS'variable_6'
p2191
ag37
ag94
ag8
ag88
ag8
aS'variable_44'
p2192
ag13
ag18
aS'func_180'
p2193
ag4
aS'variable_11'
p2194
ag8
aS'variable_45'
p2195
ag8
aS'variable_1'
p2196
ag8
aS'variable_6'
p2197
ag37
ag94
ag8
ag88
ag8
aS'variable_44'
p2198
ag13
ag18
aS'func_181'
p2199
ag4
aS'variable_12'
p2200
ag8
ag165
ag8
aS'PDU'
p2201
ag174
aS'ACK'
p2202
ag4
ag176
ag177
ag13
ag165
ag8
aS'variable_54'
p2203
ag13
ag18
aS'variable_55'
p2204
ag16
aS'func_182'
p2205
ag4
aS'variable_1'
p2206
ag8
aS'variable_6'
p2207
ag13
ag43
aS'0x07'
p2208
ag18
aS'func_183'
p2209
ag4
aS'variable_11'
p2210
ag8
aS'variable_56'
p2211
ag8
aS'variable_1'
p2212
ag8
aS'variable_6'
p2213
ag8
ag94
ag8
aS'variable_40'
p2214
ag13
ag18
aS'func_184'
p2215
ag4
aS'variable_11'
p2216
ag8
aS'variable_43'
p2217
ag8
aS'variable_1'
p2218
ag8
aS'variable_6'
p2219
ag37
ag94
ag8
ag88
ag8
aS'variable_44'
p2220
ag13
ag18
aS'func_185'
p2221
ag4
aS'variable_11'
p2222
ag8
aS'variable_45'
p2223
ag8
aS'variable_1'
p2224
ag8
aS'variable_6'
p2225
ag37
ag94
ag8
ag88
ag8
aS'variable_44'
p2226
ag13
ag18
aS'if'
p2227
ag4
aS'variable_55'
p2228
aS'=='
p2229
aS'variable_57'
p2230
ag13
aS'guint8'
p2231
aS'variable_58'
p2232
ag16
aS'func_186'
p2233
ag4
aS'variable_1'
p2234
ag8
aS'variable_6'
p2235
ag37
ag55
ag13
ag18
aS'func_187'
p2236
ag4
aS'variable_11'
p2237
ag8
aS'variable_59'
p2238
ag8
aS'variable_1'
p2239
ag8
aS'variable_6'
p2240
ag37
ag55
ag8
ag94
ag8
aS'variable_40'
p2241
ag13
ag18
aS'func_188'
p2242
ag4
ag165
ag8
aS'Reason'
p2243
ag174
ag176
ag178
ag4
ag176
ag177
ag13
ag165
aS'func_189'
p2244
ag4
aS'variable_58'
p2245
ag8
aS'variable_60'
p2246
ag8
ag165
aS'Undefined'
p2247
ag165
ag13
aS'variable_58'
p2248
ag13
aS'if'
p2249
ag4
aS'variable_55'
p2250
aS'=='
p2251
aS'variable_61'
p2252
ag13
aS'guint8'
p2253
aS'variable_58'
p2254
ag16
aS'func_190'
p2255
ag4
aS'variable_1'
p2256
ag8
aS'variable_6'
p2257
ag37
ag55
ag13
ag18
aS'func_191'
p2258
ag4
aS'variable_11'
p2259
ag8
aS'variable_62'
p2260
ag8
aS'variable_1'
p2261
ag8
aS'variable_6'
p2262
ag37
ag55
ag8
ag94
ag8
aS'variable_40'
p2263
ag13
ag18
aS'func_192'
p2264
ag4
ag165
ag8
aS'Reason'
p2265
ag174
ag176
ag178
ag4
ag176
ag177
ag13
ag165
aS'func_193'
p2266
ag4
aS'variable_58'
p2267
ag8
ag43
aS'variable_63'
p2268
ag8
ag165
aS'Undefined'
p2269
ag165
ag13
aS'variable_58'
p2270
ag13
aS'func_194'
p2271
ag4
aS'variable_11'
p2272
ag8
aS'variable_41'
p2273
ag8
aS'variable_1'
p2274
ag8
aS'variable_6'
p2275
ag8
ag94
ag8
aS'variable_40'
p2276
ag13
ag18
aS'func_195'
p2277
ag4
aS'variable_11'
p2278
ag8
aS'variable_42'
p2279
ag8
aS'variable_1'
p2280
ag8
aS'variable_6'
p2281
ag8
ag94
ag8
aS'variable_40'
p2282
ag13
ag18
aS'func_196'
p2283
ag4
aS'variable_11'
p2284
ag8
aS'variable_43'
p2285
ag8
aS'variable_1'
p2286
ag8
aS'variable_6'
p2287
ag37
ag94
ag8
ag88
ag8
aS'variable_44'
p2288
ag13
ag18
aS'func_197'
p2289
ag4
aS'variable_11'
p2290
ag8
aS'variable_45'
p2291
ag8
aS'variable_1'
p2292
ag8
aS'variable_6'
p2293
ag37
ag94
ag8
ag88
ag8
aS'variable_44'
p2294
ag13
ag18
aS'func_198'
p2295
ag4
aS'variable_11'
p2296
ag8
aS'variable_64'
p2297
ag8
aS'variable_1'
p2298
ag8
aS'variable_6'
p2299
ag37
ag55
ag8
ag94
ag8
aS'variable_40'
p2300
ag13
ag18
aS'func_199'
p2301
ag4
ag165
ag8
aS'Packet'
p2302
aS'Sequence'
p2303
aS'Number'
p2304
ag174
ag176
ag177
ag165
aS'variable_65'
p2305
ag8
aS'variable_33'
p2306
ag13
aS'func_200'
p2307
ag4
aS'variable_11'
p2308
ag8
aS'variable_41'
p2309
ag8
aS'variable_1'
p2310
ag8
aS'variable_6'
p2311
ag8
ag94
ag8
aS'variable_40'
p2312
ag13
ag18
aS'func_201'
p2313
ag4
aS'variable_11'
p2314
ag8
aS'variable_42'
p2315
ag8
aS'variable_1'
p2316
ag8
aS'variable_6'
p2317
ag8
ag94
ag8
aS'variable_40'
p2318
ag13
ag18
aS'func_202'
p2319
ag4
aS'variable_11'
p2320
ag8
aS'variable_43'
p2321
ag8
aS'variable_1'
p2322
ag8
aS'variable_6'
p2323
ag37
ag94
ag8
ag88
ag8
aS'variable_44'
p2324
ag13
ag18
aS'func_203'
p2325
ag4
aS'variable_11'
p2326
ag8
aS'variable_45'
p2327
ag8
aS'variable_1'
p2328
ag8
aS'variable_6'
p2329
ag37
ag94
ag8
ag88
ag8
aS'variable_44'
p2330
ag13
ag18
aS'func_204'
p2331
ag4
aS'variable_11'
p2332
ag8
aS'variable_64'
p2333
ag8
aS'variable_1'
p2334
ag8
aS'variable_6'
p2335
ag37
ag55
ag8
ag94
ag8
aS'variable_40'
p2336
ag13
ag18
aS'func_205'
p2337
ag4
ag165
ag8
aS'Packet'
p2338
aS'Sequence'
p2339
aS'Number'
p2340
ag174
ag176
ag177
ag165
aS'variable_66'
p2341
ag8
aS'variable_33'
p2342
ag13
aS'func_206'
p2343
ag4
aS'variable_11'
p2344
ag8
aS'variable_42'
p2345
ag8
aS'variable_1'
p2346
ag8
aS'variable_6'
p2347
ag8
ag94
ag8
aS'variable_40'
p2348
ag13
ag18
aS'func_207'
p2349
ag4
aS'variable_11'
p2350
ag8
aS'variable_43'
p2351
ag8
aS'variable_1'
p2352
ag8
aS'variable_6'
p2353
ag37
ag94
ag8
ag88
ag8
aS'variable_44'
p2354
ag13
ag18
aS'func_208'
p2355
ag4
aS'variable_11'
p2356
ag8
aS'variable_45'
p2357
ag8
aS'variable_1'
p2358
ag8
aS'variable_6'
p2359
ag37
ag94
ag8
ag88
ag8
aS'variable_44'
p2360
ag13
ag18
aS'func_209'
p2361
ag4
aS'variable_11'
p2362
ag8
aS'variable_67'
p2363
ag8
aS'variable_1'
p2364
ag8
aS'variable_6'
p2365
ag37
ag55
ag8
ag94
ag8
aS'variable_40'
p2366
ag13
ag18
aS'func_210'
p2367
ag4
aS'variable_11'
p2368
ag8
aS'variable_64'
p2369
ag8
aS'variable_1'
p2370
ag8
aS'variable_6'
p2371
ag37
ag51
ag37
aS'variable_19'
p2372
ag8
ag94
ag8
aS'variable_40'
p2373
ag13
ag18
aS'func_211'
p2374
ag4
ag165
ag8
aS'Missing'
p2375
aS'Packets'
p2376
ag174
ag176
ag177
ag165
aS'variable_68'
p2377
ag8
aS'variable_34'
p2378
ag13
aS'if'
p2379
ag4
aS'variable_21'
p2380
ag13
aS'func_212'
p2381
ag4
aS'variable_12'
p2382
ag8
ag165
ag8
aS'Retransmission'
p2383
ag165
ag13
ag18
aS'fprintf'
p2384
ag4
aS'variable_36'
p2385
ag8
ag165
aS'dissect_wtp'
p2386
ag174
ag4
ag51
ag13
aS'tree'
p2387
aS'was'
p2388
ag176
ag182
ag185
ag186
ag165
ag8
aS'variable_5'
p2389
ag13
ag18
aS'if'
p2390
ag4
aS'variable_20'
p2391
ag13
aS'variable_69'
p2392
ag16
aS'func_213'
p2393
ag4
aS'variable_1'
p2394
ag8
aS'variable_6'
p2395
ag37
aS'variable_35'
p2396
ag37
aS'variable_70'
p2397
ag13
ag18
aS'variable_71'
p2398
ag16
aS'variable_69'
p2399
ag43
aS'0x80'
p2400
ag18
aS'if'
p2401
ag4
aS'variable_69'
p2402
ag43
aS'0x04'
p2403
ag13
aS'variable_72'
p2404
ag16
ag88
ag37
aS'func_214'
p2405
ag4
aS'variable_1'
p2406
ag8
aS'variable_6'
p2407
ag37
aS'variable_35'
p2408
ag37
aS'variable_70'
p2409
ag37
ag94
ag13
ag18
aS'variable_72'
p2410
ag16
ag94
ag37
ag4
aS'variable_69'
p2411
ag43
aS'0x03'
p2412
ag13
ag18
aS'if'
p2413
ag4
aS'variable_5'
p2414
ag13
aS'variable_73'
p2415
ag16
aS'func_215'
p2416
ag4
aS'variable_1'
p2417
ag8
aS'variable_6'
p2418
ag37
aS'variable_35'
p2419
ag37
aS'variable_70'
p2420
ag8
aS'variable_72'
p2421
ag8
aS'variable_72'
p2422
ag13
ag18
aS'func_216'
p2423
ag4
aS'variable_11'
p2424
ag8
aS'variable_73'
p2425
ag13
ag18
aS'variable_70'
p2426
aS'+='
p2427
aS'variable_72'
p2428
ag18
aS'while'
p2429
ag4
aS'variable_71'
p2430
ag13
aS'if'
p2431
ag4
aS'variable_5'
p2432
ag13
aS'func_217'
p2433
ag4
aS'variable_12'
p2434
ag8
aS'variable_35'
p2435
ag37
aS'variable_70'
p2436
ag13
ag18
aS'fprintf'
p2437
ag4
aS'variable_36'
p2438
ag8
ag165
aS'dissect_wtp'
p2439
ag174
aS'cbHeader'
p2440
ag16
ag176
ag180
ag185
ag186
ag165
ag8
aS'variable_35'
p2441
ag13
ag18
aS'variable_74'
p2442
ag16
aS'variable_6'
p2443
ag37
aS'variable_35'
p2444
ag37
aS'variable_70'
p2445
ag18
aS'variable_75'
p2446
ag16
aS'func_218'
p2447
ag4
aS'variable_1'
p2448
ag8
aS'variable_74'
p2449
ag13
ag18
aS'if'
p2450
ag4
ag4
aS'variable_75'
p2451
ag113
ag16
ag17
ag13
aS'&&'
p2452
ag115
ag4
ag4
aS'variable_22'
p2453
aS'=='
p2454
aS'variable_54'
p2455
ag13
aS'||'
p2456
ag4
aS'variable_22'
p2457
aS'=='
p2458
aS'variable_68'
p2459
ag13
aS'||'
p2460
ag4
aS'variable_22'
p2461
aS'=='
p2462
aS'variable_76'
p2463
ag13
ag13
ag13
aS'if'
p2464
ag4
ag4
ag4
aS'variable_22'
p2465
aS'=='
p2466
aS'variable_65'
p2467
ag13
aS'||'
p2468
ag4
aS'variable_22'
p2469
aS'=='
p2470
aS'variable_66'
p2471
ag13
aS'||'
p2472
ag4
ag4
ag4
aS'variable_22'
p2473
aS'=='
p2474
aS'variable_77'
p2475
ag13
aS'||'
p2476
ag4
aS'variable_22'
p2477
aS'=='
p2478
aS'variable_52'
p2479
ag13
ag13
aS'&&'
p2480
ag4
ag115
aS'variable_30'
p2481
ag13
ag13
ag13
aS'&&'
p2482
aS'func_219'
p2483
ag4
aS'variable_1'
p2484
ag8
aS'variable_74'
p2485
ag8
aS'variable_75'
p2486
ag13
ag13
aS'gboolean'
p2487
aS'variable_78'
p2488
ag16
aS'variable_3'
p2489
aS'->'
p2490
aS'variable_79'
p2491
ag18
aS'variable_3'
p2492
aS'->'
p2493
aS'variable_79'
p2494
ag16
aS'variable_80'
p2495
ag18
aS'variable_81'
p2496
ag16
aS'func_220'
p2497
ag4
aS'variable_1'
p2498
ag8
aS'variable_74'
p2499
ag8
aS'variable_3'
p2500
ag8
aS'variable_31'
p2501
ag8
aS'variable_82'
p2502
ag8
aS'variable_33'
p2503
ag8
aS'variable_75'
p2504
ag8
ag115
aS'variable_30'
p2505
ag13
ag18
aS'variable_83'
p2506
ag16
aS'func_221'
p2507
ag4
aS'variable_1'
p2508
ag8
aS'variable_74'
p2509
ag8
aS'variable_3'
p2510
ag8
ag165
aS'Reassembled'
p2511
aS'WTP'
p2512
ag165
ag8
aS'variable_81'
p2513
ag8
ag43
aS'variable_84'
p2514
ag8
aS'NULL'
p2515
ag8
aS'variable_11'
p2516
ag13
ag18
aS'printf'
p2517
ag4
ag165
aS'WTP'
p2518
ag174
aS'Packet'
p2519
ag176
ag177
ag176
ag178
aS'->'
p2520
ag176
ag180
ag174
aS'wsp_tvb'
p2521
ag16
ag176
ag182
ag8
aS'fd_wtp'
p2522
ag16
ag176
ag182
ag8
aS'frame'
p2523
ag16
ag176
ag177
ag185
ag186
ag165
ag8
aS'variable_3'
p2524
aS'->'
p2525
aS'variable_23'
p2526
aS'->'
p2527
aS'variable_24'
p2528
ag8
aS'variable_81'
p2529
ag193
ag165
aS'Reassembled'
p2530
ag165
ag174
ag165
aS'Not'
p2531
aS'reassembled'
p2532
ag165
ag8
aS'variable_81'
p2533
ag193
aS'variable_81'
p2534
aS'->'
p2535
aS'variable_85'
p2536
ag174
ag201
ag94
ag8
aS'variable_83'
p2537
ag8
aS'variable_81'
p2538
ag13
ag18
aS'if'
p2539
ag4
aS'variable_81'
p2540
ag13
aS'variable_85'
p2541
ag16
aS'variable_81'
p2542
aS'->'
p2543
aS'variable_85'
p2544
ag18
aS'if'
p2545
ag4
aS'variable_3'
p2546
aS'->'
p2547
aS'variable_23'
p2548
aS'->'
p2549
aS'variable_24'
p2550
aS'=='
p2551
aS'variable_85'
p2552
ag13
aS'func_222'
p2553
ag4
aS'variable_86'
p2554
ag8
aS'variable_83'
p2555
ag8
aS'variable_3'
p2556
ag8
aS'variable_5'
p2557
ag13
ag18
aS'if'
p2558
ag4
aS'func_223'
p2559
ag4
aS'variable_3'
p2560
aS'->'
p2561
aS'variable_17'
p2562
ag8
aS'variable_18'
p2563
ag13
ag13
aS'func_224'
p2564
ag4
aS'variable_3'
p2565
aS'->'
p2566
aS'variable_17'
p2567
ag8
aS'variable_18'
p2568
ag8
ag165
ag176
ag178
ag4
aS'WTP'
p2569
aS'payload'
p2570
aS'reassembled'
p2571
aS'in'
p2572
aS'packet'
p2573
ag176
ag177
ag13
ag165
ag8
aS'variable_27'
p2574
ag8
aS'variable_81'
p2575
aS'->'
p2576
aS'variable_85'
p2577
ag13
ag18
aS'if'
p2578
ag4
aS'variable_5'
p2579
ag13
aS'func_225'
p2580
ag4
aS'variable_11'
p2581
ag8
aS'variable_1'
p2582
ag8
aS'variable_74'
p2583
ag8
ag201
ag94
ag8
ag165
aS'Payload'
p2584
ag165
ag13
ag18
aS'if'
p2585
ag4
aS'func_226'
p2586
ag4
aS'variable_3'
p2587
aS'->'
p2588
aS'variable_17'
p2589
ag8
aS'variable_18'
p2590
ag13
ag13
aS'func_227'
p2591
ag4
aS'variable_3'
p2592
aS'->'
p2593
aS'variable_17'
p2594
ag8
aS'variable_18'
p2595
ag8
ag165
ag176
ag178
ag4
aS'Unreassembled'
p2596
aS'fragment'
p2597
ag176
ag177
ag13
ag165
ag8
aS'variable_27'
p2598
ag8
aS'variable_33'
p2599
ag13
ag18
aS'if'
p2600
ag4
aS'variable_5'
p2601
ag13
aS'func_228'
p2602
ag4
aS'variable_11'
p2603
ag8
aS'variable_1'
p2604
ag8
aS'variable_74'
p2605
ag8
ag201
ag94
ag8
ag165
aS'Payload'
p2606
ag165
ag13
ag18
aS'variable_3'
p2607
aS'->'
p2608
aS'variable_79'
p2609
ag16
aS'variable_78'
p2610
ag18
aS'if'
p2611
ag4
ag4
ag4
aS'variable_22'
p2612
aS'=='
p2613
aS'variable_77'
p2614
ag13
aS'||'
p2615
ag4
aS'variable_22'
p2616
aS'=='
p2617
aS'variable_52'
p2618
ag13
ag13
aS'&&'
p2619
ag4
aS'variable_30'
p2620
ag13
ag13
aS'variable_83'
p2621
ag16
aS'func_229'
p2622
ag4
aS'variable_1'
p2623
ag8
aS'variable_74'
p2624
ag13
ag18
aS'func_230'
p2625
ag4
aS'variable_86'
p2626
ag8
aS'variable_83'
p2627
ag8
aS'variable_3'
p2628
ag8
aS'variable_5'
p2629
ag13
ag18
aS'if'
p2630
ag4
aS'func_231'
p2631
ag4
aS'variable_3'
p2632
aS'->'
p2633
aS'variable_17'
p2634
ag8
aS'variable_18'
p2635
ag13
ag13
aS'func_232'
p2636
ag4
aS'variable_3'
p2637
aS'->'
p2638
aS'variable_17'
p2639
ag8
aS'variable_18'
p2640
ag8
aS'variable_27'
p2641
ag13
ag18
aS'if'
p2642
ag4
aS'func_233'
p2643
ag4
aS'variable_3'
p2644
aS'->'
p2645
aS'variable_17'
p2646
ag8
aS'variable_18'
p2647
ag13
ag13
aS'func_234'
p2648
ag4
aS'variable_3'
p2649
aS'->'
p2650
aS'variable_17'
p2651
ag8
aS'variable_18'
p2652
ag8
aS'variable_27'
p2653
ag13
ag18
aS'variable_6'
p2654
aS'+='
p2655
aS'variable_9'
p2656
ag37
aS'variable_10'
p2657
ag18
aaa(lp2658
I0
aI0
aI0
aI0
aI0
aI0
aI0
aa(lp2659
I200
aI201
aI166
aI250
aI201
aI149
aI123
aa(lp2660
(lp2661
S'main'
p2662
aa(lp2663
g2662
aa(lp2664
g2662
aa(lp2665
g2662
aa(lp2666
g2662
aa(lp2667
g2662
aa(lp2668
g2662
aaa(lp2669
S'80 ../data/NVD/CVE_2012_6061_VULN_dissect_wtp_common.c dataOffset = offCur + cbHeader + vHeader 359'
p2670
aS'81 ../data/NVD/CVE_2012_6061_VULN_dissect_wtp_common.c tmp_tvb = tvb_new_subset ( tvb , offCur + cbHeader + vHeader , tpiLen , tpiLen ) 326'
p2671
aS'82 ../data/NVD/CVE_2012_6061_VULN_dissect_wtp_common.c tpiLen = 2 + tvb_get_guint8 ( tvb , offCur + cbHeader + vHeader + 1 ) 320'
p2672
aS'84 ../data/NVD/CVE_2012_6061_VULN_dissect_wtp_common.c returned_length = g_snprintf ( & szInfo [ str_index ] , SZINFO_SIZE - str_index , " R" ) 150'
p2673
aS'85 ../data/NVD/CVE_2012_6061_VULN_dissect_wtp_common.c returned_length = g_snprintf ( & szInfo [ str_index ] , SZINFO_SIZE - str_index , " (%u)" , psn ) 118'
p2674
aS'86 ../data/NVD/CVE_2012_6061_VULN_dissect_wtp_common.c returned_length = g_snprintf ( & szInfo [ str_index ] , SZINFO_SIZE - str_index , " Class %d" , clsTransaction ) 106'
p2675
aS'87 ../data/NVD/CVE_2012_6061_VULN_dissect_wtp_common.c wtp_tvb = tvb_new_subset ( tvb , offCur + c_fieldlen , c_pdulen , c_pdulen ) 73'
p2676
aa.