(lp0
(lp1
(lp2
S'static'
p3
aS'long'
p4
aS'func_0'
p5
aS'('
p6
aS'struct'
p7
aS'variable_0'
p8
aS'*'
p9
aS'variable_0'
p10
aS','
p11
aS'unsigned'
p12
aS'long'
p13
aS'variable_1'
p14
ag11
aS'int'
p15
aS'variable_2'
p16
aS')'
p17
aS'struct'
p18
aS'variable_3'
p19
ag9
aS'variable_4'
p20
aS'='
p21
aS'variable_0'
p22
aS'->'
p23
aS'variable_5'
p24
aS';'
p25
aS'struct'
p26
aS'variable_6'
p27
ag9
aS'variable_7'
p28
ag25
aS'void'
p29
aS'variable_8'
p30
ag9
aS'variable_9'
p31
ag21
ag6
aS'void'
p32
aS'__user'
p33
ag9
ag17
aS'variable_1'
p34
ag25
aS'struct'
p35
aS'ifreq'
p36
aS'variable_10'
p37
ag25
aS'if'
p38
ag6
aS'variable_11'
p39
aS'=='
p40
aS'variable_12'
p41
aS'||'
p42
aS'func_1'
p43
ag6
aS'variable_11'
p44
ag17
aS'=='
p45
aS'0x89'
p46
ag17
aS'if'
p47
ag6
aS'func_2'
p48
ag6
aS'&'
p49
aS'variable_10'
p50
ag11
aS'variable_9'
p51
ag11
aS'variable_2'
p52
ag17
ag17
aS'if'
p53
ag6
aS'variable_11'
p54
aS'=='
p55
aS'variable_13'
p56
ag17
aS'variable_7'
p57
ag21
aS'func_3'
p58
ag6
aS'variable_4'
p59
ag17
ag25
aS'if'
p60
ag6
aS'variable_11'
p61
aS'=='
p62
aS'variable_12'
p63
aS'&&'
p64
aS'!'
p65
aS'variable_7'
p66
ag17
aS'if'
p67
ag6
ag65
aS'variable_7'
p68
ag17
aS'switch'
p69
ag6
aS'variable_11'
p70
ag17
aS'if'
p71
ag6
aS'variable_1'
p72
ag17
aS'variable_7'
p73
aS'->'
p74
aS'variable_14'
p75
ag49
ag21
aS'~'
p76
aS'variable_15'
p77
ag25
aS'variable_7'
p78
aS'->'
p79
aS'variable_16'
p80
ag21
ag6
aS'variable_17'
p81
ag17
aS'variable_1'
p82
ag25
aS'variable_7'
p83
aS'->'
p84
aS'variable_18'
p85
ag21
ag6
aS'variable_19'
p86
ag17
aS'variable_1'
p87
ag25
aS'if'
p88
ag6
aS'variable_7'
p89
aS'->'
p90
aS'variable_20'
p91
aS'->'
p92
aS'variable_14'
p93
ag49
aS'variable_21'
p94
ag17
aS'variable_7'
p95
aS'->'
p96
aS'variable_20'
p97
aS'->'
p98
aS'variable_22'
p99
ag21
ag6
aS'int'
p100
ag17
aS'variable_1'
p101
ag25
aS'variable_7'
p102
aS'->'
p103
aS'variable_23'
p104
ag21
aS'variable_1'
p105
ag25
aS'memcpy'
p106
ag6
aS'variable_10'
p107
aS'.'
p108
aS'variable_24'
p109
ag108
aS'variable_25'
p110
ag11
aS'variable_7'
p111
aS'->'
p112
aS'variable_20'
p113
aS'->'
p114
aS'variable_26'
p115
ag11
aS'variable_27'
p116
ag17
ag25
aS'variable_10'
p117
ag108
aS'variable_24'
p118
ag108
aS'variable_28'
p119
ag21
aS'variable_7'
p120
aS'->'
p121
aS'variable_20'
p122
aS'->'
p123
aS'variable_22'
p124
ag25
aS'if'
p125
ag6
aS'func_4'
p126
ag6
aS'variable_9'
p127
ag11
ag49
aS'variable_10'
p128
ag11
aS'variable_2'
p129
ag17
ag17
aS'func_5'
p130
ag6
aS'variable_29'
p131
aS'"'
p132
aS'%'
p133
aS's'
p134
aS':'
p135
aS'set'
p136
aS'hw'
p137
aS'address'
p138
ag135
ag133
aS'pM'
p139
aS'\\'
p140
aS'n'
p141
ag132
aS'variable_7'
p142
aS'->'
p143
aS'variable_20'
p144
aS'->'
p145
aS'variable_30'
p146
ag11
aS'variable_10'
p147
ag108
aS'variable_24'
p148
ag108
aS'variable_25'
p149
ag17
aS'variable_31'
p150
ag21
aS'func_6'
p151
ag6
aS'variable_7'
p152
aS'->'
p153
aS'variable_20'
p154
ag11
ag49
aS'variable_10'
p155
ag108
aS'variable_24'
p156
ag17
ag25
aS'return'
p157
aS'variable_31'
p158
ag25
aaa(lp159
I0
aa(lp160
I159
aa(lp161
(lp162
S'main'
p163
aaa(lp164
S'93 ../data/NVD/CVE_2012_6547_VULN___tun_chr_ioctl.c memcpy 127'
p165
aa.