(lp0
(lp1
(lp2
S'func_0'
p3
aS'('
p4
aS'variable_0'
p5
aS'*'
p6
aS'variable_1'
p7
aS','
p8
aS'variable_2'
p9
ag6
aS'variable_3'
p10
ag8
aS'variable_4'
p11
ag6
aS'variable_5'
p12
aS')'
p13
aS'gchar'
p14
aS'variable_6'
p15
aS'['
p16
aS'16'
p17
aS']'
p18
aS';'
p19
aS'if'
p20
ag4
aS'variable_3'
p21
aS'->'
p22
aS'variable_7'
p23
aS'!='
p24
aS'variable_8'
p25
aS'&&'
p26
aS'variable_3'
p27
aS'->'
p28
aS'variable_7'
p29
aS'!='
p30
aS'variable_9'
p31
ag13
aS'if'
p32
ag4
aS'variable_3'
p33
aS'->'
p34
aS'variable_6'
p35
aS'.'
p36
aS'variable_10'
p37
aS'=='
p38
aS'variable_11'
p39
aS'&&'
p40
aS'strcmp'
p41
ag4
aS'variable_6'
p42
ag8
aS'variable_12'
p43
ag13
aS'=='
p44
aS'0'
p45
ag13
aS'if'
p46
ag4
ag4
aS'variable_3'
p47
aS'->'
p48
aS'variable_6'
p49
ag36
aS'variable_10'
p50
aS'=='
p51
aS'variable_11'
p52
aS'&&'
p53
aS'strcmp'
p54
ag4
aS'variable_6'
p55
ag8
aS'variable_13'
p56
ag13
aS'=='
p57
ag45
ag13
aS'||'
p58
ag4
aS'variable_3'
p59
aS'->'
p60
aS'variable_6'
p61
ag36
aS'variable_10'
p62
aS'=='
p63
aS'variable_14'
p64
aS'&&'
p65
aS'variable_3'
p66
aS'->'
p67
aS'variable_7'
p68
aS'=='
p69
aS'variable_9'
p70
ag13
ag13
aa(lp71
S'func_0'
p72
ag4
aS'variable_0'
p73
ag6
aS'variable_1'
p74
ag8
aS'variable_2'
p75
ag6
aS'variable_3'
p76
ag8
aS'variable_4'
p77
ag6
aS'variable_5'
p78
ag13
aS'gchar'
p79
aS'variable_6'
p80
ag16
aS'16'
p81
ag18
ag19
aS'if'
p82
ag4
aS'variable_3'
p83
aS'->'
p84
aS'variable_7'
p85
aS'!='
p86
aS'variable_8'
p87
aS'&&'
p88
aS'variable_3'
p89
aS'->'
p90
aS'variable_7'
p91
aS'!='
p92
aS'variable_9'
p93
ag13
aS'if'
p94
ag4
aS'variable_3'
p95
aS'->'
p96
aS'variable_6'
p97
ag36
aS'variable_10'
p98
aS'=='
p99
aS'variable_11'
p100
aS'&&'
p101
aS'strcmp'
p102
ag4
aS'variable_6'
p103
ag8
aS'variable_12'
p104
ag13
aS'=='
p105
ag45
ag13
aaa(lp106
I0
aI0
aa(lp107
I64
aI44
aa(lp108
(lp109
S'main'
p110
aa(lp111
g110
aaa(lp112
S'146 ../data/NVD/CVE_2012_5237_PATCHED_dissect_hsrp.c strcmp 109'
p113
aS'147 ../data/NVD/CVE_2012_5237_PATCHED_dissect_hsrp.c strcmp 19'
p114
aa.