(lp0
(lp1
(lp2
S'func_0'
p3
aS'('
p4
aS'variable_0'
p5
aS'*'
p6
aS'variable_1'
p7
aS','
p8
aS'variable_2'
p9
ag6
aS'variable_3'
p10
ag8
aS'variable_4'
p11
ag6
aS'variable_5'
p12
aS')'
p13
aS'gchar'
p14
aS'variable_6'
p15
aS'['
p16
aS'16'
p17
aS']'
p18
aS';'
p19
aS'if'
p20
ag4
aS'variable_3'
p21
aS'->'
p22
aS'variable_7'
p23
aS'!='
p24
aS'variable_8'
p25
aS'&&'
p26
aS'variable_3'
p27
aS'->'
p28
aS'variable_7'
p29
aS'!='
p30
aS'variable_9'
p31
ag13
aS'if'
p32
ag4
aS'variable_3'
p33
aS'->'
p34
aS'variable_6'
p35
aS'.'
p36
aS'variable_10'
p37
aS'=='
p38
aS'variable_11'
p39
aS'&&'
p40
aS'strcmp'
p41
ag4
aS'variable_6'
p42
ag8
aS'variable_12'
p43
ag13
aS'=='
p44
aS'0'
p45
ag13
aS'if'
p46
ag4
ag4
aS'variable_3'
p47
aS'->'
p48
aS'variable_6'
p49
ag36
aS'variable_10'
p50
aS'=='
p51
aS'variable_11'
p52
aS'&&'
p53
aS'strcmp'
p54
ag4
aS'variable_6'
p55
ag8
aS'variable_13'
p56
ag13
aS'=='
p57
ag45
ag13
aS'||'
p58
ag4
aS'variable_3'
p59
aS'->'
p60
aS'variable_6'
p61
ag36
aS'variable_10'
p62
aS'=='
p63
aS'variable_14'
p64
aS'&&'
p65
aS'variable_3'
p66
aS'->'
p67
aS'variable_7'
p68
aS'=='
p69
aS'variable_9'
p70
ag13
ag13
aS'guint'
p71
aS'variable_15'
p72
aS'='
p73
ag45
ag8
aS'variable_16'
p74
ag19
aS'guint8'
p75
aS'variable_10'
p76
ag8
aS'variable_17'
p77
ag19
aS'while'
p78
ag4
aS'func_1'
p79
ag4
aS'variable_1'
p80
ag8
aS'variable_15'
p81
ag13
aS'>'
p82
ag45
ag13
aS'variable_10'
p83
ag73
aS'func_2'
p84
ag4
aS'variable_1'
p85
ag8
aS'variable_15'
p86
ag13
ag19
aS'variable_17'
p87
ag73
aS'func_3'
p88
ag4
aS'variable_1'
p89
ag8
aS'variable_15'
p90
aS'+'
p91
aS'1'
p92
ag13
ag19
aS'variable_16'
p93
ag73
aS'variable_15'
p94
ag19
aS'if'
p95
ag4
aS'variable_10'
p96
aS'=='
p97
ag92
aS'&&'
p98
aS'variable_17'
p99
aS'=='
p100
aS'40'
p101
ag13
aS'variable_18'
p102
ag73
aS'func_4'
p103
ag4
aS'variable_19'
p104
ag8
aS'variable_20'
p105
ag8
aS'variable_1'
p106
ag8
aS'variable_15'
p107
ag8
aS'2'
p108
ag8
aS'variable_10'
p109
ag8
aS'"'
p110
aS'Group'
p111
aS'State'
p112
aS'TLV'
p113
aS':'
p114
aS'Type'
p115
ag73
aS'%'
p116
aS'd'
p117
aS'Len'
p118
ag73
ag116
ag117
ag110
ag8
aS'variable_10'
p119
ag8
aS'variable_17'
p120
ag13
ag19
aS'variable_15'
p121
aS'+='
p122
ag108
ag19
aS'variable_21'
p123
ag73
aS'func_5'
p124
ag4
aS'variable_1'
p125
ag8
aS'variable_15'
p126
ag91
ag92
ag13
ag19
aS'func_6'
p127
ag4
aS'variable_3'
p128
aS'->'
p129
aS'variable_22'
p130
ag8
aS'variable_23'
p131
ag8
ag110
ag116
aS's'
p132
ag110
ag8
aS'func_7'
p133
ag4
aS'variable_21'
p134
ag8
aS'variable_24'
p135
ag8
ag110
aS'Unknown'
p136
ag110
ag13
ag13
ag19
aS'variable_25'
p137
ag73
aS'func_8'
p138
ag4
aS'variable_1'
p139
ag8
aS'variable_15'
p140
ag91
ag108
ag13
ag19
aS'func_9'
p141
ag4
aS'variable_3'
p142
aS'->'
p143
aS'variable_22'
p144
ag8
aS'variable_23'
p145
ag8
ag110
ag4
aS'state'
p146
ag116
ag132
ag13
ag110
ag8
aS'func_10'
p147
ag4
aS'variable_25'
p148
ag8
aS'variable_26'
p149
ag8
ag110
aS'Unknown'
p150
ag110
ag13
ag13
ag19
aS'if'
p151
ag4
aS'variable_5'
p152
ag13
aS'variable_27'
p153
ag73
aS'func_11'
p154
ag4
aS'variable_18'
p155
ag8
aS'variable_28'
p156
ag13
ag19
aS'func_12'
p157
ag4
aS'variable_27'
p158
ag8
aS'variable_29'
p159
ag8
aS'variable_1'
p160
ag8
aS'variable_15'
p161
ag8
ag92
ag8
aS'variable_30'
p162
ag13
ag19
aS'variable_15'
p163
aS'++'
p164
ag19
aS'func_13'
p165
ag4
aS'variable_27'
p166
ag8
aS'variable_31'
p167
ag8
aS'variable_1'
p168
ag8
aS'variable_15'
p169
ag8
ag92
ag8
aS'variable_21'
p170
ag13
ag19
aS'variable_15'
p171
aS'++'
p172
ag19
aS'func_14'
p173
ag4
aS'variable_27'
p174
ag8
aS'variable_32'
p175
ag8
aS'variable_1'
p176
ag8
aS'variable_15'
p177
ag8
ag92
ag8
aS'variable_25'
p178
ag13
ag19
aS'variable_15'
p179
aS'++'
p180
ag19
aS'variable_33'
p181
ag73
aS'func_15'
p182
ag4
aS'variable_1'
p183
ag8
aS'variable_15'
p184
ag13
ag19
aS'func_16'
p185
ag4
aS'variable_27'
p186
ag8
aS'variable_34'
p187
ag8
aS'variable_1'
p188
ag8
aS'variable_15'
p189
ag8
ag92
ag8
aS'variable_33'
p190
ag13
ag19
aS'variable_15'
p191
aS'++'
p192
ag19
aS'func_17'
p193
ag4
aS'variable_27'
p194
ag8
aS'variable_35'
p195
ag8
aS'variable_1'
p196
ag8
aS'variable_15'
p197
ag8
ag108
ag8
aS'variable_30'
p198
ag13
ag19
aS'variable_15'
p199
aS'+='
p200
ag108
ag19
aS'func_18'
p201
ag4
aS'variable_27'
p202
ag8
aS'variable_36'
p203
ag8
aS'variable_1'
p204
ag8
aS'variable_15'
p205
ag8
aS'6'
p206
ag8
aS'variable_37'
p207
ag13
ag19
aS'variable_15'
p208
aS'+='
p209
ag206
ag19
aS'func_19'
p210
ag4
aS'variable_27'
p211
ag8
aS'variable_38'
p212
ag8
aS'variable_1'
p213
ag8
aS'variable_15'
p214
ag8
aS'4'
p215
ag8
aS'variable_30'
p216
ag13
ag19
aS'variable_15'
p217
aS'+='
p218
ag215
ag19
aS'variable_39'
p219
ag73
aS'func_20'
p220
ag4
aS'variable_1'
p221
ag8
aS'variable_15'
p222
ag13
ag19
aS'func_21'
p223
ag4
aS'variable_27'
p224
ag8
aS'variable_40'
p225
ag8
aS'variable_1'
p226
ag8
aS'variable_15'
p227
ag8
ag215
ag8
aS'variable_39'
p228
ag8
ag110
aS'Hellotime'
p229
ag114
ag116
aS'sDefault'
p230
ag4
ag116
aS'u'
p231
ag13
ag110
ag8
ag4
aS'variable_39'
p232
aS'=='
p233
aS'variable_41'
p234
ag13
aS'?'
p235
ag110
ag110
ag114
ag110
aS'Non'
p236
aS'-'
p237
ag110
ag8
aS'variable_39'
p238
ag13
ag19
aS'variable_15'
p239
aS'+='
p240
ag215
ag19
aS'variable_42'
p241
ag73
aS'func_22'
p242
ag4
aS'variable_1'
p243
ag8
aS'variable_15'
p244
ag13
ag19
aS'func_23'
p245
ag4
aS'variable_27'
p246
ag8
aS'variable_43'
p247
ag8
aS'variable_1'
p248
ag8
aS'variable_15'
p249
ag8
ag215
ag8
aS'variable_42'
p250
ag8
ag110
aS'Holdtime'
p251
ag114
ag116
aS'sDefault'
p252
ag4
ag116
ag231
ag13
ag110
ag8
ag4
aS'variable_42'
p253
aS'=='
p254
aS'variable_44'
p255
ag13
ag235
ag110
ag110
ag114
ag110
aS'Non'
p256
ag237
ag110
ag8
aS'variable_42'
p257
ag13
ag19
aS'variable_15'
p258
aS'+='
p259
ag215
ag19
aS'if'
p260
ag4
aS'variable_33'
p261
aS'=='
p262
ag215
ag13
aS'func_24'
p263
ag4
aS'variable_27'
p264
ag8
aS'variable_45'
p265
ag8
aS'variable_1'
p266
ag8
aS'variable_15'
p267
ag8
ag215
ag8
aS'variable_30'
p268
ag13
ag19
aS'if'
p269
ag4
aS'variable_33'
p270
aS'=='
p271
ag206
ag13
aS'func_25'
p272
ag4
aS'variable_27'
p273
ag8
aS'variable_46'
p274
ag8
aS'variable_1'
p275
ag8
aS'variable_15'
p276
ag8
aS'16'
p277
ag8
aS'variable_37'
p278
ag13
ag19
aS'variable_47'
p279
ag73
aS'func_26'
p280
ag4
aS'variable_1'
p281
ag8
aS'variable_15'
p282
ag13
ag19
aS'func_27'
p283
ag4
aS'variable_48'
p284
ag8
aS'variable_47'
p285
ag8
aS'variable_3'
p286
ag8
aS'variable_19'
p287
ag13
ag19
aS'if'
p288
ag4
aS'variable_10'
p289
aS'=='
p290
ag108
aS'&&'
p291
aS'variable_17'
p292
aS'=='
p293
ag215
ag13
aS'variable_49'
p294
ag73
aS'func_28'
p295
ag4
aS'variable_1'
p296
ag8
aS'variable_15'
p297
ag91
ag108
ag13
ag19
aS'variable_50'
p298
ag73
aS'func_29'
p299
ag4
aS'variable_1'
p300
ag8
aS'variable_15'
p301
ag91
ag215
ag13
ag19
aS'func_30'
p302
ag4
aS'variable_3'
p303
aS'->'
p304
aS'variable_22'
p305
ag8
aS'variable_23'
p306
ag8
ag110
aS'Interface'
p307
aS'State'
p308
aS'TLV'
p309
ag4
aS'Act'
p310
ag73
ag116
ag117
aS'Pass'
p311
ag73
ag116
ag117
ag13
ag110
ag8
aS'variable_49'
p312
ag8
aS'variable_50'
p313
ag13
ag19
aS'variable_18'
p314
ag73
aS'func_31'
p315
ag4
aS'variable_19'
p316
ag8
aS'variable_51'
p317
ag8
aS'variable_1'
p318
ag8
aS'variable_15'
p319
ag8
ag92
ag8
aS'variable_10'
p320
ag8
ag110
aS'Interface'
p321
aS'State'
p322
aS'TLV'
p323
ag114
aS'Type'
p324
ag73
ag116
ag117
aS'Len'
p325
ag73
ag116
ag117
ag110
ag8
aS'variable_10'
p326
ag8
aS'variable_17'
p327
ag13
ag19
aS'variable_15'
p328
aS'+='
p329
ag108
ag19
aS'variable_52'
p330
ag73
aS'func_32'
p331
ag4
aS'variable_18'
p332
ag8
aS'variable_53'
p333
ag13
ag19
aS'func_33'
p334
ag4
aS'variable_52'
p335
ag8
aS'variable_54'
p336
ag8
aS'variable_1'
p337
ag8
aS'variable_15'
p338
ag8
ag108
ag8
aS'variable_30'
p339
ag13
ag19
aS'variable_15'
p340
aS'+='
p341
ag108
ag19
aS'func_34'
p342
ag4
aS'variable_52'
p343
ag8
aS'variable_55'
p344
ag8
aS'variable_1'
p345
ag8
aS'variable_15'
p346
ag8
ag108
ag8
aS'variable_30'
p347
ag13
ag19
aS'if'
p348
ag4
aS'variable_10'
p349
aS'=='
p350
aS'3'
p351
aS'&&'
p352
aS'variable_17'
p353
aS'=='
p354
aS'8'
p355
ag13
aS'variable_18'
p356
ag73
aS'func_35'
p357
ag4
aS'variable_19'
p358
ag8
aS'variable_56'
p359
ag8
aS'variable_1'
p360
ag8
aS'variable_15'
p361
ag8
ag92
ag8
aS'variable_10'
p362
ag8
ag110
aS'Text'
p363
aS'Authentication'
p364
aS'TLV'
p365
ag114
aS'Type'
p366
ag73
ag116
ag117
aS'Len'
p367
ag73
ag116
ag117
ag110
ag8
aS'variable_10'
p368
ag8
aS'variable_17'
p369
ag13
ag19
aS'variable_15'
p370
aS'+='
p371
ag108
ag19
aS'variable_57'
p372
ag73
aS'func_36'
p373
ag4
aS'variable_18'
p374
ag8
aS'variable_58'
p375
ag13
ag19
aS'func_37'
p376
ag4
aS'variable_1'
p377
ag8
aS'variable_59'
p378
ag8
aS'variable_15'
p379
ag8
ag355
ag13
ag19
aS'func_38'
p380
ag4
aS'variable_57'
p381
ag8
aS'variable_60'
p382
ag8
aS'variable_1'
p383
ag8
aS'variable_15'
p384
ag8
ag355
ag8
aS'variable_59'
p385
ag8
ag110
aS'Authentication'
p386
aS'Data'
p387
ag114
ag116
aS'sDefault'
p388
ag4
ag116
ag132
ag13
ag110
ag8
ag4
aS'func_39'
p389
ag4
aS'variable_1'
p390
ag8
aS'variable_15'
p391
ag8
ag110
aS'cisco'
p392
ag110
ag8
aS'strlen'
p393
ag4
ag110
aS'cisco'
p394
ag110
ag13
ag13
ag13
aS'=='
p395
ag45
ag235
ag110
ag110
ag114
ag110
aS'Non'
p396
ag237
ag110
ag8
aS'variable_59'
p397
ag13
ag19
aS'if'
p398
ag4
aS'variable_10'
p399
aS'=='
p400
ag215
aS'&&'
p401
aS'variable_17'
p402
aS'=='
p403
aS'28'
p404
ag13
aS'variable_18'
p405
ag73
aS'func_40'
p406
ag4
aS'variable_19'
p407
ag8
aS'variable_56'
p408
ag8
aS'variable_1'
p409
ag8
aS'variable_15'
p410
ag8
ag92
ag8
aS'variable_10'
p411
ag8
ag110
aS'MD5'
p412
aS'Authentication'
p413
aS'TLV'
p414
ag114
aS'Type'
p415
ag73
ag116
ag117
aS'Len'
p416
ag73
ag116
ag117
ag110
ag8
aS'variable_10'
p417
ag8
aS'variable_17'
p418
ag13
ag19
aS'variable_15'
p419
aS'+='
p420
ag108
ag19
aS'variable_61'
p421
ag73
aS'func_41'
p422
ag4
aS'variable_18'
p423
ag8
aS'variable_62'
p424
ag13
ag19
aS'func_42'
p425
ag4
aS'variable_61'
p426
ag8
aS'variable_63'
p427
ag8
aS'variable_1'
p428
ag8
aS'variable_15'
p429
ag8
ag92
ag8
aS'variable_30'
p430
ag13
ag19
aS'variable_15'
p431
aS'++'
p432
ag19
aS'variable_15'
p433
aS'++'
p434
ag19
aS'func_43'
p435
ag4
aS'variable_61'
p436
ag8
aS'variable_64'
p437
ag8
aS'variable_1'
p438
ag8
aS'variable_15'
p439
ag8
ag108
ag8
aS'variable_30'
p440
ag13
ag19
aS'variable_15'
p441
aS'+='
p442
ag108
ag19
aS'func_44'
p443
ag4
aS'variable_61'
p444
ag8
aS'variable_65'
p445
ag8
aS'variable_1'
p446
ag8
aS'variable_15'
p447
ag8
ag215
ag8
aS'variable_30'
p448
ag13
ag19
aS'variable_15'
p449
aS'+='
p450
ag215
ag19
aS'func_45'
p451
ag4
aS'variable_61'
p452
ag8
aS'variable_66'
p453
ag8
aS'variable_1'
p454
ag8
aS'variable_15'
p455
ag8
ag215
ag8
aS'variable_30'
p456
ag13
ag19
aS'variable_15'
p457
aS'+='
p458
ag215
ag19
aS'func_46'
p459
ag4
aS'variable_61'
p460
ag8
aS'variable_67'
p461
ag8
aS'variable_1'
p462
ag8
aS'variable_15'
p463
ag8
aS'16'
p464
ag8
aS'variable_30'
p465
ag13
ag19
aS'variable_47'
p466
ag73
aS'func_47'
p467
ag4
aS'variable_1'
p468
ag8
aS'variable_15'
p469
ag13
ag19
aS'func_48'
p470
ag4
aS'variable_48'
p471
ag8
aS'variable_47'
p472
ag8
aS'variable_3'
p473
ag8
aS'variable_19'
p474
ag13
ag19
aS'variable_15'
p475
ag73
aS'variable_16'
p476
ag91
aS'variable_17'
p477
ag91
ag108
ag19
aaa(lp478
I0
aa(lp479
I1036
aa(lp480
(lp481
S'main'
p482
aaa(lp483
S'35 ../data/NVD/CVE_2012_5237_PATCHED_dissect_hsrp.c offset = offset2 + len + 2 274'
p484
aa.