(lp0
(lp1
(lp2
S'int'
p3
aS'func_0'
p4
aS'('
p5
aS'variable_0'
p6
aS'*'
p7
aS'variable_1'
p8
aS','
p9
aS'const'
p10
aS'char'
p11
ag7
aS'variable_2'
p12
ag9
aS'unsigned'
p13
aS'int'
p14
aS'variable_3'
p15
ag9
aS'unsigned'
p16
aS'int'
p17
aS'variable_4'
p18
aS')'
p19
aS'AVProbeData'
p20
aS'variable_5'
p21
aS'='
p22
aS'{'
p23
aS'variable_2'
p24
aS'?'
p25
aS'variable_2'
p26
aS':'
p27
aS'"'
p28
ag28
ag9
aS'NULL'
p29
ag9
aS'-'
p30
aS'variable_3'
p31
aS'}'
p32
aS';'
p33
aS'unsigned'
p34
aS'char'
p35
ag7
aS'variable_6'
p36
ag22
aS'NULL'
p37
ag33
aS'if'
p38
ag5
aS'!'
p39
aS'variable_4'
p40
ag19
aS'variable_4'
p41
ag22
aS'variable_7'
p42
ag33
aS'if'
p43
ag5
aS'variable_4'
p44
aS'>'
p45
aS'variable_7'
p46
ag19
aS'variable_4'
p47
ag22
aS'variable_7'
p48
ag33
aS'if'
p49
ag5
aS'variable_4'
p50
aS'<'
p51
aS'variable_8'
p52
ag19
aS'if'
p53
ag5
aS'variable_3'
p54
ag45
ag22
aS'variable_4'
p55
ag19
aS'for'
p56
ag5
aS'variable_9'
p57
ag22
aS'variable_8'
p58
ag33
aS'variable_9'
p59
ag51
ag22
aS'variable_4'
p60
aS'&&'
p61
aS'variable_9'
p62
ag22
aS'func_1'
p63
ag5
aS'variable_9'
p64
aS'<<'
p65
aS'1'
p66
ag9
aS'func_2'
p67
ag5
aS'variable_4'
p68
ag9
aS'variable_9'
p69
aS'+'
p70
ag66
ag19
ag19
ag19
aS'int'
p71
aS'variable_10'
p72
ag22
ag5
aS'variable_9'
p73
aS'=='
p74
aS'variable_8'
p75
ag19
ag25
aS'0'
p76
ag27
aS'variable_9'
p77
aS'>>'
p78
ag66
ag33
aS'void'
p79
ag7
aS'variable_11'
p80
ag33
aS'if'
p81
ag5
aS'variable_9'
p82
ag51
aS'variable_3'
p83
ag19
aS'variable_11'
p84
ag22
aS'func_3'
p85
ag5
aS'variable_6'
p86
ag9
aS'variable_9'
p87
ag70
aS'variable_12'
p88
ag19
ag33
aS'if'
p89
ag5
ag39
aS'variable_11'
p90
ag19
aS'variable_6'
p91
ag22
aS'variable_11'
p92
ag33
aS'if'
p93
ag5
ag5
aS'variable_13'
p94
ag22
aS'func_4'
p95
ag5
aS'variable_1'
p96
ag9
aS'variable_6'
p97
ag70
aS'variable_10'
p98
ag9
aS'variable_9'
p99
ag30
aS'variable_10'
p100
ag19
ag19
ag51
ag76
ag19
aS'if'
p101
ag5
aS'variable_13'
p102
aS'!='
p103
aS'variable_14'
p104
ag19
aS'variable_15'
p105
ag22
ag76
ag33
aS'variable_13'
p106
ag22
ag76
ag33
aS'variable_5'
p107
aS'.'
p108
aS'variable_16'
p109
aS'+='
p110
aS'variable_13'
p111
ag33
aS'variable_5'
p112
ag108
aS'variable_6'
p113
ag22
aS'&'
p114
aS'variable_6'
p115
aS'['
p116
aS'variable_3'
p117
aS']'
p118
ag33
aS'memset'
p119
ag5
aS'variable_5'
p120
ag108
aS'variable_6'
p121
ag70
aS'variable_5'
p122
ag108
aS'variable_16'
p123
ag9
ag76
ag9
aS'variable_12'
p124
ag19
ag33
ag7
aS'variable_17'
p125
ag22
aS'func_5'
p126
ag5
ag114
aS'variable_5'
p127
ag9
ag66
ag9
ag114
aS'variable_15'
p128
ag19
ag33
aS'if'
p129
ag5
ag7
aS'variable_17'
p130
ag19
aS'func_6'
p131
ag5
aS'variable_18'
p132
ag9
aS'variable_19'
p133
ag9
ag28
aS'Format'
p134
aS'%'
p135
aS's'
p136
aS'detected'
p137
aS'only'
p138
aS'with'
p139
aS'low'
p140
aS'score'
p141
aS'of'
p142
ag135
aS'd'
p143
ag9
aS'misdetection'
p144
aS'possible'
p145
ag39
aS'\\'
p146
aS'n'
p147
ag28
ag9
ag5
ag7
aS'variable_17'
p148
ag19
aS'->'
p149
aS'variable_20'
p150
ag9
aS'variable_15'
p151
ag19
ag33
aS'func_7'
p152
ag5
aS'variable_18'
p153
ag9
aS'variable_21'
p154
ag9
ag28
aS'Format'
p155
ag135
ag136
aS'probed'
p156
aS'with'
p157
aS'size'
p158
ag22
ag135
ag143
aS'and'
p159
aS'score'
p160
ag22
ag135
ag143
ag146
ag147
ag28
ag9
ag5
ag7
aS'variable_17'
p161
ag19
aS'->'
p162
aS'variable_20'
p163
ag9
aS'variable_9'
p164
ag9
aS'variable_15'
p165
ag19
ag33
aS'if'
p166
ag5
ag39
ag7
aS'variable_17'
p167
ag19
aS'if'
p168
ag5
ag5
aS'variable_13'
p169
ag22
aS'func_8'
p170
ag5
aS'variable_1'
p171
ag9
aS'variable_6'
p172
ag9
aS'variable_5'
p173
ag108
aS'variable_16'
p174
ag19
ag19
ag51
ag76
ag19
aS'return'
p175
aS'variable_13'
p176
ag33
aaa(lp177
I0
aa(lp178
I199
aa(lp179
(lp180
S'main'
p181
aaa(lp182
S'18 ../data/NVD/CVE_2012_6618_VULN_av_probe_input_buffer.c memset 50'
p183
aa.