(lp0
(lp1
(lp2
S'int'
p3
aS'func_0'
p4
aS'('
p5
aS'variable_0'
p6
aS'*'
p7
aS'variable_1'
p8
aS','
p9
aS'const'
p10
aS'char'
p11
ag7
aS'variable_2'
p12
ag9
aS'unsigned'
p13
aS'int'
p14
aS'variable_3'
p15
ag9
aS'unsigned'
p16
aS'int'
p17
aS'variable_4'
p18
aS')'
p19
aS'AVProbeData'
p20
aS'variable_5'
p21
aS'='
p22
aS'{'
p23
aS'variable_2'
p24
aS'?'
p25
aS'variable_2'
p26
aS':'
p27
aS'"'
p28
ag28
ag9
aS'NULL'
p29
ag9
aS'-'
p30
aS'variable_3'
p31
aS'}'
p32
aS';'
p33
aS'unsigned'
p34
aS'char'
p35
ag7
aS'variable_6'
p36
ag22
aS'NULL'
p37
ag33
aS'if'
p38
ag5
aS'!'
p39
aS'variable_4'
p40
ag19
aS'variable_4'
p41
ag22
aS'variable_7'
p42
ag33
aS'if'
p43
ag5
aS'variable_4'
p44
aS'>'
p45
aS'variable_7'
p46
ag19
aS'variable_4'
p47
ag22
aS'variable_7'
p48
ag33
aS'if'
p49
ag5
aS'variable_4'
p50
aS'<'
p51
aS'variable_8'
p52
ag19
aS'if'
p53
ag5
aS'variable_3'
p54
ag45
ag22
aS'variable_4'
p55
ag19
aS'for'
p56
ag5
aS'variable_9'
p57
ag22
aS'variable_8'
p58
ag33
aS'variable_9'
p59
ag51
ag22
aS'variable_4'
p60
aS'&&'
p61
aS'variable_9'
p62
ag22
aS'func_1'
p63
ag5
aS'variable_9'
p64
aS'<<'
p65
aS'1'
p66
ag9
aS'func_2'
p67
ag5
aS'variable_4'
p68
ag9
aS'variable_9'
p69
aS'+'
p70
ag66
ag19
ag19
ag19
aS'int'
p71
aS'variable_10'
p72
ag22
ag5
aS'variable_9'
p73
aS'=='
p74
aS'variable_8'
p75
ag19
ag25
aS'0'
p76
ag27
aS'variable_9'
p77
aS'>>'
p78
ag66
ag33
aS'void'
p79
ag7
aS'variable_11'
p80
ag33
aS'if'
p81
ag5
aS'variable_9'
p82
ag51
aS'variable_3'
p83
ag19
aS'variable_11'
p84
ag22
aS'func_3'
p85
ag5
aS'variable_6'
p86
ag9
aS'variable_9'
p87
ag70
aS'variable_12'
p88
ag19
ag33
aS'if'
p89
ag5
ag39
aS'variable_11'
p90
ag19
aS'func_4'
p91
ag5
aS'variable_6'
p92
ag19
ag33
aS'variable_6'
p93
ag22
aS'variable_11'
p94
ag33
aS'if'
p95
ag5
ag5
aS'variable_13'
p96
ag22
aS'func_5'
p97
ag5
aS'variable_1'
p98
ag9
aS'variable_6'
p99
ag70
aS'variable_10'
p100
ag9
aS'variable_9'
p101
ag30
aS'variable_10'
p102
ag19
ag19
ag51
ag76
ag19
aS'if'
p103
ag5
aS'variable_13'
p104
aS'!='
p105
aS'variable_14'
p106
ag19
aS'func_6'
p107
ag5
aS'variable_6'
p108
ag19
ag33
aS'return'
p109
aS'variable_13'
p110
ag33
aS'variable_15'
p111
ag22
ag76
ag33
aS'variable_13'
p112
ag22
ag76
ag33
aS'variable_5'
p113
aS'.'
p114
aS'variable_16'
p115
aS'+='
p116
aS'variable_13'
p117
ag33
aS'variable_5'
p118
ag114
aS'variable_6'
p119
ag22
aS'&'
p120
aS'variable_6'
p121
aS'['
p122
aS'variable_3'
p123
aS']'
p124
ag33
aS'memset'
p125
ag5
aS'variable_5'
p126
ag114
aS'variable_6'
p127
ag70
aS'variable_5'
p128
ag114
aS'variable_16'
p129
ag9
ag76
ag9
aS'variable_12'
p130
ag19
ag33
ag7
aS'variable_17'
p131
ag22
aS'func_7'
p132
ag5
ag120
aS'variable_5'
p133
ag9
ag66
ag9
ag120
aS'variable_15'
p134
ag19
ag33
aS'if'
p135
ag5
ag7
aS'variable_17'
p136
ag19
aS'func_8'
p137
ag5
aS'variable_18'
p138
ag9
aS'variable_19'
p139
ag9
ag28
aS'Format'
p140
aS'%'
p141
aS's'
p142
aS'detected'
p143
aS'only'
p144
aS'with'
p145
aS'low'
p146
aS'score'
p147
aS'of'
p148
ag141
aS'd'
p149
ag9
aS'misdetection'
p150
aS'possible'
p151
ag39
aS'\\'
p152
aS'n'
p153
ag28
ag9
ag5
ag7
aS'variable_17'
p154
ag19
aS'->'
p155
aS'variable_20'
p156
ag9
aS'variable_15'
p157
ag19
ag33
aS'func_9'
p158
ag5
aS'variable_18'
p159
ag9
aS'variable_21'
p160
ag9
ag28
aS'Format'
p161
ag141
ag142
aS'probed'
p162
aS'with'
p163
aS'size'
p164
ag22
ag141
ag149
aS'and'
p165
aS'score'
p166
ag22
ag141
ag149
ag152
ag153
ag28
ag9
ag5
ag7
aS'variable_17'
p167
ag19
aS'->'
p168
aS'variable_20'
p169
ag9
aS'variable_9'
p170
ag9
aS'variable_15'
p171
ag19
ag33
aS'if'
p172
ag5
ag39
ag7
aS'variable_17'
p173
ag19
aS'func_10'
p174
ag5
aS'variable_6'
p175
ag19
ag33
aS'if'
p176
ag5
ag5
aS'variable_13'
p177
ag22
aS'func_11'
p178
ag5
aS'variable_1'
p179
ag9
aS'variable_6'
p180
ag9
aS'variable_5'
p181
ag114
aS'variable_16'
p182
ag19
ag19
ag51
ag76
ag19
aS'func_12'
p183
ag5
aS'variable_6'
p184
ag19
ag33
aS'return'
p185
aS'variable_13'
p186
ag33
aaa(lp187
I0
aa(lp188
I137
aa(lp189
(lp190
S'main'
p191
aaa(lp192
S'97 ../data/NVD/CVE_2012_6618_VULN_av_probe_input_buffer.c buftmp = av_realloc ( buf , probe_size + AVPROBE_PADDING_SIZE ) 32'
p193
aa.