(lp0
I8352422894313406686
aI5838887587220205661
aI5243549695568054912
aI-8868896709174544641
aI7853520504762369681
aI6538239981923240501
aI-6707987186250691969
aI-8984360257236130313
aI-893860534012321052
aI-1669254342431715108
aI6763957519695949598
aI4474627628147016250
aI-4950604151301936241
aI5475131988963143882
aI-4950604151301936241
aI5472006771360697517
aI-1947162130062849993
aI7010047327607194864
aI5453495106739601238
aI5384555819504849761
aI8352422894313406686
aI5838887587220205661
aI5243549695568054912
aI-8868896709174544641
aI7853520504762369681
aI6538239981923240501
aI-6707987186250691969
aI-8984360257236130313
aI-893860534012321052
aI-1669254342431715108
aI6763957519695949598
aI4474627628147016250
aI-4950604151301936241
aI5475131988963143882
aI-4950604151301936241
aI5472006771360697517
aI-1947162130062849993
aI7010047327607194864
aI5453495106739601238
aI5384555819504849761
aI8352422894313406686
aI5838887587220205661
aI5243549695568054912
aI-8868896709174544641
aI7853520504762369681
aI6538239981923240501
aI-6707987186250691969
aI-8984360257236130313
aI-893860534012321052
aI-1669254342431715108
aI6763957519695949598
aI4474627628147016250
aI-4950604151301936241
aI5475131988963143882
aI-4950604151301936241
aI5472006771360697517
aI-1947162130062849993
aI7010047327607194864
aI5453495106739601238
aI5384555819504849761
aI2212721551477269144
aI1752292628541251791
aI-6717115436120435931
aI606911905117596465
aI-4982525230635023706
aI-6200982227276759960
aI-5201594916484062681
aI-1689032660522259775
aI113208248511345920
aI-6642370220970786001
aI-8896952844623383567
aI-5980869174900730222
aI1132904441530037698
aI-5948148818969410136
aI1397171101433775926
aI1835292367785869182
aI8639897228167908029
aI2675951890891756901
aI2153616541026759658
aI-6338321610598966338
aI-2104702059605953073
aI-5418397868471476987
aI7625075949539121365
aI-2102545675415401728
aI4495641958717905948
aI-9000835701480376148
aI1219177132151697900
aI-4251525436714715943
aI113208248511345920
aI2675951890891756901
aI-8770191404878137314
aI7305282398730468344
aI644775727549816134
aI644775727549816134
aI644775727549816134
aI644775727549816134
aI-2802515300272488841
aI6367939559847971739
aI4096135043349565709
aI4096135043349565709
aI4096135043349565709
aI4096135043349565709
aI-4080824570462681448
aI6996604888220970215
aI7179752277469827345
aI6901348640804413260
aI262035626887112641
aI-3399622235794661013
aI-2523573204684839714
aI-814801486413093716
aI8079276792769282117
aI-1220891502789654071
aI3145761408318234741
aI1736055006828964745
aI-6395717334592254127
aI62398050983371794
aI7158015421065736104
aI-212487557655015564
aI2624269076700667451
aI-5922346564254375847
aI-4829381759033970101
aI-2848621064973922706
aI4185337215477022498
aI-6395717334592254127
aI-3578315761637554220
aI2895821402728605987
aI-6822630878668974531
aI-1212365260355195768
aI140048140264532278
aI-6822630878668974531
aI-1212365260355195768
aI380469382233578562
aI1369939904119854749
aI8352422894313406686
aI5838887587220205661
aI5243549695568054912
aI-8868896709174544641
aI7853520504762369681
aI6538239981923240501
aI-6707987186250691969
aI-8984360257236130313
aI-893860534012321052
aI-1669254342431715108
aI6763957519695949598
aI4474627628147016250
aI-4950604151301936241
aI5475131988963143882
aI-4950604151301936241
aI5472006771360697517
aI-1947162130062849993
aI7010047327607194864
aI5453495106739601238
aI5384555819504849761
aI2212721551477269144
aI1752292628541251791
aI-6717115436120435931
aI606911905117596465
aI-4982525230635023706
aI-6200982227276759960
aI-5201594916484062681
aI-1689032660522259775
aI113208248511345920
aI-6642370220970786001
aI-8896952844623383567
aI-5980869174900730222
aI1132904441530037698
aI-5948148818969410136
aI1397171101433775926
aI1835292367785869182
aI8639897228167908029
aI2675951890891756901
aI2153616541026759658
aI-6338321610598966338
aI-2104702059605953073
aI-5418397868471476987
aI7625075949539121365
aI-2102545675415401728
aI4495641958717905948
aI-9000835701480376148
aI1219177132151697900
aI-4251525436714715943
aI113208248511345920
aI2675951890891756901
aI-8770191404878137314
aI7305282398730468344
aI644775727549816134
aI644775727549816134
aI644775727549816134
aI644775727549816134
aI-2802515300272488841
aI6367939559847971739
aI4096135043349565709
aI4096135043349565709
aI4096135043349565709
aI4096135043349565709
aI-4080824570462681448
aI6996604888220970215
aI7179752277469827345
aI6901348640804413260
aI262035626887112641
aI-3399622235794661013
aI-2523573204684839714
aI-814801486413093716
aI8079276792769282117
aI-1220891502789654071
aI3145761408318234741
aI1736055006828964745
aI-6395717334592254127
aI62398050983371794
aI7158015421065736104
aI-212487557655015564
aI2624269076700667451
aI-5922346564254375847
aI-4829381759033970101
aI-2848621064973922706
aI4185337215477022498
aI-6395717334592254127
aI-3578315761637554220
aI2895821402728605987
aI-6822630878668974531
aI-1212365260355195768
aI140048140264532278
aI-6822630878668974531
aI-1212365260355195768
aI380469382233578562
aI1369939904119854749
aI6648824362180373024
aI-3507696824440332723
aI1752916548808401169
aI-3717981333360896899
aI2212721551477269144
aI1752292628541251791
aI7578375576320001868
aI7578375576320001868
aI8739648766260032049
aI5524773932366549780
aI6659253359396054612
aI718015136369556826
aI-7075359996960154287
aI-9165435401191084149
aI-6305508417205934649
aI5262791056367897145
aI-2594091346137146821
aI-6703499117860958953
aI727103296255893445
aI-4282907345855400415
aI-1589043423281982510
aI-5731553210502305862
aI-7218176039899511512
aI705763517963079358
aI7194201509366166074
aI-1589043423281982510
aI-4165329308493833554
aI-7558825970966452420
aI-4139048655315842478
aI-3266721251772403004
aI8337738196109561633
aI3197412768241628062
aI-5927231586045178672
aI-6138400747626584315
aI8139665915003377583
aI3194299006078135789
aI6882200691719700657
aI-3363161201742174933
aI-5559009711156826126
aI5929096307204894733
aI-3488001252677525897
aI5639045631210558246
aI7944129748081371913
aI-930547940425159957
aI3171605283891538546
aI5319480643197126021
aI8424254975502744911
aI3997881137479833006
aI262035626887112641
aI-3399622235794661013
aI7189173872106466228
aI-5768848335491869307
aI-3256470016459701015
aI-970268477570505771
aI5050403948487317542
aI3743908765846382162
aI5849343758021507308
aI-5735441243866090819
aI-5542548679893585934
aI-3993157319123835641
aI-6857562448113351264
aI-1038663072839829902
aI-3757617627837416856
aI-7622893304892131793
aI-3757617627837416856
aI-7622893304892131793
aI-3757617627837416856
aI-7622893304892131793
aI-3757617627837416856
aI-7622893304892131793
aI-3757617627837416856
aI-7622893304892131793
aI-3757617627837416856
aI-7622893304892131793
aI-3757617627837416856
aI-3757617627837416856
aI-3123489096760181762
aI-3757617627837416856
aI-3757617627837416856
aI-5201594916484062681
aI-2529577618545656279
aI6509165393907279077
aI-2529577618545656279
aI6509165393907279077
aI-2529577618545656279
aI6509165393907279077
aI-2529577618545656279
aI6509165393907279077
aI-2529577618545656279
aI6509165393907279077
aI-2529577618545656279
aI6509165393907279077
aI-2529577618545656279
aI-2529577618545656279
aI-5366826596410124976
aI-2529577618545656279
aI-2687721882888034978
aI8639897228167908029
aI-3578315761637554220
aI1660824609237345737
aI-4107085434319225867
aI8634412548623158584
aI-8926262508584895451
aI596856061415882520
aI-457758043048232392
aI7952015486108140002
aI-2042946777199871617
aI8352422894313406686
aI5838887587220205661
aI5243549695568054912
aI-8868896709174544641
aI7853520504762369681
aI6538239981923240501
aI-6707987186250691969
aI-8984360257236130313
aI-893860534012321052
aI-1669254342431715108
aI6763957519695949598
aI4474627628147016250
aI-4950604151301936241
aI5475131988963143882
aI-4950604151301936241
aI5472006771360697517
aI-1947162130062849993
aI7010047327607194864
aI5453495106739601238
aI5384555819504849761
aI2212721551477269144
aI1752292628541251791
aI-6717115436120435931
aI606911905117596465
aI-4982525230635023706
aI-6200982227276759960
aI-5201594916484062681
aI-1689032660522259775
aI113208248511345920
aI-6642370220970786001
aI-8896952844623383567
aI-5980869174900730222
aI1132904441530037698
aI-5948148818969410136
aI1397171101433775926
aI1835292367785869182
aI8639897228167908029
aI2675951890891756901
aI2153616541026759658
aI-6338321610598966338
aI-2104702059605953073
aI-5418397868471476987
aI7625075949539121365
aI-2102545675415401728
aI4495641958717905948
aI-9000835701480376148
aI1219177132151697900
aI-4251525436714715943
aI113208248511345920
aI2675951890891756901
aI-8770191404878137314
aI7305282398730468344
aI644775727549816134
aI644775727549816134
aI644775727549816134
aI644775727549816134
aI-2802515300272488841
aI6367939559847971739
aI4096135043349565709
aI4096135043349565709
aI4096135043349565709
aI4096135043349565709
aI-4080824570462681448
aI6996604888220970215
aI7179752277469827345
aI6901348640804413260
aI262035626887112641
aI-3399622235794661013
aI-2523573204684839714
aI-814801486413093716
aI8079276792769282117
aI-1220891502789654071
aI3145761408318234741
aI1736055006828964745
aI-6395717334592254127
aI62398050983371794
aI7158015421065736104
aI-212487557655015564
aI2624269076700667451
aI-5922346564254375847
aI-4829381759033970101
aI-2848621064973922706
aI4185337215477022498
aI-6395717334592254127
aI-3578315761637554220
aI2895821402728605987
aI-6822630878668974531
aI-1212365260355195768
aI140048140264532278
aI-6822630878668974531
aI-1212365260355195768
aI380469382233578562
aI1369939904119854749
aI6648824362180373024
aI-3507696824440332723
aI1752916548808401169
aI-3717981333360896899
aI2212721551477269144
aI1752292628541251791
aI7578375576320001868
aI7578375576320001868
aI8739648766260032049
aI5524773932366549780
aI6659253359396054612
aI718015136369556826
aI-7075359996960154287
aI-9165435401191084149
aI-6305508417205934649
aI5262791056367897145
aI-2594091346137146821
aI-6703499117860958953
aI727103296255893445
aI-4282907345855400415
aI-1589043423281982510
aI-5731553210502305862
aI-7218176039899511512
aI705763517963079358
aI7194201509366166074
aI-1589043423281982510
aI-4165329308493833554
aI-7558825970966452420
aI-4139048655315842478
aI-3266721251772403004
aI8337738196109561633
aI3197412768241628062
aI-5927231586045178672
aI-6138400747626584315
aI8139665915003377583
aI3194299006078135789
aI6882200691719700657
aI-3363161201742174933
aI-5559009711156826126
aI5929096307204894733
aI-3488001252677525897
aI5639045631210558246
aI7944129748081371913
aI-930547940425159957
aI3171605283891538546
aI5319480643197126021
aI8424254975502744911
aI3997881137479833006
aI262035626887112641
aI-3399622235794661013
aI7189173872106466228
aI-5768848335491869307
aI-3256470016459701015
aI-970268477570505771
aI5050403948487317542
aI3743908765846382162
aI5849343758021507308
aI-5735441243866090819
aI-5542548679893585934
aI-3993157319123835641
aI-6857562448113351264
aI-1038663072839829902
aI-3757617627837416856
aI-7622893304892131793
aI-3757617627837416856
aI-7622893304892131793
aI-3757617627837416856
aI-7622893304892131793
aI-3757617627837416856
aI-7622893304892131793
aI-3757617627837416856
aI-7622893304892131793
aI-3757617627837416856
aI-7622893304892131793
aI-3757617627837416856
aI-3757617627837416856
aI-3123489096760181762
aI-3757617627837416856
aI-3757617627837416856
aI-5201594916484062681
aI-2529577618545656279
aI6509165393907279077
aI-2529577618545656279
aI6509165393907279077
aI-2529577618545656279
aI6509165393907279077
aI-2529577618545656279
aI6509165393907279077
aI-2529577618545656279
aI6509165393907279077
aI-2529577618545656279
aI6509165393907279077
aI-2529577618545656279
aI-2529577618545656279
aI-5366826596410124976
aI-2529577618545656279
aI-2687721882888034978
aI8639897228167908029
aI-3578315761637554220
aI1660824609237345737
aI-4107085434319225867
aI8634412548623158584
aI-8926262508584895451
aI596856061415882520
aI-457758043048232392
aI7952015486108140002
aI-2042946777199871617
aI8352422894313406686
aI5838887587220205661
aI5243549695568054912
aI-8868896709174544641
aI7853520504762369681
aI6538239981923240501
aI-6707987186250691969
aI-8984360257236130313
aI-893860534012321052
aI-1669254342431715108
aI6763957519695949598
aI4474627628147016250
aI-4950604151301936241
aI5475131988963143882
aI-4950604151301936241
aI5472006771360697517
aI-1947162130062849993
aI7010047327607194864
aI5453495106739601238
aI5384555819504849761
aI2212721551477269144
aI1752292628541251791
aI-6717115436120435931
aI606911905117596465
aI-4982525230635023706
aI-6200982227276759960
aI-5201594916484062681
aI-1689032660522259775
aI113208248511345920
aI-6642370220970786001
aI-8896952844623383567
aI-5980869174900730222
aI1132904441530037698
aI-5948148818969410136
aI1397171101433775926
aI1835292367785869182
aI8639897228167908029
aI2675951890891756901
aI2153616541026759658
aI-6338321610598966338
aI-2104702059605953073
aI-5418397868471476987
aI7625075949539121365
aI-2102545675415401728
aI4495641958717905948
aI-9000835701480376148
aI1219177132151697900
aI-4251525436714715943
aI113208248511345920
aI2675951890891756901
aI-8770191404878137314
aI7305282398730468344
aI644775727549816134
aI644775727549816134
aI644775727549816134
aI644775727549816134
aI-2802515300272488841
aI6367939559847971739
aI4096135043349565709
aI4096135043349565709
aI4096135043349565709
aI4096135043349565709
aI-4080824570462681448
aI6996604888220970215
aI7179752277469827345
aI6901348640804413260
aI262035626887112641
aI-3399622235794661013
aI-2523573204684839714
aI-814801486413093716
aI8079276792769282117
aI-1220891502789654071
aI3145761408318234741
aI1736055006828964745
aI-6395717334592254127
aI62398050983371794
aI7158015421065736104
aI-212487557655015564
aI2624269076700667451
aI-5922346564254375847
aI-4829381759033970101
aI-2848621064973922706
aI4185337215477022498
aI-6395717334592254127
aI-3578315761637554220
aI2895821402728605987
aI-6822630878668974531
aI-1212365260355195768
aI140048140264532278
aI-6822630878668974531
aI-1212365260355195768
aI380469382233578562
aI1369939904119854749
aI6648824362180373024
aI-3507696824440332723
aI1752916548808401169
aI-3717981333360896899
aI2212721551477269144
aI1752292628541251791
aI7578375576320001868
aI7578375576320001868
aI8739648766260032049
aI5524773932366549780
aI6659253359396054612
aI718015136369556826
aI-7075359996960154287
aI-9165435401191084149
aI-6305508417205934649
aI5262791056367897145
aI-2594091346137146821
aI-6703499117860958953
aI727103296255893445
aI-4282907345855400415
aI-1589043423281982510
aI-5731553210502305862
aI-7218176039899511512
aI705763517963079358
aI7194201509366166074
aI-1589043423281982510
aI-4165329308493833554
aI-7558825970966452420
aI-4139048655315842478
aI-3266721251772403004
aI8337738196109561633
aI3197412768241628062
aI-5927231586045178672
aI-6138400747626584315
aI8139665915003377583
aI3194299006078135789
aI6882200691719700657
aI-3363161201742174933
aI-5559009711156826126
aI5929096307204894733
aI-3488001252677525897
aI5639045631210558246
aI7944129748081371913
aI-930547940425159957
aI3171605283891538546
aI5319480643197126021
aI8424254975502744911
aI3997881137479833006
aI262035626887112641
aI-3399622235794661013
aI7189173872106466228
aI-5768848335491869307
aI-3256470016459701015
aI-970268477570505771
aI5050403948487317542
aI3743908765846382162
aI5849343758021507308
aI-5735441243866090819
aI-5542548679893585934
aI-3993157319123835641
aI-6857562448113351264
aI-1038663072839829902
aI-3757617627837416856
aI-7622893304892131793
aI-3757617627837416856
aI-7622893304892131793
aI-3757617627837416856
aI-7622893304892131793
aI-3757617627837416856
aI-7622893304892131793
aI-3757617627837416856
aI-7622893304892131793
aI-3757617627837416856
aI-7622893304892131793
aI-3757617627837416856
aI-3757617627837416856
aI-3123489096760181762
aI-3757617627837416856
aI-3757617627837416856
aI-5201594916484062681
aI-2529577618545656279
aI6509165393907279077
aI-2529577618545656279
aI6509165393907279077
aI-2529577618545656279
aI6509165393907279077
aI-2529577618545656279
aI6509165393907279077
aI-2529577618545656279
aI6509165393907279077
aI-2529577618545656279
aI6509165393907279077
aI-2529577618545656279
aI-2529577618545656279
aI-5366826596410124976
aI-2529577618545656279
aI-2687721882888034978
aI8639897228167908029
aI-3578315761637554220
aI1660824609237345737
aI-4107085434319225867
aI8634412548623158584
aI-8926262508584895451
aI596856061415882520
aI-457758043048232392
aI7952015486108140002
aI-2042946777199871617
aI8352422894313406686
aI5838887587220205661
aI5243549695568054912
aI-8868896709174544641
aI7853520504762369681
aI6538239981923240501
aI-6707987186250691969
aI-8984360257236130313
aI-893860534012321052
aI-1669254342431715108
aI6763957519695949598
aI4474627628147016250
aI-4950604151301936241
aI5475131988963143882
aI-4950604151301936241
aI5472006771360697517
aI-1947162130062849993
aI7010047327607194864
aI5453495106739601238
aI5384555819504849761
aI2212721551477269144
aI1752292628541251791
aI-6717115436120435931
aI606911905117596465
aI-4982525230635023706
aI-6200982227276759960
aI-5201594916484062681
aI-1689032660522259775
aI113208248511345920
aI-6642370220970786001
aI-8896952844623383567
aI-5980869174900730222
aI1132904441530037698
aI-5948148818969410136
aI1397171101433775926
aI1835292367785869182
aI8639897228167908029
aI2675951890891756901
aI2153616541026759658
aI-6338321610598966338
aI-2104702059605953073
aI-5418397868471476987
aI7625075949539121365
aI-2102545675415401728
aI4495641958717905948
aI-9000835701480376148
aI1219177132151697900
aI-4251525436714715943
aI113208248511345920
aI2675951890891756901
aI-8770191404878137314
aI7305282398730468344
aI644775727549816134
aI644775727549816134
aI644775727549816134
aI644775727549816134
aI-2802515300272488841
aI6367939559847971739
aI4096135043349565709
aI4096135043349565709
aI4096135043349565709
aI4096135043349565709
aI-4080824570462681448
aI6996604888220970215
aI7179752277469827345
aI6901348640804413260
aI262035626887112641
aI-3399622235794661013
aI-2523573204684839714
aI-814801486413093716
aI8079276792769282117
aI-1220891502789654071
aI3145761408318234741
aI1736055006828964745
aI-6395717334592254127
aI62398050983371794
aI7158015421065736104
aI-212487557655015564
aI2624269076700667451
aI-5922346564254375847
aI-4829381759033970101
aI-2848621064973922706
aI4185337215477022498
aI-6395717334592254127
aI-3578315761637554220
aI2895821402728605987
aI-6822630878668974531
aI-1212365260355195768
aI140048140264532278
aI-6822630878668974531
aI-1212365260355195768
aI380469382233578562
aI1369939904119854749
aI6648824362180373024
aI-3507696824440332723
aI1752916548808401169
aI-3717981333360896899
aI2212721551477269144
aI1752292628541251791
aI7578375576320001868
aI7578375576320001868
aI8739648766260032049
aI5524773932366549780
aI6659253359396054612
aI718015136369556826
aI-7075359996960154287
aI-9165435401191084149
aI-6305508417205934649
aI5262791056367897145
aI-2594091346137146821
aI-6703499117860958953
aI727103296255893445
aI-4282907345855400415
aI-1589043423281982510
aI-5731553210502305862
aI-7218176039899511512
aI705763517963079358
aI7194201509366166074
aI-1589043423281982510
aI-4165329308493833554
aI-7558825970966452420
aI-4139048655315842478
aI-3266721251772403004
aI8337738196109561633
aI3197412768241628062
aI-5927231586045178672
aI-6138400747626584315
aI8139665915003377583
aI3194299006078135789
aI6882200691719700657
aI-3363161201742174933
aI-5559009711156826126
aI5929096307204894733
aI-3488001252677525897
aI5639045631210558246
aI7944129748081371913
aI-930547940425159957
aI3171605283891538546
aI5319480643197126021
aI8424254975502744911
aI3997881137479833006
aI262035626887112641
aI-3399622235794661013
aI7189173872106466228
aI-5768848335491869307
aI-3256470016459701015
aI-970268477570505771
aI5050403948487317542
aI3743908765846382162
aI5849343758021507308
aI-5735441243866090819
aI-5542548679893585934
aI-3993157319123835641
aI-6857562448113351264
aI-1038663072839829902
aI-3757617627837416856
aI-7622893304892131793
aI-3757617627837416856
aI-7622893304892131793
aI-3757617627837416856
aI-7622893304892131793
aI-3757617627837416856
aI-7622893304892131793
aI-3757617627837416856
aI-7622893304892131793
aI-3757617627837416856
aI-7622893304892131793
aI-3757617627837416856
aI-3757617627837416856
aI-3123489096760181762
aI-3757617627837416856
aI-3757617627837416856
aI-5201594916484062681
aI-2529577618545656279
aI6509165393907279077
aI-2529577618545656279
aI6509165393907279077
aI-2529577618545656279
aI6509165393907279077
aI-2529577618545656279
aI6509165393907279077
aI-2529577618545656279
aI6509165393907279077
aI-2529577618545656279
aI6509165393907279077
aI-2529577618545656279
aI-2529577618545656279
aI-5366826596410124976
aI-2529577618545656279
aI-2687721882888034978
aI8639897228167908029
aI-3578315761637554220
aI1660824609237345737
aI-4107085434319225867
aI8634412548623158584
aI-8926262508584895451
aI596856061415882520
aI-457758043048232392
aI7952015486108140002
aI-2042946777199871617
a.