(lp0
I-1219538103757276516
aI-4038446569765633313
aI4418916810026134543
aI-4243377688233482481
aI-8925097569312931916
aI7622687635670464773
aI7849984946140689863
aI-6208700989470981599
aI-1903335829288650422
aI5523142030980149333
aI-971299635578674773
aI5662291633578308641
aI-5112266082297932090
aI3100452234078624892
aI-2632768072175427392
aI-4864420033773629390
aI4387055635398435871
aI-1441077391743690686
aI-4579494882720435568
aI-7945952872070539613
aI-433038282570641525
aI-500762778742232135
aI8682125704577312286
aI-6481224142764322923
aI4655992833609593145
aI8343891189349027210
aI856739243994822167
aI5612679327366895585
aI1090491763285149895
aI-2775777845055445881
aI-8152183349390701324
aI4835182818829280038
aI750715635084074764
aI-1089089638706427794
aI3139070894071617800
aI391892521155707886
aI-4344965237980065821
aI-6405047742907034823
aI3139070894071617800
aI391892521155707886
aI-4344965237980065821
aI-6405047742907034823
aI88218764284290729
aI88218764284290729
aI8654466697659066643
aI-6398996993243833193
aI3160464672485602986
aI6568860995590551370
aI7631288902592300318
aI-3060517237541115567
aI606397527516226607
aI-3490804438760555607
aI5720268437952447031
aI-3490804438760555607
aI-1154095825614024544
aI7786040122101604148
aI7336921487811320046
aI-6588772293196424809
aI-2814178451906170603
aI8202363435108089775
aI-3602587843757934254
aI-2375469875862008013
aI7158015421065736104
aI-2521117898278822760
aI5198209850857638660
aI-1740091673068062514
aI4070735006888383791
aI-1740091673068062514
aI4070735006888383791
aI250957046815179195
aI1681239524380966500
aI1969344097840803896
aI-345845491003005706
aI-4523379641139905368
aI-4270692179302253981
aI3780939381416880750
aI7153617066301095660
aI5882255629250766442
a.