(lp0
I-4673302136522877173
aI-5326639203105795412
aI8070958443227677351
aI3358226051653465361
aI1224363123234222218
aI816395053897558623
aI4673582992168666092
aI-2538325251187987875
aI7360301124938763028
aI3527732213735992804
aI7880216371634032619
aI8117683519762143865
aI1442321817328140560
aI5238735122614418551
aI-7384535061832350703
aI2415746542523937645
aI1378404395669739487
aI-2115083219744334406
aI6664171036341426956
aI-650584991470804202
aI611063183295609985
aI-1162781921376982782
aI-8915454011695184481
aI3946605986523175942
aI-2412041158035436396
aI-5882151892606104954
aI-7869259011709610278
aI1912746203339681507
aI6814239783791174617
aI-2976240301313677171
aI2678476234215272900
aI548063286931550091
aI-5332369445110012208
aI-8990712807066783244
aI6989721866748808405
aI-2473865377739810728
aI-780085723805120699
aI7738604463691165301
aI-484451257060410990
aI-309679939471608612
aI-6276988982821227723
aI3809904429042783290
aI4348710197963765073
aI-8521946706014678538
aI-2473865377739810728
aI-780085723805120699
aI7738604463691165301
aI-484451257060410990
aI-309679939471608612
aI-6276988982821227723
aI3809904429042783290
aI-264668314206796687
aI8609074526331071670
aI-6946505552025628330
aI5029937294062469700
aI-979645891705858572
aI8524149243013622332
aI6069348979015649297
aI-7355342053653921958
aI1905404598556249037
aI-5760086011801817506
aI4794535130124488114
aI-4032777685082334981
aI4148975058840100957
aI4889567441297793854
aI1877493479745825431
aI4387296598785890778
aI8634209996169342717
aI-3086315125612891543
aI6810721505023573141
aI6476494204964816800
aI-6231310377364269089
aI336095092974128041
aI5447952974700007595
aI5447952974700007595
aI-301050214343177024
aI-5357106941964700121
aI-3614117192353144654
aI-9022249316393027201
aI237901302519305342
aI5944735841347197252
aI4254536400845489250
aI4254536400845489250
aI-2878721232020537049
aI5208547751481251300
aI8605584874162613931
aI-8688928307811425703
aI-9108618044103152918
aI-8283008150124327634
aI2141417340564212024
aI4564727670224850572
aI721019105194115140
aI2141417340564212024
aI8550191101853506778
aI9216265619798344196
aI5407623682386279678
aI-1786727577425413289
aI3540517059049219386
aI3540517059049219386
aI-2978315507458005838
aI3921463876794561991
aI-296832106353442439
aI-9166101450150326024
aI-4562969315049888542
aI-4562969315049888542
aI-331391130181547092
aI-4562969315049888542
aI-6447912258557617196
aI-5990711657517031582
aI-6447912258557617196
aI88218764284290729
aI197161849259609885
aI-3494333968677254179
aI898742664930438447
aI7768055390024353597
aI-3791392822357355519
aI-9204322962418542210
aI-2500642970641148209
aI6306819016542029993
aI1530624458658471755
aI93856907398880637
aI-1269046205788204459
aI5678562589285178846
aI-6130052517166519681
aI8508331405978911456
aI2039994488572738802
aI4472012421709283306
aI-1240770822453328023
aI7166514048843684815
aI1629988842355360947
aI284465733489446604
aI-5698947071440710826
aI5429348231868532669
aI992174367181064251
aI992174367181064251
aI6424976551225441370
aI2537167707530928761
aI-5308197253991182123
aI-786389541602226532
aI2722680668353824943
aI2722680668353824943
aI7373942592625876518
aI-8584620723199001171
aI7883693892386880803
aI-6477139180207850214
aI-2066383026595116786
aI-6621507485957816716
aI830407401809695223
aI-9108555523406889259
aI-9108555523406889259
aI8802413377873862217
aI-9108555523406889259
aI-9108555523406889259
aI8802413377873862217
aI-6781986334388057045
aI7389792465325444828
aI-193871638831683050
aI-1891833163440522515
aI6216158955763581087
aI-6621507485957816716
aI830407401809695223
aI5774489588919804626
aI5774489588919804626
aI-4508977161032742356
aI5774489588919804626
aI5774489588919804626
aI-4508977161032742356
aI-2511625887822160106
aI-6049447107654626171
aI-3662798637090359017
aI-6476723102948596882
aI3114544900551428256
aI-3722144995244691420
aI539112532016724170
aI739896537088242221
aI8449324525229399831
aI-2538812923984789089
aI-7897551101803028528
aI1414391601514123654
aI-2868728826911722089
aI1937735893212094445
aI4806114327391633773
aI4616274818052872710
aI4616274818052872710
aI320024218152284581
aI-1359576173966678239
aI-4445957387632557345
aI6866544893747851761
aI6307120676118025101
aI7390828142367862571
aI7615317858436104948
aI2428510173989663002
aI-8415364599715345474
aI4827159464489232106
aI-5431317471249184195
aI1231016436299371421
aI1231016436299371421
aI8280489625643584325
aI8280489625643584325
aI4185979985249106377
aI8297880433231504150
aI2576276048561408673
aI88218764284290729
aI197161849259609885
aI4641924077113570590
aI6482571054079375871
aI8713551357470386217
aI6947173368039237226
aI-1875149830992819572
aI6873685132308773068
aI5843065636826344945
aI-9067359634586458165
aI-2449725828055145188
aI6387236278442959540
aI-1001076745566202380
aI-4826484954616537011
aI-4033116003351134034
aI-1680177674701988986
aI-2554890371712344796
aI6101209626420530685
aI-2248143684419152560
aI3168746048472495179
aI-7272328752030476011
aI5343169133807574709
aI-3805708903492606938
aI1618188427212555280
aI5343169133807574709
aI-4100623286650208540
aI-4100623286650208540
aI8593987690699224005
aI3626211426264487546
aI6573765638704286108
aI6573765638704286108
aI1130321379682814462
aI-6599099114691153400
aI-6599099114691153400
a.