(lp0
I4252357655197583172
aI-4169368767175781346
aI-3786648589728522243
aI-2946568915301591174
aI1231016436299371421
aI4556886444168602992
aI1231016436299371421
aI-883453983418720596
aI1136044180998586915
aI6535759339222043688
aI-1149725998349014047
aI-4025789487502268812
aI4082255134239271493
aI2360769932345119256
aI-3090337576117992630
aI-8132997677732874010
aI7270290861647102829
aI-770820109233113183
aI2123582998994441115
aI1131311434604965377
aI8291964434160994359
aI-3193497307937655036
aI7769349437266981386
aI9193387863650813584
aI-8188429754124145931
aI-2486155900100132227
aI2552839497095859659
aI-3302431117084769023
aI3908961989193305128
aI8703082648520780448
aI7692042703260332728
aI-4136017952415309625
aI-447900529228816401
aI-1081175403750408577
aI2518145112340228332
aI-1615313033603711188
aI-3091122057575978310
aI-3167812125955271638
aI-9109080862059538139
aI-3361471148006099134
aI-1707293101756857789
aI-6535269347950746283
aI-825442349549265980
aI-5458541528412661912
aI-2064179483866291576
aI-168491715261855003
aI2577583855448340877
aI-7391753618434800071
aI-1274391116313776846
aI-3235429614737078334
aI7956546687899094118
aI-354603629403419306
aI7869579512732319319
aI5508938407329628320
aI8301719483950862286
aI-72014748264087099
aI5609549561393767612
aI131000744066505459
aI3851228420601136355
aI1597181962508187122
aI-1903335829288650422
aI-1750342208536422430
aI1966522870776422155
aI-9200808147580609474
aI5523142030980149333
aI-3588254046545882808
aI4233496465865181233
aI1341649073783454919
aI-2199791247869485257
aI5662291633578308641
aI-6432215765586602220
aI-330022537020447840
aI1517197923020437298
aI2845993012111063642
aI3100452234078624892
aI9052117766680068445
aI-8555277825340762402
aI-1364981162923716680
aI-3068249577517542724
aI2199986551757976025
aI5334452646932734024
aI3089853353163799172
aI4178608485680449725
aI6318016360185982730
aI-5643712549078021276
aI2536285108384706696
aI6679020915120832309
aI3659596782612254662
aI-6413031676424067384
aI8104478097747330194
aI7797623501890041295
aI912355594247016925
aI4301790108549420526
aI-9054135076875503248
aI1923918799843180700
aI-364031280108957700
aI2053784189670448189
aI-547240085951277519
aI-1508724577720011649
aI6882595399138796696
aI-780948433201836882
aI8682125704577312286
aI-6481224142764322923
aI4655992833609593145
aI4434249507145588971
aI8343891189349027210
aI1299600025297244340
aI3057371772485249959
aI199037848959336284
aI7952015486108140002
aI631472573147917217
aI3754308269656029349
aI8812014573577682306
aI-7046275557461640156
aI1532792510052770587
aI5330868280708645322
aI3838388076626976890
aI-4437897449901718657
aI-9206576011773891493
aI-2042946777199871617
aI-2491664302057492510
aI-5539352733003640096
aI-8532721983712164737
aI-3583088851880180757
aI4439302248033358300
aI6980454312564304277
aI-2707366731815559361
aI2311950333793673788
aI-6855777731607099498
aI-6418419140672224124
aI-5112359782594349445
aI-5177158790010173770
aI-5118358591914841586
aI6379877428488703406
aI8709552329022275953
aI369432546034515738
aI2168017314887137673
aI-5118358591914841586
aI6379877428488703406
aI6302299462848271731
aI4420767870100723638
aI-8871542041965415957
aI-2812680384096208672
aI2110377703503630723
aI-2834696090785978952
aI7510930137195503409
aI4440850235929305622
aI6477100409580496625
aI3315740685146052756
aI-2648152815061184460
aI2162244713608544609
aI-682323942520928505
aI-3832077391214454368
aI2659911494650176182
aI2750484658771332767
aI1040631630008306891
aI6825253523590973034
aI-2137233733368817447
aI4324220077478244945
aI-2220350822295629618
aI-3932802296029402018
aI-2756810878928789345
aI-2403634451675103007
aI-8361961261598394836
aI1053528972654646050
aI4199569296010743019
aI-7855933774516885928
aI3094197222109461634
aI4199569296010743019
aI-7855933774516885928
aI3094197222109461634
aI6789356809809896113
aI-5692339100976187020
aI7956982511531084801
aI2727149207531284736
aI-7892855258214605212
aI-2108807768817172410
aI2439187825713860342
aI-549642697342211945
aI-9062398022105453159
aI-3164173143408395949
aI-4438511686474994995
aI118078703265225444
aI732895698392872907
aI-3631726505098436674
aI2448548623464948474
aI-3713937158757650135
aI4252357655197583172
aI-4169368767175781346
aI-3786648589728522243
aI-2946568915301591174
aI1231016436299371421
aI4556886444168602992
aI1231016436299371421
aI-883453983418720596
aI1136044180998586915
aI6535759339222043688
aI-1149725998349014047
aI-4025789487502268812
aI4082255134239271493
aI2360769932345119256
aI-3090337576117992630
aI-8132997677732874010
aI7270290861647102829
aI-770820109233113183
aI2123582998994441115
aI1131311434604965377
aI8291964434160994359
aI-3193497307937655036
aI7769349437266981386
aI9193387863650813584
aI-8188429754124145931
aI-2486155900100132227
aI2552839497095859659
aI-3302431117084769023
aI3908961989193305128
aI8703082648520780448
aI7692042703260332728
aI-4136017952415309625
aI-447900529228816401
aI-1081175403750408577
aI2518145112340228332
aI-1615313033603711188
aI-3091122057575978310
aI-3167812125955271638
aI-9109080862059538139
aI-3361471148006099134
aI-1707293101756857789
aI-6535269347950746283
aI-825442349549265980
aI-5458541528412661912
aI-2064179483866291576
aI-168491715261855003
aI2577583855448340877
aI-7391753618434800071
aI-1274391116313776846
aI-3235429614737078334
aI7956546687899094118
aI-354603629403419306
aI7869579512732319319
aI5508938407329628320
aI8301719483950862286
aI-72014748264087099
aI5609549561393767612
aI131000744066505459
aI3851228420601136355
aI1597181962508187122
aI-1903335829288650422
aI-1750342208536422430
aI1966522870776422155
aI-9200808147580609474
aI5523142030980149333
aI-3588254046545882808
aI4233496465865181233
aI1341649073783454919
aI-2199791247869485257
aI5662291633578308641
aI-6432215765586602220
aI-330022537020447840
aI1517197923020437298
aI2845993012111063642
aI3100452234078624892
aI9052117766680068445
aI-8555277825340762402
aI-1364981162923716680
aI-3068249577517542724
aI2199986551757976025
aI5334452646932734024
aI3089853353163799172
aI4178608485680449725
aI6318016360185982730
aI-5643712549078021276
aI2536285108384706696
aI6679020915120832309
aI3659596782612254662
aI-6413031676424067384
aI8104478097747330194
aI7797623501890041295
aI912355594247016925
aI4301790108549420526
aI-9054135076875503248
aI1923918799843180700
aI-364031280108957700
aI2053784189670448189
aI-547240085951277519
aI-1508724577720011649
aI6882595399138796696
aI-780948433201836882
aI8682125704577312286
aI-6481224142764322923
aI4655992833609593145
aI4434249507145588971
aI8343891189349027210
aI1299600025297244340
aI3057371772485249959
aI199037848959336284
aI7952015486108140002
aI631472573147917217
aI3754308269656029349
aI8812014573577682306
aI-7046275557461640156
aI1532792510052770587
aI5330868280708645322
aI3838388076626976890
aI-4437897449901718657
aI-9206576011773891493
aI-2042946777199871617
aI-2491664302057492510
aI-5539352733003640096
aI-8532721983712164737
aI-3583088851880180757
aI4439302248033358300
aI6980454312564304277
aI-2707366731815559361
aI2311950333793673788
aI-6855777731607099498
aI-6418419140672224124
aI-5112359782594349445
aI-5177158790010173770
aI-5118358591914841586
aI6379877428488703406
aI8709552329022275953
aI369432546034515738
aI2168017314887137673
aI-5118358591914841586
aI6379877428488703406
aI6302299462848271731
aI4420767870100723638
aI-8871542041965415957
aI-2812680384096208672
aI2110377703503630723
aI-2834696090785978952
aI7510930137195503409
aI4440850235929305622
aI6477100409580496625
aI3315740685146052756
aI-2648152815061184460
aI2162244713608544609
aI-682323942520928505
aI-3832077391214454368
aI2659911494650176182
aI2750484658771332767
aI1040631630008306891
aI6825253523590973034
aI-2137233733368817447
aI4324220077478244945
aI-2220350822295629618
aI-3932802296029402018
aI-2756810878928789345
aI-2403634451675103007
aI-8361961261598394836
aI1053528972654646050
aI4199569296010743019
aI-7855933774516885928
aI3094197222109461634
aI4199569296010743019
aI-7855933774516885928
aI3094197222109461634
aI6789356809809896113
aI-5692339100976187020
aI7956982511531084801
aI2727149207531284736
aI-7892855258214605212
aI-2108807768817172410
aI2439187825713860342
aI-549642697342211945
aI-9062398022105453159
aI-3164173143408395949
aI-4438511686474994995
aI118078703265225444
aI732895698392872907
aI-3631726505098436674
aI2448548623464948474
aI-3713937158757650135
aI4252357655197583172
aI-4169368767175781346
aI-3786648589728522243
aI-2946568915301591174
aI1231016436299371421
aI4556886444168602992
aI1231016436299371421
aI-883453983418720596
aI1136044180998586915
aI6535759339222043688
aI-1149725998349014047
aI-4025789487502268812
aI4082255134239271493
aI2360769932345119256
aI-3090337576117992630
aI-8132997677732874010
aI7270290861647102829
aI-770820109233113183
aI2123582998994441115
aI1131311434604965377
aI8291964434160994359
aI-3193497307937655036
aI7769349437266981386
aI9193387863650813584
aI-8188429754124145931
aI-2486155900100132227
aI2552839497095859659
aI-3302431117084769023
aI3908961989193305128
aI8703082648520780448
aI7692042703260332728
aI-4136017952415309625
aI-447900529228816401
aI-1081175403750408577
aI2518145112340228332
aI-1615313033603711188
aI-3091122057575978310
aI-3167812125955271638
aI-9109080862059538139
aI-3361471148006099134
aI-1707293101756857789
aI-6535269347950746283
aI-825442349549265980
aI-5458541528412661912
aI-2064179483866291576
aI-168491715261855003
aI2577583855448340877
aI-7391753618434800071
aI-1274391116313776846
aI-3235429614737078334
aI7956546687899094118
aI-354603629403419306
aI7869579512732319319
aI5508938407329628320
aI8301719483950862286
aI-72014748264087099
aI5609549561393767612
aI131000744066505459
aI3851228420601136355
aI1597181962508187122
aI-1903335829288650422
aI-1750342208536422430
aI1966522870776422155
aI-9200808147580609474
aI5523142030980149333
aI-3588254046545882808
aI4233496465865181233
aI1341649073783454919
aI-2199791247869485257
aI5662291633578308641
aI-6432215765586602220
aI-330022537020447840
aI1517197923020437298
aI2845993012111063642
aI3100452234078624892
aI9052117766680068445
aI-8555277825340762402
aI-1364981162923716680
aI-3068249577517542724
aI2199986551757976025
aI5334452646932734024
aI3089853353163799172
aI4178608485680449725
aI6318016360185982730
aI-5643712549078021276
aI2536285108384706696
aI6679020915120832309
aI3659596782612254662
aI-6413031676424067384
aI8104478097747330194
aI7797623501890041295
aI912355594247016925
aI4301790108549420526
aI-9054135076875503248
aI1923918799843180700
aI-364031280108957700
aI2053784189670448189
aI-547240085951277519
aI-1508724577720011649
aI6882595399138796696
aI-780948433201836882
aI8682125704577312286
aI-6481224142764322923
aI4655992833609593145
aI4434249507145588971
aI8343891189349027210
aI1299600025297244340
aI3057371772485249959
aI199037848959336284
aI7952015486108140002
aI631472573147917217
aI3754308269656029349
aI8812014573577682306
aI-7046275557461640156
aI1532792510052770587
aI5330868280708645322
aI3838388076626976890
aI-4437897449901718657
aI-9206576011773891493
aI-2042946777199871617
aI-2491664302057492510
aI-5539352733003640096
aI-8532721983712164737
aI-3583088851880180757
aI4439302248033358300
aI6980454312564304277
aI-2707366731815559361
aI2311950333793673788
aI-6855777731607099498
aI-6418419140672224124
aI-5112359782594349445
aI-5177158790010173770
aI-5118358591914841586
aI6379877428488703406
aI8709552329022275953
aI369432546034515738
aI2168017314887137673
aI-5118358591914841586
aI6379877428488703406
aI6302299462848271731
aI4420767870100723638
aI-8871542041965415957
aI-2812680384096208672
aI2110377703503630723
aI-2834696090785978952
aI7510930137195503409
aI4440850235929305622
aI6477100409580496625
aI3315740685146052756
aI-2648152815061184460
aI2162244713608544609
aI-682323942520928505
aI-3832077391214454368
aI2659911494650176182
aI2750484658771332767
aI1040631630008306891
aI6825253523590973034
aI-2137233733368817447
aI4324220077478244945
aI-2220350822295629618
aI-3932802296029402018
aI-2756810878928789345
aI-2403634451675103007
aI-8361961261598394836
aI1053528972654646050
aI4199569296010743019
aI-7855933774516885928
aI3094197222109461634
aI4199569296010743019
aI-7855933774516885928
aI3094197222109461634
aI6789356809809896113
aI-5692339100976187020
aI7956982511531084801
aI2727149207531284736
aI-7892855258214605212
aI-2108807768817172410
aI2439187825713860342
aI-549642697342211945
aI-9062398022105453159
aI-3164173143408395949
aI-4438511686474994995
aI118078703265225444
aI732895698392872907
aI-3631726505098436674
aI2448548623464948474
aI-3713937158757650135
aI4266956825435920778
aI408371079235641384
aI2316390914062023418
aI5915898608286759720
aI-8285188286384540612
aI-8285188286384540612
aI-5942269333073432673
aI-5942269333073432673
aI1546637358091404749
aI1546637358091404749
aI6327404241183159978
aI6327404241183159978
aI1134780835183386791
aI1134780835183386791
aI3552333168196037400
aI3552333168196037400
aI225640571768863166
aI225640571768863166
aI-5299007610747049814
aI-5299007610747049814
aI-8590566753001841252
aI-8590566753001841252
aI-7443151593091450680
aI-7443151593091450680
aI2049694530738477172
aI2049694530738477172
aI-1144512266616356674
aI-6160931163890215228
aI-5519076487520606414
aI4483537407607905825
aI7567931053273314934
aI-558969900715192103
aI5576660505560513123
aI-2320041409162079412
aI3506090272072583638
aI-3431884785287303016
aI-5471511391620431746
aI-4586575730931656609
aI-5073170678362492023
aI-5073170678362492023
aI6947547727612404730
aI6947547727612404730
aI4798969969372177680
aI4798969969372177680
aI1060855534853286721
aI1060855534853286721
aI-8167870363658698782
aI-8167870363658698782
aI-3632583022140961949
aI-3632583022140961949
aI-1304001479175308381
aI-1304001479175308381
aI-2061643367286483043
aI-2061643367286483043
aI-5573512641106406343
aI-5573512641106406343
aI-5360255562282904195
aI-5360255562282904195
aI3061308118998294323
aI3061308118998294323
aI377709430290257074
aI3292797534417315457
aI39339628811102879
aI7190047351165553425
aI-1045708275261407610
aI5793210893127527118
aI-9022249316393027201
aI5452335713357249046
aI7348843366607161932
aI5418988444690675603
aI-3761068198626017183
aI-228851361214839251
aI2117189858580974399
aI-8688928307811425703
aI-5821975406274418585
aI-5614990124969558606
aI-8648357674539088658
aI-5655233731027581016
aI6682532249823693079
aI-6880530578915002140
aI-6880530578915002140
aI-2165202847897693979
aI7341637253774356081
aI-738697167169779641
aI-5884314018466468562
aI7123448869996580533
aI4798018613352576530
aI1246521597430724529
aI-3783512002637012357
aI-3817531401248603053
aI6682532249823693079
aI5065638657461760799
aI5065638657461760799
aI6001095066272525953
aI-6998360740149379379
aI-738697167169779641
aI-5884314018466468562
aI7123448869996580533
aI4798018613352576530
aI1246521597430724529
aI-3783512002637012357
aI-3817531401248603053
aI2622784416013595765
aI7094217125156140855
aI1451304824275631824
aI8870495137810816814
aI3584091344339230580
aI1178332927015187018
aI3584091344339230580
aI1178332927015187018
aI2622955492942761037
aI-5147359206743809613
aI3551289384561023671
aI2622955492942761037
aI-5147359206743809613
aI4656258849366019653
aI-7541654376068568772
aI3852621586948699397
aI-4249834800989448964
aI-7761453574196440678
aI-278601781884113677
aI-4249834800989448964
aI-1842293494383770513
aI7224556376830599248
aI7210454262816613625
aI7224556376830599248
aI-8845759282461166458
aI5407623682386279678
aI8239023980812361048
aI-1786727577425413289
aI1195455148516672613
aI-773661573386286171
aI1563284097851725124
aI-8969319903159248312
aI8448156929117020222
aI4828642946306984766
aI3578099989164518880
aI-2191396164174243750
aI-2363740358177251858
aI4895168691700547614
aI9062886985599404789
aI157493745960506091
aI-2827830424913995195
aI4733828940112995769
aI3486550905245256152
aI-4913126022879471477
aI-2452824144357544245
aI-2289322164811710534
aI4799297057347650077
aI5371695206751707138
aI5141903631687900611
aI-785537359494855441
aI3033680661259367408
aI6717075281417796930
aI-8731528666715667193
aI-3223027128440596067
aI-493003719430882891
aI8393045597639349458
aI-6129808145340541801
aI-4169162223175333938
aI4001856196121646579
aI-3468423968874206279
aI6915110417789229740
aI8231687937696328215
aI88218764284290729
aI88218764284290729
aI88218764284290729
aI88218764284290729
aI8654466697659066643
aI-7853730106386324688
aI6061869979596053260
aI2609134697818246175
aI454941000432367857
aI-5761408966946961844
aI-1938052302147825944
aI7657941049959661301
aI-4959857756845886210
aI-2495226251714501437
aI2605185333038115061
aI1649327879505576689
aI197161849259609885
aI197161849259609885
aI1813448461435830031
aI1813448461435830031
aI197161849259609885
aI197161849259609885
aI-2541172713271685105
aI5397358597365560828
aI6568860995590551370
aI-2646514972716453218
aI5167178337887433691
aI9218978191451545573
aI1604202020819598232
aI1414456894109849583
aI-489358357752941316
aI8364676532674362385
aI-5786724221563297765
aI534503775389161293
aI5751757410319570784
aI-8501069123086206235
aI7413260380504100074
aI6630034168036965673
aI6630034168036965673
aI3829647063460824460
aI1851646546384391783
aI1077026055114764730
aI1414456894109849583
aI-489358357752941316
aI9148190036262308881
aI-9133802726404915271
aI2086155521450616107
aI-9118316128104921109
aI-6867296863845316099
aI697932706362411669
aI-7676992837916496070
aI495832722676611340
aI7418836051320397078
aI1730427962769830705
aI454617643382635710
aI7659002873201498296
aI3621930593017990184
aI4872297891065107567
aI4655098696406217526
aI6008820344877916658
aI2021853587888395968
aI-8577336545846738849
aI3929178279415018737
aI2592665113086787532
aI8196038762813985336
aI-4515525295360949182
aI295801786507027553
aI6008820344877916658
aI2021853587888395968
aI-8577336545846738849
aI3929178279415018737
aI5843065636826344945
aI-5770851815733921867
aI1923806039074044648
aI-5978234895790207321
aI4485678063042983759
aI5736288736468891929
aI1178792047797064273
aI4339355383177829043
aI-6842357375421686147
aI-9067359634586458165
aI-2449725828055145188
aI6387236278442959540
aI-3449295525678106228
aI-697528953199253655
aI6492780336976601974
aI5581690163747259590
aI7344537316274125798
aI3768502469074060390
aI-2945944245031032322
aI6718931660719739178
aI-1001076745566202380
aI-4826484954616537011
aI7210681075844415644
aI5618838181747096385
aI5618838181747096385
aI7210681075844415644
aI7535267772374589132
aI-6272043331591270350
aI-1433744552733555658
aI5618838181747096385
aI5618838181747096385
aI-1433744552733555658
aI7156838528101774326
aI345523944507980576
aI-3136789713254658465
aI5814781615192945374
aI7781704700847825773
aI2018039110803906871
aI7781704700847825773
aI7781704700847825773
aI-8522783839159087447
aI5768310904772038270
aI2018039110803906871
aI5768310904772038270
aI5768310904772038270
aI5256809381360506483
aI5256809381360506483
aI992304066777901651
aI-8576515682096457990
aI-1729854058352629420
aI-3852991640380871029
aI88887060416811022
aI-3852991640380871029
aI6424976551225441370
aI-2554890371712344796
aI442324530551203685
aI-2248143684419152560
aI-4767180978703778774
aI606251093891305645
aI440695525371362497
aI-5008344004508726171
aI7968937601801098488
aI8371547060415109317
aI-4902846838931886926
aI-6883203525502401827
aI-3380211148069326630
aI-8110387420407065799
aI5906889839300094876
aI-5052805723880778078
aI-1577348603238445325
aI6138592764736312048
aI7513019445949747881
aI-6883203525502401827
aI-3380211148069326630
aI-3139049740236711293
aI5066881106545773206
aI251009261446971297
aI706549511436327229
aI251009261446971297
aI-9137006679706162578
aI-268007733492035570
aI6557914161634830996
aI8053606490913219764
aI-6111836105033399302
aI6557914161634830996
aI3706616780773596543
aI1976194255871050961
aI3168746048472495179
aI-7272328752030476011
aI334860812816907386
aI-7536770696488328483
aI-1196339787617919459
aI-7139072754165662165
aI-3634458185102445756
aI1976194255871050961
aI-3805708903492606938
aI1618188427212555280
aI334860812816907386
aI-7536770696488328483
aI-8187140878338334262
aI-7139072754165662165
aI-5717543914585890046
aI6459125705266573658
aI-993942538608871472
aI7809069087311538825
aI4822031863513824899
aI-7618849521639518455
aI7295005885345070945
aI-6844023302167474510
aI2825948610250361679
aI-6670807109993219273
aI-3561218242457754666
aI3188444257123500838
aI4976438429207478654
aI614587112736327367
aI-852635412180242871
aI-4611130792464637151
aI-632284159503568964
aI-1765043494703644892
aI-498839187654902648
aI-4100623286650208540
aI4761967112335735366
aI-498839187654902648
aI-4100623286650208540
aI4761967112335735366
aI7276478968320656215
aI-3635121315731743462
aI-339924089475679909
aI5567931275525371142
aI-4068898133467282610
aI-4068898133467282610
aI263017849852774900
aI-5862162146348098685
aI263017849852774900
aI-5862162146348098685
aI-4484851574687342658
aI-3119516465396460718
aI957909197765251662
aI3626211426264487546
aI6573765638704286108
aI957909197765251662
aI1130321379682814462
aI-6599099114691153400
aI1775334255459537561
aI6998933583093560945
aI-223956839491471845
aI-6600610577291587742
aI-7010040177873388180
aI-7010040177873388180
aI-1149725998349014047
aI-5270706765271658845
aI2360769932345119256
aI-9190511427889834312
aI-3662301643447756946
aI-401233640860689775
aI6708324980413350645
aI-3675389179432927236
aI-3662301643447756946
aI-401233640860689775
aI6708324980413350645
aI-3675389179432927236
aI9114929474796807562
aI-36337694939212530
aI7177763462188791208
aI-7386254058567134231
aI1501797540059968127
aI-2224051950917999351
aI5558761791335522135
aI-5803507017651081083
aI-7591110423990086760
aI-8682161533818858091
aI1696470154026472206
aI-8682161533818858091
aI2354650524234799766
aI7449554055250267801
aI2354650524234799766
aI-2497501848815117882
aI2666167688327959428
aI-6548321513924735352
aI-7886977797637567804
aI-4124660966711684599
aI-7886977797637567804
aI-4934559428985819308
aI-512477661960293096
aI7250498262880315872
aI-4054922535275476725
aI7881955082432199577
aI-4054922535275476725
aI509438208973150236
aI-6901423915105546338
aI7397191053065832298
aI7397191053065832298
aI7348849293428752625
aI7348849293428752625
aI8461309279478204780
aI-4306960551802660576
aI2826279890522042292
aI2907253783507965794
aI2907253783507965794
aI-934126650473760975
aI-4323896892694610591
aI-657624738006444791
aI-657624738006444791
aI-2278244974370605318
aI-7585322917289846806
aI-7614959796986756263
aI7400126340609973378
aI-2888028876132283679
aI4910875412379945624
aI-7523107438063674013
aI8934963574729398481
aI-2236402940650199362
aI7100705851929226473
aI4333498919267820533
aI7100705851929226473
aI579132386760335886
aI6964516635640097371
aI579132386760335886
aI1874275209116086653
aI9187623562431510908
aI-8312849440601877897
aI-8312849440601877897
aI-1699609199021808509
aI796694785354972928
aI-1699609199021808509
aI940764212636350468
aI-427415838465863126
aI-741908214610411203
aI-5738419510240936263
aI5901384684384723161
aI-4085439074102490766
aI7224410218052111393
aI1529326041226499407
aI9052117766680068445
aI3706565440850154338
aI-8491768784334284428
aI-8555277825340762402
aI6038233085916976718
aI-3550022425125795502
aI-3550022425125795502
aI-7175156620310506810
aI1071212134351835083
aI1071212134351835083
aI1447218343336171924
aI-3550022425125795502
aI-3550022425125795502
aI8739992792306047622
aI1071212134351835083
aI1071212134351835083
aI-2184210981168015711
aI-4520142812056377110
aI-1928608697830914616
aI-8458803071965754648
aI-6359006975406221919
aI3089853353163799172
aI-6359006975406221919
aI4178608485680449725
aI1864014231704986744
aI52310721728953025
aI-5961796536772237362
aI5824493543686724235
aI-639094666159652150
aI6738026098246299821
aI872412511757953657
aI-7071879279516633809
aI5367971258114459030
aI7640963667361883678
aI5262849625870950166
aI7501657748896766662
aI-8811555547157846540
aI5955619413919378561
aI7501657748896766662
aI-8811555547157846540
aI1916980040774395
aI-4937306854986339918
aI-5080092595949569055
aI-983693958377199500
aI-5231674253799821663
aI2297397672338529764
aI1991232694112603613
aI4474852410630286381
aI1735117295901590731
aI5319908248515906102
aI-8638622235361397807
aI178663334291542831
aI-5588927410003980050
aI-635856718900225663
aI4966904299619289126
aI-8638622235361397807
aI178663334291542831
aI-7129006362408743072
aI966604425574732680
aI4388336388621385261
aI-1235842069881954254
aI1922423501589436032
aI8795766103906847156
aI7196295974068882370
aI-4602089588928172359
aI-7610673996637347116
aI-7398691115660235079
aI6777298854414370032
aI-1426831265571081305
aI-5546031852369491823
aI681309269559964988
aI5149417084604336631
aI-6671954121539415607
aI-2090264915456100769
aI-395925722054165686
aI-6826441851315278827
aI-395925722054165686
aI-6826441851315278827
aI8508204781220244818
aI-7592291962932480004
aI2028417677579151447
aI-4652693940375403544
aI-5995544976351272450
aI-6561547686894196595
aI-7533167393485858775
aI7961750029729552157
aI3141096520098551729
aI-8609195710549485429
aI4502718090286796026
aI2915194754809818426
aI5800208313536987941
aI-8211092796916733021
aI-3318847860165024561
aI3004766239611674181
aI7480811132610968880
aI5370263009376259282
aI1260035053770628841
aI4827847123293416648
aI2838745801960259372
aI-6943508591748882820
aI-3094754856799964236
aI-4842225724042844692
aI-5530065370487317762
aI-7469950267228228626
aI-7866486511970552634
aI-5530065370487317762
aI-7469950267228228626
aI-2246203149276490743
aI-263135453715270369
aI-263135453715270369
aI-4854517090146120458
aI-4854517090146120458
aI-3028180993024157180
aI4705887478444433449
aI1178332927015187018
aI7071744651517198274
aI6049871655666234592
aI1178332927015187018
aI3551289384561023671
aI4656258849366019653
aI8223523973994634063
aI-1473286845806916328
aI-4249834800989448964
aI-2099746847421410978
aI6772872843812274421
aI-1473286845806916328
aI-4249834800989448964
aI-2099746847421410978
aI4476884475698454289
aI2883314361479409178
aI4476884475698454289
aI2883314361479409178
aI-1094350844991225624
aI-8929533698914467417
aI9189609128192536216
aI7842794083678991472
aI-1094350844991225624
aI-3014900049926994332
aI9189609128192536216
aI-7328631308952851807
aI8939527630258656271
aI-5565057137673272389
aI8939527630258656271
aI1866716729421172442
aI2622114708753429941
aI-2333027704545164417
aI-4999273031657115489
aI-3285322709188507019
aI2622114708753429941
aI9216925707158083237
aI-4999273031657115489
aI-3285322709188507019
aI4895168691700547614
aI1168853762049252637
aI-2827830424913995195
aI-5474347058908706232
aI-6001056820865965297
aI5437076438292433425
aI5981970578531243713
aI5981970578531243713
aI-5165947053914341451
aI-2548108018326832586
aI-2548108018326832586
aI-7603130594358113212
aI-6476715557408640747
aI-7282975829382649989
aI-1983684396097640065
aI-1481344720925776115
aI-6678278266368242807
aI-7447642473345128750
aI-413125651706714636
aI-3855058738897798916
aI2311378031688979670
aI-1558563450152548641
aI417550274217379427
aI2543664076737025562
aI435591772051613975
aI4946974457854611601
aI-4936680090667309698
aI-1943214648880233011
aI-3056547265477026949
aI5903875659868189815
aI-3200684985642236061
aI7467777751566916043
aI2621905798495517430
aI-9044350063288411117
aI-3025607463476330441
aI-3362797273311028457
aI2270342917614455814
aI5158252471082556350
aI2775218467714113356
aI1551746783401398309
aI4394563795077302235
aI7546501564867108160
aI2979843826713405698
aI6946429676172552454
aI-2845833010555403713
aI-5099004894081410511
aI-2953347617999167258
aI2277562728756976355
aI3472619145227237153
aI-5099004894081410511
aI-8114944030862151116
aI-5686888817629127392
aI8766304363242234611
aI-6112062005346977551
aI-5686888817629127392
aI8766304363242234611
aI8214197727063971252
aI8214197727063971252
aI450167581705653510
aI1427695175824653827
aI-1165506708391301650
aI-8493230890737550247
aI7921959412701825766
aI-3479947765142920463
aI7019764453753979387
aI5867581115594492674
aI4958434113952202972
aI7470589690563242828
aI-8659689067112172468
aI-1164747590309654123
aI-3339844898155995641
aI-3828413191816085476
aI5440737648354519495
aI-140550918453775861
aI-3250847294730852518
aI2605847436725116280
aI4640265736417925743
aI5440737648354519495
aI1491813828915803077
aI6912426662116085104
aI1044469369443041421
aI-5607612648184410125
aI-7805727568237321598
aI4030106826807625402
aI686056239030387133
aI-4750147024834309081
aI-8064045223178343619
aI497561806476322794
aI5501549685571628172
aI-3791283184087331308
aI-8064045223178343619
aI-633170290206242578
aI-8113290922123878513
aI-5924738334034119372
aI-7028377539068713869
aI-6422062062747754114
aI1491556856515820905
aI6087319240047309036
aI7816422057753968706
aI-4223207002592879345
aI-6749672295871641732
aI8358265845548561077
aI-6749672295871641732
aI6895879736952398789
aI455087688844882863
aI2589343804933590349
aI-5596044449862965382
aI-8108866600715156256
aI-6681380772429725087
aI6319096618545190503
aI7605612095665066530
aI3612863050756317743
aI-6681380772429725087
aI6319096618545190503
aI-6474056059053786869
aI8963802486018335824
aI-8917076946517501770
aI4048319012828732319
aI-4020616956839955159
aI530991574930526301
aI5862670825634610535
aI-3571459605892102220
aI-9210549006152201124
aI8143917458538540510
aI-2769150462694917138
aI-1986285327943513518
aI-1643982523706833300
aI-368746779147335242
aI8953773022864260356
aI4077614933502601858
aI-5238394194181654538
aI1311567506894048127
aI2626745975209018472
aI-6399903681159268410
aI-5238394194181654538
aI1311567506894048127
aI2626745975209018472
aI-6530209586016096958
aI-7440052264487187959
aI-3983847566605685321
aI973010391106772998
aI-8730522749319291546
aI-7440052264487187959
aI-3983847566605685321
aI2388714705516589162
aI6191654013954073678
aI8423726127115536001
aI-6612675734993402215
aI-330387551857153370
aI-5105968058830869519
aI-6612675734993402215
aI-330387551857153370
aI-5105968058830869519
aI42353847535131289
aI-4261949279213322891
aI4917163515059936915
aI42353847535131289
aI-4261949279213322891
aI4917163515059936915
aI7986695079476618022
aI-4074327977492778485
aI7317092274304702304
aI1909464858368041747
aI-5824301912255866510
aI-4074327977492778485
aI-589215749085648748
aI3464190257186057215
aI5509682436691869638
aI-6889945694165692078
aI5838974011003199748
aI5838974011003199748
aI-722627585949735872
aI-722627585949735872
aI-5915195844000704816
aI1619696513247581828
aI-2516826840513329590
aI-7345550152856070613
aI4252357655197583172
aI-4169368767175781346
aI-3786648589728522243
aI-2946568915301591174
aI1231016436299371421
aI4556886444168602992
aI1231016436299371421
aI-883453983418720596
aI1136044180998586915
aI6535759339222043688
aI-1149725998349014047
aI-4025789487502268812
aI4082255134239271493
aI2360769932345119256
aI-3090337576117992630
aI-8132997677732874010
aI7270290861647102829
aI-770820109233113183
aI2123582998994441115
aI1131311434604965377
aI8291964434160994359
aI-3193497307937655036
aI7769349437266981386
aI9193387863650813584
aI-8188429754124145931
aI-2486155900100132227
aI2552839497095859659
aI-3302431117084769023
aI3908961989193305128
aI8703082648520780448
aI7692042703260332728
aI-4136017952415309625
aI-447900529228816401
aI-1081175403750408577
aI2518145112340228332
aI-1615313033603711188
aI-3091122057575978310
aI-3167812125955271638
aI-9109080862059538139
aI-3361471148006099134
aI-1707293101756857789
aI-6535269347950746283
aI-825442349549265980
aI-5458541528412661912
aI-2064179483866291576
aI-168491715261855003
aI2577583855448340877
aI-7391753618434800071
aI-1274391116313776846
aI-3235429614737078334
aI7956546687899094118
aI-354603629403419306
aI7869579512732319319
aI5508938407329628320
aI8301719483950862286
aI-72014748264087099
aI5609549561393767612
aI131000744066505459
aI3851228420601136355
aI1597181962508187122
aI-1903335829288650422
aI-1750342208536422430
aI1966522870776422155
aI-9200808147580609474
aI5523142030980149333
aI-3588254046545882808
aI4233496465865181233
aI1341649073783454919
aI-2199791247869485257
aI5662291633578308641
aI-6432215765586602220
aI-330022537020447840
aI1517197923020437298
aI2845993012111063642
aI3100452234078624892
aI9052117766680068445
aI-8555277825340762402
aI-1364981162923716680
aI-3068249577517542724
aI2199986551757976025
aI5334452646932734024
aI3089853353163799172
aI4178608485680449725
aI6318016360185982730
aI-5643712549078021276
aI2536285108384706696
aI6679020915120832309
aI3659596782612254662
aI-6413031676424067384
aI8104478097747330194
aI7797623501890041295
aI912355594247016925
aI4301790108549420526
aI-9054135076875503248
aI1923918799843180700
aI-364031280108957700
aI2053784189670448189
aI-547240085951277519
aI-1508724577720011649
aI6882595399138796696
aI-780948433201836882
aI8682125704577312286
aI-6481224142764322923
aI4655992833609593145
aI4434249507145588971
aI8343891189349027210
aI1299600025297244340
aI3057371772485249959
aI199037848959336284
aI7952015486108140002
aI631472573147917217
aI3754308269656029349
aI8812014573577682306
aI-7046275557461640156
aI1532792510052770587
aI5330868280708645322
aI3838388076626976890
aI-4437897449901718657
aI-9206576011773891493
aI-2042946777199871617
aI-2491664302057492510
aI-5539352733003640096
aI-8532721983712164737
aI-3583088851880180757
aI4439302248033358300
aI6980454312564304277
aI-2707366731815559361
aI2311950333793673788
aI-6855777731607099498
aI-6418419140672224124
aI-5112359782594349445
aI-5177158790010173770
aI-5118358591914841586
aI6379877428488703406
aI8709552329022275953
aI369432546034515738
aI2168017314887137673
aI-5118358591914841586
aI6379877428488703406
aI6302299462848271731
aI4420767870100723638
aI-8871542041965415957
aI-2812680384096208672
aI2110377703503630723
aI-2834696090785978952
aI7510930137195503409
aI4440850235929305622
aI6477100409580496625
aI3315740685146052756
aI-2648152815061184460
aI2162244713608544609
aI-682323942520928505
aI-3832077391214454368
aI2659911494650176182
aI2750484658771332767
aI1040631630008306891
aI6825253523590973034
aI-2137233733368817447
aI4324220077478244945
aI-2220350822295629618
aI-3932802296029402018
aI-2756810878928789345
aI-2403634451675103007
aI-8361961261598394836
aI1053528972654646050
aI4199569296010743019
aI-7855933774516885928
aI3094197222109461634
aI4199569296010743019
aI-7855933774516885928
aI3094197222109461634
aI6789356809809896113
aI-5692339100976187020
aI7956982511531084801
aI2727149207531284736
aI-7892855258214605212
aI-2108807768817172410
aI2439187825713860342
aI-549642697342211945
aI-9062398022105453159
aI-3164173143408395949
aI-4438511686474994995
aI118078703265225444
aI732895698392872907
aI-3631726505098436674
aI2448548623464948474
aI-3713937158757650135
aI4266956825435920778
aI408371079235641384
aI2316390914062023418
aI5915898608286759720
aI-8285188286384540612
aI-8285188286384540612
aI-5942269333073432673
aI-5942269333073432673
aI1546637358091404749
aI1546637358091404749
aI6327404241183159978
aI6327404241183159978
aI1134780835183386791
aI1134780835183386791
aI3552333168196037400
aI3552333168196037400
aI225640571768863166
aI225640571768863166
aI-5299007610747049814
aI-5299007610747049814
aI-8590566753001841252
aI-8590566753001841252
aI-7443151593091450680
aI-7443151593091450680
aI2049694530738477172
aI2049694530738477172
aI-1144512266616356674
aI-6160931163890215228
aI-5519076487520606414
aI4483537407607905825
aI7567931053273314934
aI-558969900715192103
aI5576660505560513123
aI-2320041409162079412
aI3506090272072583638
aI-3431884785287303016
aI-5471511391620431746
aI-4586575730931656609
aI-5073170678362492023
aI-5073170678362492023
aI6947547727612404730
aI6947547727612404730
aI4798969969372177680
aI4798969969372177680
aI1060855534853286721
aI1060855534853286721
aI-8167870363658698782
aI-8167870363658698782
aI-3632583022140961949
aI-3632583022140961949
aI-1304001479175308381
aI-1304001479175308381
aI-2061643367286483043
aI-2061643367286483043
aI-5573512641106406343
aI-5573512641106406343
aI-5360255562282904195
aI-5360255562282904195
aI3061308118998294323
aI3061308118998294323
aI377709430290257074
aI3292797534417315457
aI39339628811102879
aI7190047351165553425
aI-1045708275261407610
aI5793210893127527118
aI-9022249316393027201
aI5452335713357249046
aI7348843366607161932
aI5418988444690675603
aI-3761068198626017183
aI-228851361214839251
aI2117189858580974399
aI-8688928307811425703
aI-5821975406274418585
aI-5614990124969558606
aI-8648357674539088658
aI-5655233731027581016
aI6682532249823693079
aI-6880530578915002140
aI-6880530578915002140
aI-2165202847897693979
aI7341637253774356081
aI-738697167169779641
aI-5884314018466468562
aI7123448869996580533
aI4798018613352576530
aI1246521597430724529
aI-3783512002637012357
aI-3817531401248603053
aI6682532249823693079
aI5065638657461760799
aI5065638657461760799
aI6001095066272525953
aI-6998360740149379379
aI-738697167169779641
aI-5884314018466468562
aI7123448869996580533
aI4798018613352576530
aI1246521597430724529
aI-3783512002637012357
aI-3817531401248603053
aI2622784416013595765
aI7094217125156140855
aI1451304824275631824
aI8870495137810816814
aI3584091344339230580
aI1178332927015187018
aI3584091344339230580
aI1178332927015187018
aI2622955492942761037
aI-5147359206743809613
aI3551289384561023671
aI2622955492942761037
aI-5147359206743809613
aI4656258849366019653
aI-7541654376068568772
aI3852621586948699397
aI-4249834800989448964
aI-7761453574196440678
aI-278601781884113677
aI-4249834800989448964
aI-1842293494383770513
aI7224556376830599248
aI7210454262816613625
aI7224556376830599248
aI-8845759282461166458
aI5407623682386279678
aI8239023980812361048
aI-1786727577425413289
aI1195455148516672613
aI-773661573386286171
aI1563284097851725124
aI-8969319903159248312
aI8448156929117020222
aI4828642946306984766
aI3578099989164518880
aI-2191396164174243750
aI-2363740358177251858
aI4895168691700547614
aI9062886985599404789
aI157493745960506091
aI-2827830424913995195
aI4733828940112995769
aI3486550905245256152
aI-4913126022879471477
aI-2452824144357544245
aI-2289322164811710534
aI4799297057347650077
aI5371695206751707138
aI5141903631687900611
aI-785537359494855441
aI3033680661259367408
aI6717075281417796930
aI-8731528666715667193
aI-3223027128440596067
aI-493003719430882891
aI8393045597639349458
aI-6129808145340541801
aI-4169162223175333938
aI4001856196121646579
aI-3468423968874206279
aI6915110417789229740
aI8231687937696328215
aI88218764284290729
aI88218764284290729
aI88218764284290729
aI88218764284290729
aI8654466697659066643
aI-7853730106386324688
aI6061869979596053260
aI2609134697818246175
aI454941000432367857
aI-5761408966946961844
aI-1938052302147825944
aI7657941049959661301
aI-4959857756845886210
aI-2495226251714501437
aI2605185333038115061
aI1649327879505576689
aI197161849259609885
aI197161849259609885
aI1813448461435830031
aI1813448461435830031
aI197161849259609885
aI197161849259609885
aI-2541172713271685105
aI5397358597365560828
aI6568860995590551370
aI-2646514972716453218
aI5167178337887433691
aI9218978191451545573
aI1604202020819598232
aI1414456894109849583
aI-489358357752941316
aI8364676532674362385
aI-5786724221563297765
aI534503775389161293
aI5751757410319570784
aI-8501069123086206235
aI7413260380504100074
aI6630034168036965673
aI6630034168036965673
aI3829647063460824460
aI1851646546384391783
aI1077026055114764730
aI1414456894109849583
aI-489358357752941316
aI9148190036262308881
aI-9133802726404915271
aI2086155521450616107
aI-9118316128104921109
aI-6867296863845316099
aI697932706362411669
aI-7676992837916496070
aI495832722676611340
aI7418836051320397078
aI1730427962769830705
aI454617643382635710
aI7659002873201498296
aI3621930593017990184
aI4872297891065107567
aI4655098696406217526
aI6008820344877916658
aI2021853587888395968
aI-8577336545846738849
aI3929178279415018737
aI2592665113086787532
aI8196038762813985336
aI-4515525295360949182
aI295801786507027553
aI6008820344877916658
aI2021853587888395968
aI-8577336545846738849
aI3929178279415018737
aI5843065636826344945
aI-5770851815733921867
aI1923806039074044648
aI-5978234895790207321
aI4485678063042983759
aI5736288736468891929
aI1178792047797064273
aI4339355383177829043
aI-6842357375421686147
aI-9067359634586458165
aI-2449725828055145188
aI6387236278442959540
aI-3449295525678106228
aI-697528953199253655
aI6492780336976601974
aI5581690163747259590
aI7344537316274125798
aI3768502469074060390
aI-2945944245031032322
aI6718931660719739178
aI-1001076745566202380
aI-4826484954616537011
aI7210681075844415644
aI5618838181747096385
aI5618838181747096385
aI7210681075844415644
aI7535267772374589132
aI-6272043331591270350
aI-1433744552733555658
aI5618838181747096385
aI5618838181747096385
aI-1433744552733555658
aI7156838528101774326
aI345523944507980576
aI-3136789713254658465
aI5814781615192945374
aI7781704700847825773
aI2018039110803906871
aI7781704700847825773
aI7781704700847825773
aI-8522783839159087447
aI5768310904772038270
aI2018039110803906871
aI5768310904772038270
aI5768310904772038270
aI5256809381360506483
aI5256809381360506483
aI992304066777901651
aI-8576515682096457990
aI-1729854058352629420
aI-3852991640380871029
aI88887060416811022
aI-3852991640380871029
aI6424976551225441370
aI-2554890371712344796
aI442324530551203685
aI-2248143684419152560
aI-4767180978703778774
aI606251093891305645
aI440695525371362497
aI-5008344004508726171
aI7968937601801098488
aI8371547060415109317
aI-4902846838931886926
aI-6883203525502401827
aI-3380211148069326630
aI-8110387420407065799
aI5906889839300094876
aI-5052805723880778078
aI-1577348603238445325
aI6138592764736312048
aI7513019445949747881
aI-6883203525502401827
aI-3380211148069326630
aI-3139049740236711293
aI5066881106545773206
aI251009261446971297
aI706549511436327229
aI251009261446971297
aI-9137006679706162578
aI-268007733492035570
aI6557914161634830996
aI8053606490913219764
aI-6111836105033399302
aI6557914161634830996
aI3706616780773596543
aI1976194255871050961
aI3168746048472495179
aI-7272328752030476011
aI334860812816907386
aI-7536770696488328483
aI-1196339787617919459
aI-7139072754165662165
aI-3634458185102445756
aI1976194255871050961
aI-3805708903492606938
aI1618188427212555280
aI334860812816907386
aI-7536770696488328483
aI-8187140878338334262
aI-7139072754165662165
aI-5717543914585890046
aI6459125705266573658
aI-993942538608871472
aI7809069087311538825
aI4822031863513824899
aI-7618849521639518455
aI7295005885345070945
aI-6844023302167474510
aI2825948610250361679
aI-6670807109993219273
aI-3561218242457754666
aI3188444257123500838
aI4976438429207478654
aI614587112736327367
aI-852635412180242871
aI-4611130792464637151
aI-632284159503568964
aI-1765043494703644892
aI-498839187654902648
aI-4100623286650208540
aI4761967112335735366
aI-498839187654902648
aI-4100623286650208540
aI4761967112335735366
aI7276478968320656215
aI-3635121315731743462
aI-339924089475679909
aI5567931275525371142
aI-4068898133467282610
aI-4068898133467282610
aI263017849852774900
aI-5862162146348098685
aI263017849852774900
aI-5862162146348098685
aI-4484851574687342658
aI-3119516465396460718
aI957909197765251662
aI3626211426264487546
aI6573765638704286108
aI957909197765251662
aI1130321379682814462
aI-6599099114691153400
aI1775334255459537561
aI6998933583093560945
aI-223956839491471845
aI-6600610577291587742
aI-7010040177873388180
aI-7010040177873388180
aI-1149725998349014047
aI-5270706765271658845
aI2360769932345119256
aI-9190511427889834312
aI-3662301643447756946
aI-401233640860689775
aI6708324980413350645
aI-3675389179432927236
aI-3662301643447756946
aI-401233640860689775
aI6708324980413350645
aI-3675389179432927236
aI9114929474796807562
aI-36337694939212530
aI7177763462188791208
aI-7386254058567134231
aI1501797540059968127
aI-2224051950917999351
aI5558761791335522135
aI-5803507017651081083
aI-7591110423990086760
aI-8682161533818858091
aI1696470154026472206
aI-8682161533818858091
aI2354650524234799766
aI7449554055250267801
aI2354650524234799766
aI-2497501848815117882
aI2666167688327959428
aI-6548321513924735352
aI-7886977797637567804
aI-4124660966711684599
aI-7886977797637567804
aI-4934559428985819308
aI-512477661960293096
aI7250498262880315872
aI-4054922535275476725
aI7881955082432199577
aI-4054922535275476725
aI509438208973150236
aI-6901423915105546338
aI7397191053065832298
aI7397191053065832298
aI7348849293428752625
aI7348849293428752625
aI8461309279478204780
aI-4306960551802660576
aI2826279890522042292
aI2907253783507965794
aI2907253783507965794
aI-934126650473760975
aI-4323896892694610591
aI-657624738006444791
aI-657624738006444791
aI-2278244974370605318
aI-7585322917289846806
aI-7614959796986756263
aI7400126340609973378
aI-2888028876132283679
aI4910875412379945624
aI-7523107438063674013
aI8934963574729398481
aI-2236402940650199362
aI7100705851929226473
aI4333498919267820533
aI7100705851929226473
aI579132386760335886
aI6964516635640097371
aI579132386760335886
aI1874275209116086653
aI9187623562431510908
aI-8312849440601877897
aI-8312849440601877897
aI-1699609199021808509
aI796694785354972928
aI-1699609199021808509
aI940764212636350468
aI-427415838465863126
aI-741908214610411203
aI-5738419510240936263
aI5901384684384723161
aI-4085439074102490766
aI7224410218052111393
aI1529326041226499407
aI9052117766680068445
aI3706565440850154338
aI-8491768784334284428
aI-8555277825340762402
aI6038233085916976718
aI-3550022425125795502
aI-3550022425125795502
aI-7175156620310506810
aI1071212134351835083
aI1071212134351835083
aI1447218343336171924
aI-3550022425125795502
aI-3550022425125795502
aI8739992792306047622
aI1071212134351835083
aI1071212134351835083
aI-2184210981168015711
aI-4520142812056377110
aI-1928608697830914616
aI-8458803071965754648
aI-6359006975406221919
aI3089853353163799172
aI-6359006975406221919
aI4178608485680449725
aI1864014231704986744
aI52310721728953025
aI-5961796536772237362
aI5824493543686724235
aI-639094666159652150
aI6738026098246299821
aI872412511757953657
aI-7071879279516633809
aI5367971258114459030
aI7640963667361883678
aI5262849625870950166
aI7501657748896766662
aI-8811555547157846540
aI5955619413919378561
aI7501657748896766662
aI-8811555547157846540
aI1916980040774395
aI-4937306854986339918
aI-5080092595949569055
aI-983693958377199500
aI-5231674253799821663
aI2297397672338529764
aI1991232694112603613
aI4474852410630286381
aI1735117295901590731
aI5319908248515906102
aI-8638622235361397807
aI178663334291542831
aI-5588927410003980050
aI-635856718900225663
aI4966904299619289126
aI-8638622235361397807
aI178663334291542831
aI-7129006362408743072
aI966604425574732680
aI4388336388621385261
aI-1235842069881954254
aI1922423501589436032
aI8795766103906847156
aI7196295974068882370
aI-4602089588928172359
aI-7610673996637347116
aI-7398691115660235079
aI6777298854414370032
aI-1426831265571081305
aI-5546031852369491823
aI681309269559964988
aI5149417084604336631
aI-6671954121539415607
aI-2090264915456100769
aI-395925722054165686
aI-6826441851315278827
aI-395925722054165686
aI-6826441851315278827
aI8508204781220244818
aI-7592291962932480004
aI2028417677579151447
aI-4652693940375403544
aI-5995544976351272450
aI-6561547686894196595
aI-7533167393485858775
aI7961750029729552157
aI3141096520098551729
aI-8609195710549485429
aI4502718090286796026
aI2915194754809818426
aI5800208313536987941
aI-8211092796916733021
aI-3318847860165024561
aI3004766239611674181
aI7480811132610968880
aI5370263009376259282
aI1260035053770628841
aI4827847123293416648
aI2838745801960259372
aI-6943508591748882820
aI-3094754856799964236
aI-4842225724042844692
aI-5530065370487317762
aI-7469950267228228626
aI-7866486511970552634
aI-5530065370487317762
aI-7469950267228228626
aI-2246203149276490743
aI-263135453715270369
aI-263135453715270369
aI-4854517090146120458
aI-4854517090146120458
aI-3028180993024157180
aI4705887478444433449
aI1178332927015187018
aI7071744651517198274
aI6049871655666234592
aI1178332927015187018
aI3551289384561023671
aI4656258849366019653
aI8223523973994634063
aI-1473286845806916328
aI-4249834800989448964
aI-2099746847421410978
aI6772872843812274421
aI-1473286845806916328
aI-4249834800989448964
aI-2099746847421410978
aI4476884475698454289
aI2883314361479409178
aI4476884475698454289
aI2883314361479409178
aI-1094350844991225624
aI-8929533698914467417
aI9189609128192536216
aI7842794083678991472
aI-1094350844991225624
aI-3014900049926994332
aI9189609128192536216
aI-7328631308952851807
aI8939527630258656271
aI-5565057137673272389
aI8939527630258656271
aI1866716729421172442
aI2622114708753429941
aI-2333027704545164417
aI-4999273031657115489
aI-3285322709188507019
aI2622114708753429941
aI9216925707158083237
aI-4999273031657115489
aI-3285322709188507019
aI4895168691700547614
aI1168853762049252637
aI-2827830424913995195
aI-5474347058908706232
aI-6001056820865965297
aI5437076438292433425
aI5981970578531243713
aI5981970578531243713
aI-5165947053914341451
aI-2548108018326832586
aI-2548108018326832586
aI-7603130594358113212
aI-6476715557408640747
aI-7282975829382649989
aI-1983684396097640065
aI-1481344720925776115
aI-6678278266368242807
aI-7447642473345128750
aI-413125651706714636
aI-3855058738897798916
aI2311378031688979670
aI-1558563450152548641
aI417550274217379427
aI2543664076737025562
aI435591772051613975
aI4946974457854611601
aI-4936680090667309698
aI-1943214648880233011
aI-3056547265477026949
aI5903875659868189815
aI-3200684985642236061
aI7467777751566916043
aI2621905798495517430
aI-9044350063288411117
aI-3025607463476330441
aI-3362797273311028457
aI2270342917614455814
aI5158252471082556350
aI2775218467714113356
aI1551746783401398309
aI4394563795077302235
aI7546501564867108160
aI2979843826713405698
aI6946429676172552454
aI-2845833010555403713
aI-5099004894081410511
aI-2953347617999167258
aI2277562728756976355
aI3472619145227237153
aI-5099004894081410511
aI-8114944030862151116
aI-5686888817629127392
aI8766304363242234611
aI-6112062005346977551
aI-5686888817629127392
aI8766304363242234611
aI8214197727063971252
aI8214197727063971252
aI450167581705653510
aI1427695175824653827
aI-1165506708391301650
aI-8493230890737550247
aI7921959412701825766
aI-3479947765142920463
aI7019764453753979387
aI5867581115594492674
aI4958434113952202972
aI7470589690563242828
aI-8659689067112172468
aI-1164747590309654123
aI-3339844898155995641
aI-3828413191816085476
aI5440737648354519495
aI-140550918453775861
aI-3250847294730852518
aI2605847436725116280
aI4640265736417925743
aI5440737648354519495
aI1491813828915803077
aI6912426662116085104
aI1044469369443041421
aI-5607612648184410125
aI-7805727568237321598
aI4030106826807625402
aI686056239030387133
aI-4750147024834309081
aI-8064045223178343619
aI497561806476322794
aI5501549685571628172
aI-3791283184087331308
aI-8064045223178343619
aI-633170290206242578
aI-8113290922123878513
aI-5924738334034119372
aI-7028377539068713869
aI-6422062062747754114
aI1491556856515820905
aI6087319240047309036
aI7816422057753968706
aI-4223207002592879345
aI-6749672295871641732
aI8358265845548561077
aI-6749672295871641732
aI6895879736952398789
aI455087688844882863
aI2589343804933590349
aI-5596044449862965382
aI-8108866600715156256
aI-6681380772429725087
aI6319096618545190503
aI7605612095665066530
aI3612863050756317743
aI-6681380772429725087
aI6319096618545190503
aI-6474056059053786869
aI8963802486018335824
aI-8917076946517501770
aI4048319012828732319
aI-4020616956839955159
aI530991574930526301
aI5862670825634610535
aI-3571459605892102220
aI-9210549006152201124
aI8143917458538540510
aI-2769150462694917138
aI-1986285327943513518
aI-1643982523706833300
aI-368746779147335242
aI8953773022864260356
aI4077614933502601858
aI-5238394194181654538
aI1311567506894048127
aI2626745975209018472
aI-6399903681159268410
aI-5238394194181654538
aI1311567506894048127
aI2626745975209018472
aI-6530209586016096958
aI-7440052264487187959
aI-3983847566605685321
aI973010391106772998
aI-8730522749319291546
aI-7440052264487187959
aI-3983847566605685321
aI2388714705516589162
aI6191654013954073678
aI8423726127115536001
aI-6612675734993402215
aI-330387551857153370
aI-5105968058830869519
aI-6612675734993402215
aI-330387551857153370
aI-5105968058830869519
aI42353847535131289
aI-4261949279213322891
aI4917163515059936915
aI42353847535131289
aI-4261949279213322891
aI4917163515059936915
aI7986695079476618022
aI-4074327977492778485
aI7317092274304702304
aI1909464858368041747
aI-5824301912255866510
aI-4074327977492778485
aI-589215749085648748
aI3464190257186057215
aI5509682436691869638
aI-6889945694165692078
aI5838974011003199748
aI5838974011003199748
aI-722627585949735872
aI-722627585949735872
aI-5915195844000704816
aI1619696513247581828
aI-2516826840513329590
aI-7345550152856070613
a.