(lp0
(lp1
(lp2
S'static'
p3
aS'int'
p4
aS'func_0'
p5
aS'('
p6
aS'const'
p7
aS'char'
p8
aS'*'
p9
aS'variable_0'
p10
aS','
p11
aS'variable_1'
p12
ag9
aS'variable_2'
p13
aS')'
p14
aS'variable_3'
p15
ag9
aS'variable_4'
p16
aS';'
p17
aS'if'
p18
ag6
aS'variable_5'
p19
aS'>'
p20
aS'='
p21
aS'variable_6'
p22
aS'/'
p23
aS'sizeof'
p24
ag6
aS'variable_7'
p25
ag14
aS'||'
p26
aS'variable_5'
p27
aS'<'
p28
ag21
aS'0'
p29
ag14
aS'if'
p30
ag6
aS'func_1'
p31
ag6
aS'&'
p32
aS'variable_2'
p33
aS'->'
p34
aS'variable_8'
p35
ag14
ag28
aS'variable_5'
p36
ag9
aS'sizeof'
p37
ag6
aS'variable_7'
p38
ag14
ag14
aS'variable_4'
p39
ag21
aS'func_2'
p40
ag6
aS'variable_5'
p41
ag9
aS'sizeof'
p42
ag6
aS'variable_3'
p43
ag14
ag14
ag17
aS'if'
p44
ag6
aS'!'
p45
aS'variable_4'
p46
ag14
aS'variable_4'
p47
aS'['
p48
aS'variable_9'
p49
aS']'
p50
ag21
aS'func_3'
p51
ag6
ag32
aS'variable_2'
p52
aS'->'
p53
aS'variable_8'
p54
ag11
aS'variable_2'
p55
aS'->'
p56
aS'variable_10'
p57
ag14
ag17
aS'variable_11'
p58
ag21
aS'func_4'
p59
ag6
aS'variable_4'
p60
ag11
aS'variable_5'
p61
ag11
aS'variable_12'
p62
ag14
ag17
aS'func_5'
p63
ag6
ag32
aS'variable_4'
p64
ag14
ag17
aS'if'
p65
ag6
ag45
aS'variable_11'
p66
ag14
aS'func_6'
p67
ag6
ag32
aS'variable_2'
p68
aS'->'
p69
aS'variable_13'
p70
aS'.'
p71
aS'variable_14'
p72
ag11
aS'variable_0'
p73
ag11
aS'variable_11'
p74
ag11
aS'variable_15'
p75
ag14
ag17
aaa(lp76
I0
aa(lp77
I59
aa(lp78
(lp79
S'main'
p80
aaa(lp81
S'181 ../data/NVD/CVE_2013_0859_PATCHED_add_doubles_metadata.c dp = av_malloc ( count * sizeof ( double ) ) 14'
p82
aa.