(lp0
(lp1
(lp2
S'static'
p3
aS'int'
p4
aS'func_0'
p5
aS'('
p6
aS'struct'
p7
aS'variable_0'
p8
aS'*'
p9
aS'variable_1'
p10
aS','
p11
aS'struct'
p12
aS'variable_2'
p13
ag9
aS'variable_3'
p14
aS')'
p15
aS'char'
p16
ag9
aS'variable_4'
p17
ag11
ag9
aS'variable_5'
p18
ag11
ag9
aS'variable_6'
p19
aS';'
p20
aS'if'
p21
ag6
ag6
aS'variable_1'
p22
aS'->'
p23
aS'variable_7'
p24
aS'['
p25
aS'0'
p26
aS']'
p27
aS'!='
p28
aS"'"
p29
aS'#'
p30
ag29
ag15
aS'||'
p31
ag6
aS'variable_1'
p32
aS'->'
p33
aS'variable_7'
p34
ag25
aS'1'
p35
ag27
aS'!='
p36
ag29
aS'!'
p37
ag29
ag15
aS'||'
p38
ag6
aS'variable_1'
p39
aS'->'
p40
aS'variable_8'
p41
aS'>'
p42
aS'variable_9'
p43
ag15
ag15
aS'variable_1'
p44
aS'->'
p45
aS'variable_8'
p46
aS'++'
p47
ag20
aS'variable_1'
p48
aS'->'
p49
aS'variable_10'
p50
aS'='
p51
aS'NULL'
p52
ag20
aS'variable_1'
p53
aS'->'
p54
aS'variable_7'
p55
ag25
aS'variable_11'
p56
aS'-'
p57
ag35
ag27
ag51
ag29
aS'\\'
p58
ag26
ag29
ag20
aS'if'
p59
ag6
ag6
aS'variable_4'
p60
ag51
aS'strchr'
p61
ag6
aS'variable_1'
p62
aS'->'
p63
aS'variable_7'
p64
ag11
ag29
ag58
aS'n'
p65
ag29
ag15
ag15
aS'=='
p66
aS'NULL'
p67
ag15
aS'variable_4'
p68
ag51
aS'variable_1'
p69
aS'->'
p70
aS'variable_7'
p71
aS'+'
p72
aS'variable_11'
p73
ag57
ag35
ag20
ag9
aS'variable_4'
p74
ag51
ag29
ag58
ag26
ag29
ag20
aS'while'
p75
ag6
aS'variable_4'
p76
ag42
aS'variable_1'
p77
aS'->'
p78
aS'variable_7'
p79
ag15
aS'variable_4'
p80
aS'--'
p81
ag20
aS'if'
p82
ag6
ag6
ag9
aS'variable_4'
p83
aS'=='
p84
ag29
ag29
ag15
aS'||'
p85
ag6
ag9
aS'variable_4'
p86
aS'=='
p87
ag29
ag58
aS't'
p88
ag29
ag15
ag15
ag9
aS'variable_4'
p89
ag51
ag29
ag58
ag26
ag29
ag20
aS'for'
p90
ag6
aS'variable_4'
p91
ag51
aS'variable_1'
p92
aS'->'
p93
aS'variable_7'
p94
ag72
aS'2'
p95
ag20
ag6
ag9
aS'variable_4'
p96
aS'=='
p97
ag29
ag29
ag15
aS'||'
p98
ag6
ag9
aS'variable_4'
p99
aS'=='
p100
ag29
ag58
ag88
ag29
ag15
ag20
aS'variable_4'
p101
aS'++'
p102
ag15
ag20
aS'if'
p103
ag6
ag9
aS'variable_4'
p104
aS'=='
p105
ag29
ag58
ag26
ag29
ag15
aS'variable_5'
p106
ag51
aS'variable_4'
p107
ag20
aS'for'
p108
ag6
ag20
ag9
aS'variable_4'
p109
aS'&&'
p110
ag6
ag9
aS'variable_4'
p111
aS'!='
p112
ag29
ag29
ag15
aS'&&'
p113
ag6
ag9
aS'variable_4'
p114
aS'!='
p115
ag29
ag58
ag88
ag29
ag15
ag20
aS'variable_4'
p116
aS'++'
p117
ag15
aS'while'
p118
ag6
ag6
ag9
aS'variable_4'
p119
aS'=='
p120
ag29
ag29
ag15
aS'||'
p121
ag6
ag9
aS'variable_4'
p122
aS'=='
p123
ag29
ag58
ag88
ag29
ag15
ag15
ag9
aS'variable_4'
p124
aS'++'
p125
ag51
ag29
ag58
ag26
ag29
ag20
aS'if'
p126
ag6
ag9
aS'variable_4'
p127
ag15
aS'variable_6'
p128
ag51
aS'variable_4'
p129
ag20
aS'strcpy'
p130
ag6
aS'variable_12'
p131
ag11
aS'variable_5'
p132
ag15
ag20
aS'if'
p133
ag6
aS'variable_6'
p134
ag15
aS'variable_13'
p135
ag51
aS'func_1'
p136
ag6
ag35
ag11
aS'&'
p137
aS'variable_6'
p138
ag11
aS'variable_1'
p139
ag15
ag20
aS'if'
p140
ag6
aS'variable_13'
p141
aS'<'
p142
ag26
ag15
aS'return'
p143
aS'variable_13'
p144
ag20
aS'variable_13'
p145
ag51
aS'func_2'
p146
ag6
ag35
ag11
ag137
aS'variable_5'
p147
ag11
aS'variable_1'
p148
ag15
ag20
aS'if'
p149
ag6
aS'variable_13'
p150
ag15
aS'return'
p151
aS'variable_13'
p152
ag20
aS'variable_13'
p153
ag51
aS'func_3'
p154
ag6
aS'variable_12'
p155
ag11
aS'variable_1'
p156
ag15
ag20
aS'if'
p157
ag6
aS'variable_13'
p158
ag142
ag26
ag15
aS'return'
p159
aS'variable_13'
p160
ag20
aS'variable_10'
p161
ag51
aS'func_4'
p162
ag6
aS'variable_12'
p163
ag15
ag20
aS'if'
p164
ag6
aS'func_5'
p165
ag6
aS'variable_10'
p166
ag15
ag15
aS'return'
p167
aS'func_6'
p168
ag6
aS'variable_10'
p169
ag15
ag20
aS'variable_1'
p170
aS'->'
p171
aS'variable_10'
p172
ag51
aS'variable_10'
p173
ag20
aS'variable_13'
p174
ag51
aS'func_7'
p175
ag6
aS'variable_1'
p176
ag15
ag20
aS'if'
p177
ag6
aS'variable_13'
p178
ag142
ag26
ag15
aS'return'
p179
aS'variable_13'
p180
ag20
aS'return'
p181
aS'func_8'
p182
ag6
aS'variable_1'
p183
ag11
aS'variable_3'
p184
ag15
ag20
aaa(lp185
I0
aa(lp186
I113
aa(lp187
(lp188
S'main'
p189
aaa(lp190
S'33 ../data/NVD/CVE_2012_4530_PATCHED_load_script.c cp = bprm -> buf + BINPRM_BUF_SIZE - 1 23'
p191
aa.