(lp0
(lp1
(lp2
S'static'
p3
aS'int'
p4
aS'func_0'
p5
aS'('
p6
aS'struct'
p7
aS'variable_0'
p8
aS'*'
p9
aS'variable_1'
p10
aS','
p11
aS'int'
p12
ag9
aS'variable_2'
p13
ag11
aS'int'
p14
aS'variable_3'
p15
aS')'
p16
aS'struct'
p17
aS'sockaddr_llc'
p18
aS'variable_4'
p19
aS';'
p20
aS'struct'
p21
aS'variable_1'
p22
ag9
aS'variable_5'
p23
aS'='
p24
aS'variable_1'
p25
aS'->'
p26
aS'variable_5'
p27
ag20
aS'struct'
p28
aS'variable_6'
p29
ag9
aS'variable_7'
p30
ag24
aS'func_1'
p31
ag6
aS'variable_5'
p32
ag16
ag20
aS'memset'
p33
ag6
aS'&'
p34
aS'variable_4'
p35
ag11
aS'0'
p36
ag11
aS'sizeof'
p37
ag6
aS'variable_4'
p38
ag16
ag16
ag20
aS'if'
p39
ag6
aS'func_2'
p40
ag6
aS'variable_5'
p41
ag11
aS'variable_8'
p42
ag16
ag16
ag9
aS'variable_2'
p43
ag24
aS'sizeof'
p44
ag6
aS'variable_4'
p45
ag16
ag20
aS'memset'
p46
ag6
aS'variable_9'
p47
ag11
ag36
ag11
ag9
aS'variable_2'
p48
ag16
ag20
aS'if'
p49
ag6
aS'variable_3'
p50
ag16
aS'if'
p51
ag6
aS'variable_5'
p52
aS'->'
p53
aS'variable_10'
p54
aS'!='
p55
aS'variable_11'
p56
ag16
aS'if'
p57
ag6
aS'variable_7'
p58
aS'->'
p59
aS'variable_12'
p60
ag16
aS'variable_4'
p61
aS'.'
p62
aS'variable_13'
p63
ag24
aS'variable_7'
p64
aS'->'
p65
aS'variable_12'
p66
aS'->'
p67
aS'variable_14'
p68
ag20
aS'variable_4'
p69
ag62
aS'variable_15'
p70
ag24
aS'variable_7'
p71
aS'->'
p72
aS'variable_16'
p73
ag62
aS'variable_17'
p74
ag20
aS'if'
p75
ag6
aS'!'
p76
aS'variable_7'
p77
aS'->'
p78
aS'variable_18'
p79
ag16
aS'variable_4'
p80
ag62
aS'variable_15'
p81
ag24
aS'variable_7'
p82
aS'->'
p83
aS'variable_18'
p84
aS'->'
p85
aS'variable_19'
p86
ag62
aS'variable_17'
p87
ag20
aS'if'
p88
ag6
aS'variable_7'
p89
aS'->'
p90
aS'variable_12'
p91
ag16
aS'variable_4'
p92
ag62
aS'variable_13'
p93
ag24
aS'variable_7'
p94
aS'->'
p95
aS'variable_12'
p96
aS'->'
p97
aS'variable_14'
p98
ag20
aS'memcpy'
p99
ag6
ag34
aS'variable_4'
p100
ag62
aS'variable_20'
p101
ag11
aS'variable_7'
p102
aS'->'
p103
aS'variable_12'
p104
aS'->'
p105
aS'variable_21'
p106
ag11
aS'variable_22'
p107
ag16
ag20
aS'variable_4'
p108
ag62
aS'variable_23'
p109
ag24
aS'variable_24'
p110
ag20
aS'memcpy'
p111
ag6
aS'variable_9'
p112
ag11
ag34
aS'variable_4'
p113
ag11
aS'sizeof'
p114
ag6
aS'variable_4'
p115
ag16
ag16
ag20
aaa(lp116
I0
aa(lp117
I175
aa(lp118
(lp119
S'main'
p120
aaa(lp121
S'89 ../data/NVD/CVE_2012_6542_VULN_llc_ui_getname.c memcpy 37'
p122
aa.