(lp0
(lp1
(lp2
S'static'
p3
aS'void'
p4
aS'func_0'
p5
aS'('
p6
aS'variable_0'
p7
aS'*'
p8
aS'variable_1'
p9
aS','
p10
aS'int'
p11
aS'variable_2'
p12
ag10
aS'int'
p13
aS'variable_3'
p14
ag10
aS'int'
p15
aS'variable_4'
p16
ag10
aS'int'
p17
aS'variable_5'
p18
aS')'
p19
ag8
aS'variable_6'
p20
aS'='
p21
ag8
aS'variable_1'
p22
aS';'
p23
aS'if'
p24
ag6
aS'variable_2'
p25
aS'<'
p26
ag21
aS'1'
p27
ag19
aS'if'
p28
ag6
aS'!'
p29
aS'variable_4'
p30
ag19
aS'memcpy'
p31
ag6
aS'&'
p32
aS'variable_6'
p33
aS'['
p34
ag27
aS']'
p35
ag10
ag32
aS'variable_1'
p36
ag34
ag27
ag35
ag10
ag6
aS'variable_2'
p37
aS'-'
p38
ag27
ag19
ag8
aS'sizeof'
p39
ag6
ag8
aS'variable_6'
p40
ag19
ag19
ag23
aaa(lp41
I0
aa(lp42
I37
aa(lp43
(lp44
S'main'
p45
aaa(lp46
S'100 ../data/NVD/CVE_2013_0856_PATCHED_lpc_prediction.c memcpy 15'
p47
aa.