(lp0
(lp1
(lp2
S'static'
p3
aS'void'
p4
aS'func_0'
p5
aS'('
p6
aS'variable_0'
p7
aS'*'
p8
aS'variable_1'
p9
aS','
p10
aS'int'
p11
aS'variable_2'
p12
ag10
aS'int'
p13
aS'variable_3'
p14
ag10
aS'int'
p15
aS'variable_4'
p16
ag10
aS'int'
p17
aS'variable_5'
p18
aS')'
p19
aS'int'
p20
aS'variable_6'
p21
aS';'
p22
aS'variable_0'
p23
ag8
aS'variable_7'
p24
aS'='
p25
aS'variable_8'
p26
ag22
ag8
aS'variable_8'
p27
ag25
ag8
aS'variable_1'
p28
ag22
aS'if'
p29
ag6
aS'variable_2'
p30
aS'<'
p31
ag25
aS'1'
p32
ag19
aS'if'
p33
ag6
aS'!'
p34
aS'variable_4'
p35
ag19
aS'if'
p36
ag6
aS'variable_4'
p37
aS'=='
p38
aS'31'
p39
ag19
aS'for'
p40
ag6
aS'variable_6'
p41
ag25
ag32
ag22
aS'variable_6'
p42
ag31
ag25
aS'variable_4'
p43
aS'&&'
p44
aS'variable_6'
p45
ag31
aS'variable_2'
p46
ag22
aS'variable_6'
p47
aS'++'
p48
ag19
aS'variable_8'
p49
aS'['
p50
aS'variable_6'
p51
aS']'
p52
ag25
aS'func_1'
p53
ag6
aS'variable_8'
p54
ag50
aS'variable_6'
p55
aS'-'
p56
ag32
ag52
aS'+'
p57
aS'variable_1'
p58
ag50
aS'variable_6'
p59
ag52
ag10
aS'variable_3'
p60
ag19
ag22
aS'for'
p61
ag6
ag22
aS'variable_6'
p62
ag31
aS'variable_2'
p63
ag22
aS'variable_6'
p64
aS'++'
p65
ag19
aS'int'
p66
aS'variable_9'
p67
ag22
aS'int'
p68
aS'variable_10'
p69
ag25
aS'0'
p70
ag22
aS'int'
p71
aS'variable_11'
p72
ag25
aS'variable_1'
p73
ag50
aS'variable_6'
p74
ag52
ag22
aS'int'
p75
aS'variable_12'
p76
ag22
aS'int'
p77
aS'variable_13'
p78
ag25
ag8
aS'variable_7'
p79
aS'++'
p80
ag22
aS'for'
p81
ag6
aS'variable_9'
p82
ag25
ag70
ag22
aS'variable_9'
p83
ag31
aS'variable_4'
p84
ag22
aS'variable_9'
p85
aS'++'
p86
ag19
aS'variable_10'
p87
aS'+='
p88
ag6
aS'variable_7'
p89
ag50
aS'variable_9'
p90
ag52
ag56
aS'variable_13'
p91
ag19
ag8
aS'variable_14'
p92
ag50
aS'variable_9'
p93
ag52
ag22
aS'variable_10'
p94
ag25
ag6
aS'variable_10'
p95
ag57
ag6
ag32
aS'<<'
p96
ag6
aS'variable_5'
p97
ag56
ag32
ag19
ag19
ag19
aS'>>'
p98
aS'variable_5'
p99
ag22
aS'variable_10'
p100
aS'+='
p101
aS'variable_13'
p102
ag57
aS'variable_11'
p103
ag22
aS'variable_8'
p104
ag50
aS'variable_6'
p105
ag52
ag25
aS'func_2'
p106
ag6
aS'variable_10'
p107
ag10
aS'variable_3'
p108
ag19
ag22
aS'variable_12'
p109
ag25
aS'func_3'
p110
ag6
aS'variable_11'
p111
ag19
ag22
aS'if'
p112
ag6
aS'variable_12'
p113
ag19
aS'for'
p114
ag6
aS'variable_9'
p115
ag25
ag70
ag22
aS'variable_9'
p116
ag31
aS'variable_4'
p117
aS'&&'
p118
aS'variable_11'
p119
ag8
aS'variable_12'
p120
aS'>'
p121
ag70
ag22
aS'variable_9'
p122
aS'++'
p123
ag19
aS'int'
p124
aS'variable_15'
p125
ag22
aS'variable_10'
p126
ag25
aS'variable_13'
p127
ag56
aS'variable_7'
p128
ag50
aS'variable_9'
p129
ag52
ag22
aS'variable_15'
p130
ag25
aS'func_4'
p131
ag6
aS'variable_10'
p132
ag19
ag8
aS'variable_12'
p133
ag22
aS'variable_14'
p134
ag50
aS'variable_9'
p135
ag52
aS'-='
p136
aS'variable_15'
p137
ag22
aS'variable_10'
p138
ag8
ag25
aS'variable_15'
p139
ag22
aS'variable_11'
p140
aS'-='
p141
ag6
aS'variable_10'
p142
aS'>>'
p143
aS'variable_5'
p144
ag19
ag8
ag6
aS'variable_9'
p145
ag57
ag32
ag19
ag22
aaa(lp146
I0
aa(lp147
I232
aa(lp148
(lp149
S'main'
p150
aaa(lp151
S'179 ../data/NVD/CVE_2013_0856_PATCHED_lpc_prediction.c val = d - pred [ j ] 54'
p152
aa.