(lp0
(lp1
(lp2
S'static'
p3
aS'int'
p4
aS'func_0'
p5
aS'('
p6
aS'variable_0'
p7
aS'*'
p8
aS'variable_1'
p9
aS','
p10
aS'variable_0'
p11
ag8
aS'variable_2'
p12
aS')'
p13
aS'MpegEncContext'
p14
ag8
aS'const'
p15
aS'variable_3'
p16
aS'='
p17
aS'&'
p18
aS'variable_1'
p19
aS'->'
p20
aS'MpegEncContext'
p21
ag8
aS'const'
p22
aS'variable_4'
p23
ag17
ag18
aS'variable_2'
p24
aS'->'
p25
aS'unsigned'
p26
aS'int'
p27
aS'variable_5'
p28
aS';'
p29
aS'unsigned'
p30
aS'int'
p31
aS'variable_6'
p32
ag29
aS'int'
p33
aS'variable_7'
p34
ag10
aS'variable_8'
p35
ag29
aS'unsigned'
p36
aS'int'
p37
aS'variable_9'
p38
ag10
aS'variable_10'
p39
ag10
aS'variable_11'
p40
ag10
aS'variable_12'
p41
ag29
aS'int'
p42
aS'variable_13'
p43
ag10
aS'variable_14'
p44
ag29
aS'int'
p45
aS'variable_15'
p46
ag29
aS'int'
p47
aS'variable_16'
p48
ag17
aS'0'
p49
ag29
aS'if'
p50
ag6
ag6
aS'variable_3'
p51
aS'->'
p52
aS'variable_17'
p53
aS'->'
p54
aS'variable_18'
p55
ag18
aS'variable_19'
p56
ag13
aS'&&'
p57
aS'!'
p58
aS'variable_1'
p59
aS'->'
p60
aS'variable_20'
p61
aS'&&'
p62
ag58
aS'variable_1'
p63
aS'->'
p64
aS'variable_21'
p65
ag13
aS'variable_3'
p66
aS'->'
p67
aS'variable_22'
p68
aS'.'
p69
aS'variable_23'
p70
ag17
aS'variable_3'
p71
aS'->'
p72
aS'variable_24'
p73
ag69
aS'variable_25'
p74
ag29
aS'variable_3'
p75
aS'->'
p76
aS'variable_22'
p77
ag69
aS'variable_26'
p78
ag17
aS'variable_3'
p79
aS'->'
p80
aS'variable_24'
p81
ag69
aS'variable_27'
p82
ag29
aS'variable_5'
p83
ag17
aS'func_1'
p84
ag6
ag18
aS'variable_3'
p85
aS'->'
p86
aS'variable_28'
p87
ag13
ag29
aS'if'
p88
ag6
aS'variable_5'
p89
aS'=='
p90
ag49
ag13
aS'variable_2'
p91
aS'->'
p92
aS'variable_29'
p93
ag17
ag49
ag29
aS'if'
p94
ag6
ag58
aS'variable_4'
p95
aS'->'
p96
aS'variable_30'
p97
ag13
aS'variable_3'
p98
aS'->'
p99
aS'variable_31'
p100
ag17
aS'NULL'
p101
ag29
aS'variable_9'
p102
ag17
aS'func_2'
p103
ag6
ag18
aS'variable_3'
p104
aS'->'
p105
aS'variable_28'
p106
ag13
ag29
aS'if'
p107
ag6
aS'variable_9'
p108
aS'>'
p109
aS'9'
p110
ag13
aS'if'
p111
ag6
aS'variable_9'
p112
ag109
aS'4'
p113
ag13
aS'variable_9'
p114
aS'-='
p115
aS'5'
p116
ag29
aS'variable_1'
p117
aS'->'
p118
aS'variable_32'
p119
ag17
ag49
ag29
aS'variable_9'
p120
ag17
aS'variable_33'
p121
aS'['
p122
aS'variable_9'
p123
aS']'
p124
ag29
aS'variable_1'
p125
aS'->'
p126
aS'variable_9'
p127
ag17
aS'variable_9'
p128
ag29
aS'variable_1'
p129
aS'->'
p130
aS'variable_34'
p131
ag17
aS'variable_9'
p132
ag18
aS'3'
p133
ag29
aS'variable_3'
p134
aS'->'
p135
aS'variable_35'
p136
ag17
aS'variable_1'
p137
aS'->'
p138
aS'variable_9'
p139
ag29
aS'variable_6'
p140
ag17
aS'func_3'
p141
ag6
ag18
aS'variable_3'
p142
aS'->'
p143
aS'variable_28'
p144
ag13
ag29
aS'if'
p145
ag6
aS'variable_6'
p146
ag109
ag17
aS'variable_36'
p147
ag13
aS'if'
p148
ag6
ag58
aS'variable_2'
p149
aS'->'
p150
aS'variable_37'
p151
ag122
aS'variable_6'
p152
ag124
ag13
aS'variable_1'
p153
aS'->'
p154
aS'variable_38'
p155
ag17
ag8
aS'variable_2'
p156
aS'->'
p157
aS'variable_37'
p158
ag122
aS'variable_6'
p159
ag124
ag29
aS'if'
p160
ag6
ag58
aS'variable_2'
p161
aS'->'
p162
aS'variable_39'
p163
ag122
aS'variable_1'
p164
aS'->'
p165
aS'variable_38'
p166
ag69
aS'variable_40'
p167
ag124
ag13
aS'variable_41'
p168
ag8
aS'variable_42'
p169
ag17
aS'variable_2'
p170
aS'->'
p171
aS'variable_39'
p172
ag122
aS'variable_1'
p173
aS'->'
p174
aS'variable_38'
p175
ag69
aS'variable_40'
p176
ag124
ag29
aS'variable_2'
p177
aS'->'
p178
aS'variable_39'
p179
ag122
aS'variable_1'
p180
aS'->'
p181
aS'variable_38'
p182
ag69
aS'variable_40'
p183
ag124
aS'->'
p184
aS'new'
p185
ag17
aS'if'
p186
ag6
aS'variable_1'
p187
aS'->'
p188
aS'variable_43'
p189
ag69
aS'variable_44'
p190
aS'!='
p191
aS'variable_42'
p192
aS'->'
p193
aS'variable_44'
p194
aS'||'
p195
aS'variable_1'
p196
aS'->'
p197
aS'variable_43'
p198
ag69
aS'variable_45'
p199
aS'!='
p200
aS'variable_42'
p201
aS'->'
p202
aS'variable_45'
p203
ag13
aS'variable_16'
p204
ag17
aS'1'
p205
ag29
aS'variable_1'
p206
aS'->'
p207
aS'variable_46'
p208
ag17
aS'variable_1'
p209
aS'->'
p210
aS'variable_38'
p211
ag69
aS'variable_40'
p212
ag29
aS'variable_1'
p213
aS'->'
p214
aS'variable_43'
p215
ag17
ag8
aS'variable_2'
p216
aS'->'
p217
aS'variable_39'
p218
ag122
aS'variable_1'
p219
aS'->'
p220
aS'variable_38'
p221
ag69
aS'variable_40'
p222
ag124
ag29
aS'if'
p223
ag6
aS'variable_3'
p224
aS'->'
p225
aS'variable_47'
p226
aS'!='
p227
aS'variable_1'
p228
aS'->'
p229
aS'variable_43'
p230
ag69
aS'variable_47'
p231
aS'||'
p232
aS'variable_3'
p233
aS'->'
p234
aS'variable_48'
p235
aS'!='
p236
aS'variable_1'
p237
aS'->'
p238
aS'variable_43'
p239
ag69
aS'variable_48'
p240
ag8
ag6
aS'2'
p241
aS'-'
p242
aS'variable_1'
p243
aS'->'
p244
aS'variable_43'
p245
ag69
aS'variable_49'
p246
ag13
aS'||'
p247
aS'variable_3'
p248
aS'->'
p249
aS'variable_17'
p250
aS'->'
p251
aS'variable_50'
p252
aS'!='
p253
aS'variable_1'
p254
aS'->'
p255
aS'variable_43'
p256
ag69
aS'variable_45'
p257
aS'||'
p258
aS'variable_1'
p259
aS'->'
p260
aS'variable_51'
p261
aS'!='
p262
aS'variable_1'
p263
aS'->'
p264
aS'variable_43'
p265
ag69
aS'variable_44'
p266
ag13
aS'variable_16'
p267
ag17
ag205
ag29
aS'if'
p268
ag6
ag6
aS'variable_8'
p269
ag17
aS'func_4'
p270
ag6
aS'variable_1'
p271
ag13
ag13
aS'<'
p272
ag49
ag13
aS'variable_3'
p273
aS'->'
p274
aS'variable_17'
p275
aS'->'
p276
aS'variable_52'
p277
ag17
aS'func_5'
p278
ag6
ag18
aS'variable_1'
p279
aS'->'
p280
aS'variable_43'
p281
ag13
ag29
aS'variable_3'
p282
aS'->'
p283
aS'variable_17'
p284
aS'->'
p285
aS'variable_53'
p286
ag17
aS'variable_1'
p287
aS'->'
p288
aS'variable_43'
p289
ag69
aS'variable_54'
p290
ag29
aS'variable_3'
p291
aS'->'
p292
aS'variable_17'
p293
aS'->'
p294
aS'variable_55'
p295
ag17
aS'variable_1'
p296
aS'->'
p297
aS'variable_43'
p298
ag69
aS'variable_56'
p299
ag29
aS'variable_15'
p300
ag17
ag6
aS'variable_3'
p301
aS'->'
p302
aS'variable_57'
p303
aS'&&'
p304
ag6
aS'16'
p305
ag8
aS'variable_1'
p306
aS'->'
p307
aS'variable_43'
p308
ag69
aS'variable_47'
p309
aS'!='
p310
aS'variable_3'
p311
aS'->'
p312
aS'variable_17'
p313
aS'->'
p314
aS'variable_58'
p315
aS'||'
p316
aS'16'
p317
ag8
aS'variable_1'
p318
aS'->'
p319
aS'variable_43'
p320
ag69
aS'variable_48'
p321
ag8
ag6
ag241
ag242
aS'variable_1'
p322
aS'->'
p323
aS'variable_43'
p324
ag69
aS'variable_49'
p325
ag13
aS'!='
p326
aS'variable_3'
p327
aS'->'
p328
aS'variable_17'
p329
aS'->'
p330
aS'variable_59'
p331
aS'||'
p332
aS'variable_3'
p333
aS'->'
p334
aS'variable_17'
p335
aS'->'
p336
aS'variable_50'
p337
aS'!='
p338
aS'variable_1'
p339
aS'->'
p340
aS'variable_43'
p341
ag69
aS'variable_45'
p342
aS'||'
p343
aS'variable_1'
p344
aS'->'
p345
aS'variable_51'
p346
aS'!='
p347
aS'variable_1'
p348
aS'->'
p349
aS'variable_43'
p350
ag69
aS'variable_44'
p351
aS'||'
p352
aS'func_6'
p353
ag6
aS'variable_1'
p354
aS'->'
p355
aS'variable_43'
p356
ag69
aS'variable_60'
p357
ag10
aS'variable_3'
p358
aS'->'
p359
aS'variable_17'
p360
aS'->'
p361
aS'variable_61'
p362
ag13
ag13
ag13
ag29
aS'if'
p363
ag6
aS'variable_2'
p364
aS'->'
p365
aS'variable_3'
p366
ag69
aS'variable_17'
p367
aS'->'
p368
aS'variable_62'
p369
aS'!='
p370
aS'func_7'
p371
ag6
aS'variable_2'
p372
ag13
ag13
aS'variable_15'
p373
ag17
ag205
ag29
aS'variable_3'
p374
aS'->'
p375
aS'variable_47'
p376
ag17
aS'variable_1'
p377
aS'->'
p378
aS'variable_43'
p379
ag69
aS'variable_47'
p380
ag29
aS'variable_3'
p381
aS'->'
p382
aS'variable_48'
p383
ag17
aS'variable_1'
p384
aS'->'
p385
aS'variable_43'
p386
ag69
aS'variable_48'
p387
ag8
ag6
ag241
ag242
aS'variable_1'
p388
aS'->'
p389
aS'variable_43'
p390
ag69
aS'variable_49'
p391
ag13
ag29
aS'variable_1'
p392
aS'->'
p393
aS'variable_63'
p394
ag17
aS'variable_3'
p395
aS'->'
p396
aS'variable_47'
p397
ag8
ag113
ag29
aS'variable_3'
p398
aS'->'
p399
aS'variable_64'
p400
ag17
aS'variable_1'
p401
aS'->'
p402
aS'variable_43'
p403
ag69
aS'variable_44'
p404
ag272
ag17
ag205
ag29
aS'variable_3'
p405
aS'->'
p406
aS'variable_65'
p407
ag17
aS'16'
p408
ag8
aS'variable_3'
p409
aS'->'
p410
aS'variable_47'
p411
ag29
aS'variable_3'
p412
aS'->'
p413
aS'variable_66'
p414
ag17
aS'16'
p415
ag8
aS'variable_3'
p416
aS'->'
p417
aS'variable_48'
p418
ag29
aS'if'
p419
ag6
aS'variable_1'
p420
aS'->'
p421
aS'variable_43'
p422
ag69
aS'variable_67'
p423
ag13
aS'variable_3'
p424
aS'->'
p425
aS'variable_17'
p426
aS'->'
p427
aS'variable_68'
p428
ag17
aS'variable_1'
p429
aS'->'
p430
aS'variable_43'
p431
ag69
aS'variable_69'
p432
ag109
ag49
aS'?'
p433
aS'variable_70'
p434
aS':'
p435
aS'variable_71'
p436
ag29
aS'if'
p437
ag6
aS'variable_1'
p438
aS'->'
p439
aS'variable_43'
p440
ag69
aS'variable_72'
p441
ag13
aS'if'
p442
ag6
aS'variable_3'
p443
aS'->'
p444
aS'variable_17'
p445
aS'->'
p446
aS'variable_73'
p447
aS'!='
p448
aS'variable_1'
p449
aS'->'
p450
aS'variable_43'
p451
ag69
aS'variable_73'
p452
ag13
aS'variable_16'
p453
ag17
ag205
ag29
aS'variable_3'
p454
aS'->'
p455
aS'variable_17'
p456
aS'->'
p457
aS'variable_74'
p458
ag17
aS'variable_1'
p459
aS'->'
p460
aS'variable_43'
p461
ag69
aS'variable_74'
p462
ag29
aS'variable_3'
p463
aS'->'
p464
aS'variable_17'
p465
aS'->'
p466
aS'variable_75'
p467
ag17
aS'variable_1'
p468
aS'->'
p469
aS'variable_43'
p470
ag69
aS'variable_75'
p471
ag29
aS'variable_3'
p472
aS'->'
p473
aS'variable_17'
p474
aS'->'
p475
aS'variable_73'
p476
ag17
aS'variable_1'
p477
aS'->'
p478
aS'variable_43'
p479
ag69
aS'variable_73'
p480
ag29
aS'if'
p481
ag6
aS'variable_3'
p482
aS'->'
p483
aS'variable_57'
p484
aS'&&'
p485
ag6
aS'variable_16'
p486
aS'||'
p487
aS'variable_15'
p488
ag13
ag13
aS'if'
p489
ag6
aS'variable_1'
p490
aS'!='
p491
aS'variable_2'
p492
ag13
aS'if'
p493
ag6
ag6
aS'variable_8'
p494
ag17
aS'func_8'
p495
ag6
aS'variable_1'
p496
ag13
ag13
ag272
ag49
ag13
aS'variable_3'
p497
aS'->'
p498
aS'variable_17'
p499
aS'->'
p500
aS'variable_62'
p501
ag17
aS'variable_8'
p502
ag29
aS'if'
p503
ag6
ag6
aS'variable_8'
p504
ag17
aS'func_9'
p505
ag6
aS'variable_1'
p506
ag10
ag205
ag13
ag13
ag272
ag49
ag13
aS'variable_1'
p507
aS'->'
p508
aS'variable_76'
p509
ag17
ag205
ag29
aS'if'
p510
ag6
ag58
aS'variable_3'
p511
aS'->'
p512
aS'variable_57'
p513
ag13
aS'if'
p514
ag6
aS'variable_1'
p515
aS'!='
p516
aS'variable_2'
p517
ag13
aS'if'
p518
ag6
ag6
aS'variable_8'
p519
ag17
aS'func_10'
p520
ag6
aS'variable_1'
p521
ag13
ag13
ag272
ag49
ag13
aS'variable_3'
p522
aS'->'
p523
aS'variable_17'
p524
aS'->'
p525
aS'variable_62'
p526
ag17
aS'variable_8'
p527
ag29
aS'if'
p528
ag6
ag6
aS'variable_8'
p529
ag17
aS'func_11'
p530
ag6
aS'variable_1'
p531
ag10
ag49
ag13
ag13
ag272
ag49
ag13
aS'if'
p532
ag6
aS'variable_1'
p533
aS'=='
p534
aS'variable_2'
p535
aS'&&'
p536
aS'variable_1'
p537
aS'->'
p538
aS'variable_77'
p539
aS'!='
p540
aS'variable_6'
p541
ag13
aS'variable_1'
p542
aS'->'
p543
aS'variable_77'
p544
ag17
aS'variable_6'
p545
ag29
aS'variable_1'
p546
aS'->'
p547
aS'variable_78'
p548
ag17
aS'func_12'
p549
ag6
ag18
aS'variable_3'
p550
aS'->'
p551
aS'variable_28'
p552
ag10
aS'variable_1'
p553
aS'->'
p554
aS'variable_43'
p555
ag69
aS'variable_79'
p556
ag13
ag29
aS'variable_1'
p557
aS'->'
p558
aS'variable_80'
p559
ag17
ag49
ag29
aS'variable_1'
p560
aS'->'
p561
aS'variable_81'
p562
ag17
ag49
ag29
aS'variable_13'
p563
ag17
aS'variable_4'
p564
aS'->'
p565
aS'variable_82'
p566
ag29
aS'variable_14'
p567
ag17
aS'variable_4'
p568
aS'->'
p569
aS'variable_83'
p570
ag29
aS'variable_3'
p571
aS'->'
p572
aS'variable_83'
p573
ag17
aS'variable_1'
p574
aS'->'
p575
aS'variable_20'
p576
aS'=='
p577
ag49
ag29
aS'if'
p578
ag6
aS'variable_1'
p579
aS'->'
p580
aS'variable_43'
p581
ag69
aS'variable_49'
p582
ag13
aS'variable_3'
p583
aS'->'
p584
aS'variable_82'
p585
ag17
aS'variable_84'
p586
ag29
aS'if'
p587
ag6
ag58
aS'variable_1'
p588
aS'->'
p589
aS'variable_43'
p590
ag69
aS'variable_85'
p591
aS'&&'
p592
aS'variable_9'
p593
aS'=='
p594
aS'variable_86'
p595
ag13
aS'if'
p596
ag6
aS'func_13'
p597
ag6
ag18
aS'variable_3'
p598
aS'->'
p599
aS'variable_28'
p600
ag13
ag13
aS'variable_3'
p601
aS'->'
p602
aS'variable_82'
p603
ag17
aS'variable_87'
p604
aS'+'
p605
aS'func_14'
p606
ag6
ag18
aS'variable_3'
p607
aS'->'
p608
aS'variable_28'
p609
ag13
ag29
aS'variable_3'
p610
aS'->'
p611
aS'variable_82'
p612
ag17
aS'variable_84'
p613
ag29
aS'variable_1'
p614
aS'->'
p615
aS'variable_81'
p616
ag17
aS'variable_1'
p617
aS'->'
p618
aS'variable_43'
p619
ag69
aS'variable_88'
p620
ag29
aS'variable_1'
p621
aS'->'
p622
aS'variable_89'
p623
ag17
aS'variable_3'
p624
aS'->'
p625
aS'variable_82'
p626
aS'!='
p627
aS'variable_84'
p628
ag29
aS'if'
p629
ag6
aS'variable_2'
p630
aS'->'
p631
aS'variable_29'
p632
aS'!='
p633
ag49
ag13
aS'if'
p634
ag6
aS'variable_1'
p635
aS'->'
p636
aS'variable_78'
p637
aS'!='
p638
aS'variable_1'
p639
aS'->'
p640
aS'variable_90'
p641
aS'&&'
p642
aS'variable_1'
p643
aS'->'
p644
aS'variable_90'
p645
ag109
ag17
ag49
ag13
aS'int'
p646
aS'variable_91'
p647
ag17
aS'variable_1'
p648
aS'->'
p649
aS'variable_90'
p650
ag29
aS'int'
p651
aS'variable_92'
p652
ag17
ag205
aS'<<'
p653
aS'variable_1'
p654
aS'->'
p655
aS'variable_43'
p656
ag69
aS'variable_79'
p657
ag29
aS'if'
p658
ag6
aS'variable_91'
p659
ag109
aS'variable_1'
p660
aS'->'
p661
aS'variable_78'
p662
ag13
aS'variable_91'
p663
aS'-='
p664
aS'variable_92'
p665
ag29
aS'if'
p666
ag6
ag6
aS'variable_1'
p667
aS'->'
p668
aS'variable_78'
p669
ag242
aS'variable_91'
p670
ag13
ag109
aS'variable_1'
p671
aS'->'
p672
aS'variable_43'
p673
ag69
aS'variable_56'
p674
ag13
aS'variable_91'
p675
ag17
ag6
aS'variable_1'
p676
aS'->'
p677
aS'variable_78'
p678
ag242
aS'variable_1'
p679
aS'->'
p680
aS'variable_43'
p681
ag69
aS'variable_56'
p682
ag13
ag242
ag205
ag29
aS'if'
p683
ag6
aS'variable_91'
p684
ag272
ag49
ag13
aS'variable_91'
p685
aS'+='
p686
aS'variable_92'
p687
ag29
aS'variable_1'
p688
aS'->'
p689
aS'variable_90'
p690
ag17
aS'variable_91'
p691
ag29
aS'if'
p692
ag6
aS'variable_4'
p693
aS'->'
p694
aS'variable_30'
p695
ag13
aS'if'
p696
ag6
ag58
aS'variable_93'
p697
aS'||'
p698
aS'variable_3'
p699
aS'->'
p700
aS'variable_82'
p701
aS'=='
p702
aS'variable_13'
p703
ag13
aS'if'
p704
ag6
aS'variable_4'
p705
aS'->'
p706
aS'variable_31'
p707
aS'->'
p708
aS'variable_78'
p709
aS'!='
p710
aS'variable_1'
p711
aS'->'
p712
aS'variable_78'
p713
ag13
aS'if'
p714
ag6
ag58
ag6
ag6
aS'variable_13'
p715
aS'=='
p716
aS'variable_87'
p717
aS'&&'
p718
aS'variable_3'
p719
aS'->'
p720
aS'variable_82'
p721
aS'=='
p722
aS'variable_94'
p723
ag13
aS'||'
p724
ag6
aS'variable_13'
p725
aS'=='
p726
aS'variable_94'
p727
aS'&&'
p728
aS'variable_3'
p729
aS'->'
p730
aS'variable_82'
p731
aS'=='
p732
aS'variable_87'
p733
ag13
ag13
ag13
aS'if'
p734
ag6
aS'variable_14'
p735
aS'!='
p736
aS'variable_3'
p737
aS'->'
p738
aS'variable_83'
p739
ag13
aS'variable_3'
p740
aS'->'
p741
aS'variable_82'
p742
ag17
aS'variable_13'
p743
ag29
aS'variable_3'
p744
aS'->'
p745
aS'variable_83'
p746
ag17
aS'variable_14'
p747
ag29
aS'variable_4'
p748
aS'->'
p749
aS'variable_31'
p750
aS'->'
p751
aS'variable_95'
p752
ag17
aS'variable_4'
p753
ag29
aS'while'
p754
ag6
aS'variable_1'
p755
aS'->'
p756
aS'variable_78'
p757
aS'!='
p758
aS'variable_1'
p759
aS'->'
p760
aS'variable_90'
p761
aS'&&'
p762
aS'variable_1'
p763
aS'->'
p764
aS'variable_90'
p765
ag109
ag17
ag49
aS'&&'
p766
ag58
aS'variable_4'
p767
aS'->'
p768
aS'variable_30'
p769
aS'&&'
p770
aS'variable_1'
p771
aS'->'
p772
aS'variable_78'
p773
aS'!='
p774
ag6
aS'variable_1'
p775
aS'->'
p776
aS'variable_90'
p777
ag605
ag205
ag13
aS'%'
p778
ag6
ag205
aS'<<'
p779
aS'variable_1'
p780
aS'->'
p781
aS'variable_43'
p782
ag69
aS'variable_79'
p783
ag13
ag13
aS'if'
p784
ag6
aS'func_15'
p785
ag6
aS'variable_1'
p786
ag13
ag272
ag49
ag13
aS'variable_1'
p787
aS'->'
p788
aS'variable_90'
p789
aS'++'
p790
ag29
aS'variable_1'
p791
aS'->'
p792
aS'variable_90'
p793
ag778
ag17
ag205
aS'<<'
p794
aS'variable_1'
p795
aS'->'
p796
aS'variable_43'
p797
ag69
aS'variable_79'
p798
ag29
aS'variable_3'
p799
aS'->'
p800
aS'variable_31'
p801
aS'->'
p802
aS'variable_78'
p803
ag17
aS'variable_1'
p804
aS'->'
p805
aS'variable_90'
p806
ag29
aS'if'
p807
ag6
ag6
aS'variable_8'
p808
ag17
aS'func_16'
p809
ag6
aS'variable_1'
p810
ag10
ag205
ag13
ag13
ag272
ag49
aS'&&'
p811
aS'variable_3'
p812
aS'->'
p813
aS'variable_17'
p814
aS'->'
p815
aS'variable_96'
p816
ag18
aS'variable_97'
p817
ag13
aS'if'
p818
ag6
aS'func_17'
p819
ag6
aS'variable_1'
p820
ag10
aS'variable_1'
p821
aS'->'
p822
aS'variable_98'
p823
ag10
aS'variable_1'
p824
aS'->'
p825
aS'variable_99'
p826
ag13
ag272
ag49
aS'&&'
p827
ag6
aS'variable_3'
p828
aS'->'
p829
aS'variable_17'
p830
aS'->'
p831
aS'variable_96'
p832
ag18
aS'variable_97'
p833
ag13
ag13
aS'if'
p834
ag6
aS'variable_4'
p835
aS'->'
p836
aS'variable_30'
p837
ag13
aS'assert'
p838
ag6
aS'variable_4'
p839
aS'->'
p840
aS'variable_31'
p841
aS'->'
p842
aS'variable_100'
p843
ag69
aS'variable_101'
p844
aS'!='
p845
aS'variable_102'
p846
ag13
ag29
aa(lp847
S'static'
p848
aS'int'
p849
aS'func_0'
p850
ag6
aS'variable_0'
p851
ag8
aS'variable_1'
p852
ag10
aS'variable_0'
p853
ag8
aS'variable_2'
p854
ag13
aS'MpegEncContext'
p855
ag8
aS'const'
p856
aS'variable_3'
p857
ag17
ag18
aS'variable_1'
p858
aS'->'
p859
aS'MpegEncContext'
p860
ag8
aS'const'
p861
aS'variable_4'
p862
ag17
ag18
aS'variable_2'
p863
aS'->'
p864
aS'unsigned'
p865
aS'int'
p866
aS'variable_5'
p867
ag29
aS'unsigned'
p868
aS'int'
p869
aS'variable_6'
p870
ag29
aS'int'
p871
aS'variable_7'
p872
ag10
aS'variable_8'
p873
ag29
aS'unsigned'
p874
aS'int'
p875
aS'variable_9'
p876
ag10
aS'variable_10'
p877
ag10
aS'variable_11'
p878
ag10
aS'variable_12'
p879
ag29
aS'int'
p880
aS'variable_13'
p881
ag10
aS'variable_14'
p882
ag29
aS'int'
p883
aS'variable_15'
p884
ag29
aS'int'
p885
aS'variable_16'
p886
ag17
ag49
ag29
aS'if'
p887
ag6
ag6
aS'variable_3'
p888
aS'->'
p889
aS'variable_17'
p890
aS'->'
p891
aS'variable_18'
p892
ag18
aS'variable_19'
p893
ag13
aS'&&'
p894
ag58
aS'variable_1'
p895
aS'->'
p896
aS'variable_20'
p897
aS'&&'
p898
ag58
aS'variable_1'
p899
aS'->'
p900
aS'variable_21'
p901
ag13
aS'variable_3'
p902
aS'->'
p903
aS'variable_22'
p904
ag69
aS'variable_23'
p905
ag17
aS'variable_3'
p906
aS'->'
p907
aS'variable_24'
p908
ag69
aS'variable_25'
p909
ag29
aS'variable_3'
p910
aS'->'
p911
aS'variable_22'
p912
ag69
aS'variable_26'
p913
ag17
aS'variable_3'
p914
aS'->'
p915
aS'variable_24'
p916
ag69
aS'variable_27'
p917
ag29
aS'variable_5'
p918
ag17
aS'func_1'
p919
ag6
ag18
aS'variable_3'
p920
aS'->'
p921
aS'variable_28'
p922
ag13
ag29
aS'if'
p923
ag6
aS'variable_5'
p924
aS'=='
p925
ag49
ag13
aS'variable_2'
p926
aS'->'
p927
aS'variable_29'
p928
ag17
ag49
ag29
aS'if'
p929
ag6
ag58
aS'variable_4'
p930
aS'->'
p931
aS'variable_30'
p932
ag13
aS'variable_3'
p933
aS'->'
p934
aS'variable_31'
p935
ag17
aS'NULL'
p936
ag29
aS'variable_9'
p937
ag17
aS'func_2'
p938
ag6
ag18
aS'variable_3'
p939
aS'->'
p940
aS'variable_28'
p941
ag13
ag29
aS'if'
p942
ag6
aS'variable_9'
p943
ag109
ag110
ag13
aS'if'
p944
ag6
aS'variable_9'
p945
ag109
ag113
ag13
aS'variable_9'
p946
aS'-='
p947
ag116
ag29
aS'variable_1'
p948
aS'->'
p949
aS'variable_32'
p950
ag17
ag49
ag29
aS'variable_9'
p951
ag17
aS'variable_33'
p952
ag122
aS'variable_9'
p953
ag124
ag29
aS'variable_1'
p954
aS'->'
p955
aS'variable_9'
p956
ag17
aS'variable_9'
p957
ag29
aS'variable_1'
p958
aS'->'
p959
aS'variable_34'
p960
ag17
aS'variable_9'
p961
ag18
ag133
ag29
aS'variable_3'
p962
aS'->'
p963
aS'variable_35'
p964
ag17
aS'variable_1'
p965
aS'->'
p966
aS'variable_9'
p967
ag29
aS'variable_6'
p968
ag17
aS'func_3'
p969
ag6
ag18
aS'variable_3'
p970
aS'->'
p971
aS'variable_28'
p972
ag13
ag29
aS'if'
p973
ag6
aS'variable_6'
p974
ag109
ag17
aS'variable_36'
p975
ag13
aS'if'
p976
ag6
ag58
aS'variable_2'
p977
aS'->'
p978
aS'variable_37'
p979
ag122
aS'variable_6'
p980
ag124
ag13
aS'variable_1'
p981
aS'->'
p982
aS'variable_38'
p983
ag17
ag8
aS'variable_2'
p984
aS'->'
p985
aS'variable_37'
p986
ag122
aS'variable_6'
p987
ag124
ag29
aS'if'
p988
ag6
ag58
aS'variable_2'
p989
aS'->'
p990
aS'variable_39'
p991
ag122
aS'variable_1'
p992
aS'->'
p993
aS'variable_38'
p994
ag69
aS'variable_40'
p995
ag124
ag13
aS'variable_41'
p996
ag8
aS'variable_42'
p997
ag17
aS'variable_2'
p998
aS'->'
p999
aS'variable_39'
p1000
ag122
aS'variable_1'
p1001
aS'->'
p1002
aS'variable_38'
p1003
ag69
aS'variable_40'
p1004
ag124
ag29
aS'variable_2'
p1005
aS'->'
p1006
aS'variable_39'
p1007
ag122
aS'variable_1'
p1008
aS'->'
p1009
aS'variable_38'
p1010
ag69
aS'variable_40'
p1011
ag124
aS'->'
p1012
aS'new'
p1013
ag17
aS'if'
p1014
ag6
aS'variable_1'
p1015
aS'->'
p1016
aS'variable_43'
p1017
ag69
aS'variable_44'
p1018
aS'!='
p1019
aS'variable_42'
p1020
aS'->'
p1021
aS'variable_44'
p1022
aS'||'
p1023
aS'variable_1'
p1024
aS'->'
p1025
aS'variable_43'
p1026
ag69
aS'variable_45'
p1027
aS'!='
p1028
aS'variable_42'
p1029
aS'->'
p1030
aS'variable_45'
p1031
ag13
aS'variable_16'
p1032
ag17
ag205
ag29
aS'variable_1'
p1033
aS'->'
p1034
aS'variable_46'
p1035
ag17
aS'variable_1'
p1036
aS'->'
p1037
aS'variable_38'
p1038
ag69
aS'variable_40'
p1039
ag29
aS'variable_1'
p1040
aS'->'
p1041
aS'variable_43'
p1042
ag17
ag8
aS'variable_2'
p1043
aS'->'
p1044
aS'variable_39'
p1045
ag122
aS'variable_1'
p1046
aS'->'
p1047
aS'variable_38'
p1048
ag69
aS'variable_40'
p1049
ag124
ag29
aS'if'
p1050
ag6
aS'variable_3'
p1051
aS'->'
p1052
aS'variable_47'
p1053
aS'!='
p1054
aS'variable_1'
p1055
aS'->'
p1056
aS'variable_43'
p1057
ag69
aS'variable_47'
p1058
aS'||'
p1059
aS'variable_3'
p1060
aS'->'
p1061
aS'variable_48'
p1062
aS'!='
p1063
aS'variable_1'
p1064
aS'->'
p1065
aS'variable_43'
p1066
ag69
aS'variable_48'
p1067
ag8
ag6
ag241
ag242
aS'variable_1'
p1068
aS'->'
p1069
aS'variable_43'
p1070
ag69
aS'variable_49'
p1071
ag13
aS'||'
p1072
aS'variable_3'
p1073
aS'->'
p1074
aS'variable_17'
p1075
aS'->'
p1076
aS'variable_50'
p1077
aS'!='
p1078
aS'variable_1'
p1079
aS'->'
p1080
aS'variable_43'
p1081
ag69
aS'variable_45'
p1082
aS'||'
p1083
aS'variable_1'
p1084
aS'->'
p1085
aS'variable_51'
p1086
aS'!='
p1087
aS'variable_1'
p1088
aS'->'
p1089
aS'variable_43'
p1090
ag69
aS'variable_44'
p1091
ag13
aS'variable_16'
p1092
ag17
ag205
ag29
aS'if'
p1093
ag6
ag6
aS'variable_8'
p1094
ag17
aS'func_4'
p1095
ag6
aS'variable_1'
p1096
ag13
ag13
ag272
ag49
ag13
aS'variable_3'
p1097
aS'->'
p1098
aS'variable_17'
p1099
aS'->'
p1100
aS'variable_52'
p1101
ag17
aS'func_5'
p1102
ag6
ag18
aS'variable_1'
p1103
aS'->'
p1104
aS'variable_43'
p1105
ag13
ag29
aS'variable_3'
p1106
aS'->'
p1107
aS'variable_17'
p1108
aS'->'
p1109
aS'variable_53'
p1110
ag17
aS'variable_1'
p1111
aS'->'
p1112
aS'variable_43'
p1113
ag69
aS'variable_54'
p1114
ag29
aS'variable_3'
p1115
aS'->'
p1116
aS'variable_17'
p1117
aS'->'
p1118
aS'variable_55'
p1119
ag17
aS'variable_1'
p1120
aS'->'
p1121
aS'variable_43'
p1122
ag69
aS'variable_56'
p1123
ag29
aS'variable_15'
p1124
ag17
ag6
aS'variable_3'
p1125
aS'->'
p1126
aS'variable_57'
p1127
aS'&&'
p1128
ag6
aS'16'
p1129
ag8
aS'variable_1'
p1130
aS'->'
p1131
aS'variable_43'
p1132
ag69
aS'variable_47'
p1133
aS'!='
p1134
aS'variable_3'
p1135
aS'->'
p1136
aS'variable_17'
p1137
aS'->'
p1138
aS'variable_58'
p1139
aS'||'
p1140
aS'16'
p1141
ag8
aS'variable_1'
p1142
aS'->'
p1143
aS'variable_43'
p1144
ag69
aS'variable_48'
p1145
ag8
ag6
ag241
ag242
aS'variable_1'
p1146
aS'->'
p1147
aS'variable_43'
p1148
ag69
aS'variable_49'
p1149
ag13
aS'!='
p1150
aS'variable_3'
p1151
aS'->'
p1152
aS'variable_17'
p1153
aS'->'
p1154
aS'variable_59'
p1155
aS'||'
p1156
aS'variable_3'
p1157
aS'->'
p1158
aS'variable_17'
p1159
aS'->'
p1160
aS'variable_50'
p1161
aS'!='
p1162
aS'variable_1'
p1163
aS'->'
p1164
aS'variable_43'
p1165
ag69
aS'variable_45'
p1166
aS'||'
p1167
aS'variable_1'
p1168
aS'->'
p1169
aS'variable_51'
p1170
aS'!='
p1171
aS'variable_1'
p1172
aS'->'
p1173
aS'variable_43'
p1174
ag69
aS'variable_44'
p1175
aS'||'
p1176
aS'func_6'
p1177
ag6
aS'variable_1'
p1178
aS'->'
p1179
aS'variable_43'
p1180
ag69
aS'variable_60'
p1181
ag10
aS'variable_3'
p1182
aS'->'
p1183
aS'variable_17'
p1184
aS'->'
p1185
aS'variable_61'
p1186
ag13
ag13
ag13
ag29
aS'if'
p1187
ag6
aS'variable_2'
p1188
aS'->'
p1189
aS'variable_3'
p1190
ag69
aS'variable_17'
p1191
aS'->'
p1192
aS'variable_62'
p1193
aS'!='
p1194
aS'func_7'
p1195
ag6
aS'variable_2'
p1196
ag13
ag13
aS'variable_15'
p1197
ag17
ag205
ag29
aS'variable_3'
p1198
aS'->'
p1199
aS'variable_47'
p1200
ag17
aS'variable_1'
p1201
aS'->'
p1202
aS'variable_43'
p1203
ag69
aS'variable_47'
p1204
ag29
aS'variable_3'
p1205
aS'->'
p1206
aS'variable_48'
p1207
ag17
aS'variable_1'
p1208
aS'->'
p1209
aS'variable_43'
p1210
ag69
aS'variable_48'
p1211
ag8
ag6
ag241
ag242
aS'variable_1'
p1212
aS'->'
p1213
aS'variable_43'
p1214
ag69
aS'variable_49'
p1215
ag13
ag29
aS'variable_1'
p1216
aS'->'
p1217
aS'variable_63'
p1218
ag17
aS'variable_3'
p1219
aS'->'
p1220
aS'variable_47'
p1221
ag8
ag113
ag29
aS'variable_3'
p1222
aS'->'
p1223
aS'variable_64'
p1224
ag17
aS'variable_1'
p1225
aS'->'
p1226
aS'variable_43'
p1227
ag69
aS'variable_44'
p1228
ag272
ag17
ag205
ag29
aS'variable_3'
p1229
aS'->'
p1230
aS'variable_65'
p1231
ag17
aS'16'
p1232
ag8
aS'variable_3'
p1233
aS'->'
p1234
aS'variable_47'
p1235
ag29
aS'variable_3'
p1236
aS'->'
p1237
aS'variable_66'
p1238
ag17
aS'16'
p1239
ag8
aS'variable_3'
p1240
aS'->'
p1241
aS'variable_48'
p1242
ag29
aS'if'
p1243
ag6
aS'variable_1'
p1244
aS'->'
p1245
aS'variable_43'
p1246
ag69
aS'variable_67'
p1247
ag13
aS'variable_3'
p1248
aS'->'
p1249
aS'variable_17'
p1250
aS'->'
p1251
aS'variable_68'
p1252
ag17
aS'variable_1'
p1253
aS'->'
p1254
aS'variable_43'
p1255
ag69
aS'variable_69'
p1256
ag109
ag49
ag433
aS'variable_70'
p1257
ag435
aS'variable_71'
p1258
ag29
aS'if'
p1259
ag6
aS'variable_1'
p1260
aS'->'
p1261
aS'variable_43'
p1262
ag69
aS'variable_72'
p1263
ag13
aS'if'
p1264
ag6
aS'variable_3'
p1265
aS'->'
p1266
aS'variable_17'
p1267
aS'->'
p1268
aS'variable_73'
p1269
aS'!='
p1270
aS'variable_1'
p1271
aS'->'
p1272
aS'variable_43'
p1273
ag69
aS'variable_73'
p1274
ag13
aS'variable_16'
p1275
ag17
ag205
ag29
aS'variable_3'
p1276
aS'->'
p1277
aS'variable_17'
p1278
aS'->'
p1279
aS'variable_74'
p1280
ag17
aS'variable_1'
p1281
aS'->'
p1282
aS'variable_43'
p1283
ag69
aS'variable_74'
p1284
ag29
aS'variable_3'
p1285
aS'->'
p1286
aS'variable_17'
p1287
aS'->'
p1288
aS'variable_75'
p1289
ag17
aS'variable_1'
p1290
aS'->'
p1291
aS'variable_43'
p1292
ag69
aS'variable_75'
p1293
ag29
aS'variable_3'
p1294
aS'->'
p1295
aS'variable_17'
p1296
aS'->'
p1297
aS'variable_73'
p1298
ag17
aS'variable_1'
p1299
aS'->'
p1300
aS'variable_43'
p1301
ag69
aS'variable_73'
p1302
ag29
aS'if'
p1303
ag6
aS'variable_3'
p1304
aS'->'
p1305
aS'variable_57'
p1306
aS'&&'
p1307
ag6
aS'variable_16'
p1308
aS'||'
p1309
aS'variable_15'
p1310
ag13
ag13
aS'if'
p1311
ag6
aS'variable_1'
p1312
aS'!='
p1313
aS'variable_2'
p1314
ag13
aS'if'
p1315
ag6
ag6
aS'variable_8'
p1316
ag17
aS'func_8'
p1317
ag6
aS'variable_1'
p1318
ag13
ag13
ag272
ag49
ag13
aS'variable_3'
p1319
aS'->'
p1320
aS'variable_17'
p1321
aS'->'
p1322
aS'variable_62'
p1323
ag17
aS'variable_8'
p1324
ag29
aS'if'
p1325
ag6
ag6
aS'variable_8'
p1326
ag17
aS'func_9'
p1327
ag6
aS'variable_1'
p1328
ag10
ag205
ag13
ag13
ag272
ag49
ag13
aS'variable_1'
p1329
aS'->'
p1330
aS'variable_76'
p1331
ag17
ag205
ag29
aS'if'
p1332
ag6
ag58
aS'variable_3'
p1333
aS'->'
p1334
aS'variable_57'
p1335
ag13
aS'if'
p1336
ag6
aS'variable_1'
p1337
aS'!='
p1338
aS'variable_2'
p1339
ag13
aS'if'
p1340
ag6
ag6
aS'variable_8'
p1341
ag17
aS'func_10'
p1342
ag6
aS'variable_1'
p1343
ag13
ag13
ag272
ag49
ag13
aS'variable_3'
p1344
aS'->'
p1345
aS'variable_17'
p1346
aS'->'
p1347
aS'variable_62'
p1348
ag17
aS'variable_8'
p1349
ag29
aS'if'
p1350
ag6
ag6
aS'variable_8'
p1351
ag17
aS'func_11'
p1352
ag6
aS'variable_1'
p1353
ag10
ag49
ag13
ag13
ag272
ag49
ag13
aS'if'
p1354
ag6
aS'variable_1'
p1355
aS'=='
p1356
aS'variable_2'
p1357
aS'&&'
p1358
aS'variable_1'
p1359
aS'->'
p1360
aS'variable_77'
p1361
aS'!='
p1362
aS'variable_6'
p1363
ag13
aS'variable_1'
p1364
aS'->'
p1365
aS'variable_77'
p1366
ag17
aS'variable_6'
p1367
ag29
aS'variable_1'
p1368
aS'->'
p1369
aS'variable_78'
p1370
ag17
aS'func_12'
p1371
ag6
ag18
aS'variable_3'
p1372
aS'->'
p1373
aS'variable_28'
p1374
ag10
aS'variable_1'
p1375
aS'->'
p1376
aS'variable_43'
p1377
ag69
aS'variable_79'
p1378
ag13
ag29
aS'variable_1'
p1379
aS'->'
p1380
aS'variable_80'
p1381
ag17
ag49
ag29
aS'variable_1'
p1382
aS'->'
p1383
aS'variable_81'
p1384
ag17
ag49
ag29
aS'variable_13'
p1385
ag17
aS'variable_4'
p1386
aS'->'
p1387
aS'variable_82'
p1388
ag29
aS'variable_14'
p1389
ag17
aS'variable_4'
p1390
aS'->'
p1391
aS'variable_83'
p1392
ag29
aS'variable_3'
p1393
aS'->'
p1394
aS'variable_83'
p1395
ag17
aS'variable_1'
p1396
aS'->'
p1397
aS'variable_20'
p1398
aS'=='
p1399
ag49
ag29
aS'if'
p1400
ag6
aS'variable_1'
p1401
aS'->'
p1402
aS'variable_43'
p1403
ag69
aS'variable_49'
p1404
ag13
aS'variable_3'
p1405
aS'->'
p1406
aS'variable_82'
p1407
ag17
aS'variable_84'
p1408
ag29
aS'if'
p1409
ag6
ag58
aS'variable_1'
p1410
aS'->'
p1411
aS'variable_43'
p1412
ag69
aS'variable_85'
p1413
aS'&&'
p1414
aS'variable_9'
p1415
aS'=='
p1416
aS'variable_86'
p1417
ag13
aS'if'
p1418
ag6
aS'func_13'
p1419
ag6
ag18
aS'variable_3'
p1420
aS'->'
p1421
aS'variable_28'
p1422
ag13
ag13
aS'variable_3'
p1423
aS'->'
p1424
aS'variable_82'
p1425
ag17
aS'variable_87'
p1426
ag605
aS'func_14'
p1427
ag6
ag18
aS'variable_3'
p1428
aS'->'
p1429
aS'variable_28'
p1430
ag13
ag29
aS'variable_3'
p1431
aS'->'
p1432
aS'variable_82'
p1433
ag17
aS'variable_84'
p1434
ag29
aS'variable_1'
p1435
aS'->'
p1436
aS'variable_81'
p1437
ag17
aS'variable_1'
p1438
aS'->'
p1439
aS'variable_43'
p1440
ag69
aS'variable_88'
p1441
ag29
aS'variable_1'
p1442
aS'->'
p1443
aS'variable_89'
p1444
ag17
aS'variable_3'
p1445
aS'->'
p1446
aS'variable_82'
p1447
aS'!='
p1448
aS'variable_84'
p1449
ag29
aS'if'
p1450
ag6
aS'variable_2'
p1451
aS'->'
p1452
aS'variable_29'
p1453
aS'!='
p1454
ag49
ag13
aS'if'
p1455
ag6
aS'variable_1'
p1456
aS'->'
p1457
aS'variable_78'
p1458
aS'!='
p1459
aS'variable_1'
p1460
aS'->'
p1461
aS'variable_90'
p1462
aS'&&'
p1463
aS'variable_1'
p1464
aS'->'
p1465
aS'variable_90'
p1466
ag109
ag17
ag49
ag13
aS'int'
p1467
aS'variable_91'
p1468
ag17
aS'variable_1'
p1469
aS'->'
p1470
aS'variable_90'
p1471
ag29
aS'int'
p1472
aS'variable_92'
p1473
ag17
ag205
aS'<<'
p1474
aS'variable_1'
p1475
aS'->'
p1476
aS'variable_43'
p1477
ag69
aS'variable_79'
p1478
ag29
aS'if'
p1479
ag6
aS'variable_91'
p1480
ag109
aS'variable_1'
p1481
aS'->'
p1482
aS'variable_78'
p1483
ag13
aS'variable_91'
p1484
aS'-='
p1485
aS'variable_92'
p1486
ag29
aS'if'
p1487
ag6
ag6
aS'variable_1'
p1488
aS'->'
p1489
aS'variable_78'
p1490
ag242
aS'variable_91'
p1491
ag13
ag109
aS'variable_1'
p1492
aS'->'
p1493
aS'variable_43'
p1494
ag69
aS'variable_56'
p1495
ag13
aS'variable_91'
p1496
ag17
ag6
aS'variable_1'
p1497
aS'->'
p1498
aS'variable_78'
p1499
ag242
aS'variable_1'
p1500
aS'->'
p1501
aS'variable_43'
p1502
ag69
aS'variable_56'
p1503
ag13
ag242
ag205
ag29
aS'if'
p1504
ag6
aS'variable_91'
p1505
ag272
ag49
ag13
aS'variable_91'
p1506
aS'+='
p1507
aS'variable_92'
p1508
ag29
aS'variable_1'
p1509
aS'->'
p1510
aS'variable_90'
p1511
ag17
aS'variable_91'
p1512
ag29
aS'if'
p1513
ag6
aS'variable_4'
p1514
aS'->'
p1515
aS'variable_30'
p1516
ag13
aS'if'
p1517
ag6
ag58
aS'variable_93'
p1518
aS'||'
p1519
aS'variable_3'
p1520
aS'->'
p1521
aS'variable_82'
p1522
aS'=='
p1523
aS'variable_13'
p1524
ag13
aS'if'
p1525
ag6
aS'variable_4'
p1526
aS'->'
p1527
aS'variable_31'
p1528
aS'->'
p1529
aS'variable_78'
p1530
aS'!='
p1531
aS'variable_1'
p1532
aS'->'
p1533
aS'variable_78'
p1534
ag13
aS'if'
p1535
ag6
ag58
ag6
ag6
aS'variable_13'
p1536
aS'=='
p1537
aS'variable_87'
p1538
aS'&&'
p1539
aS'variable_3'
p1540
aS'->'
p1541
aS'variable_82'
p1542
aS'=='
p1543
aS'variable_94'
p1544
ag13
aS'||'
p1545
ag6
aS'variable_13'
p1546
aS'=='
p1547
aS'variable_94'
p1548
aS'&&'
p1549
aS'variable_3'
p1550
aS'->'
p1551
aS'variable_82'
p1552
aS'=='
p1553
aS'variable_87'
p1554
ag13
ag13
ag13
aS'if'
p1555
ag6
aS'variable_14'
p1556
aS'!='
p1557
aS'variable_3'
p1558
aS'->'
p1559
aS'variable_83'
p1560
ag13
aS'variable_3'
p1561
aS'->'
p1562
aS'variable_82'
p1563
ag17
aS'variable_13'
p1564
ag29
aS'variable_3'
p1565
aS'->'
p1566
aS'variable_83'
p1567
ag17
aS'variable_14'
p1568
ag29
aS'variable_4'
p1569
aS'->'
p1570
aS'variable_31'
p1571
aS'->'
p1572
aS'variable_95'
p1573
ag17
aS'variable_4'
p1574
ag29
aS'while'
p1575
ag6
aS'variable_1'
p1576
aS'->'
p1577
aS'variable_78'
p1578
aS'!='
p1579
aS'variable_1'
p1580
aS'->'
p1581
aS'variable_90'
p1582
aS'&&'
p1583
aS'variable_1'
p1584
aS'->'
p1585
aS'variable_90'
p1586
ag109
ag17
ag49
aS'&&'
p1587
ag58
aS'variable_4'
p1588
aS'->'
p1589
aS'variable_30'
p1590
aS'&&'
p1591
aS'variable_1'
p1592
aS'->'
p1593
aS'variable_78'
p1594
aS'!='
p1595
ag6
aS'variable_1'
p1596
aS'->'
p1597
aS'variable_90'
p1598
ag605
ag205
ag13
ag778
ag6
ag205
aS'<<'
p1599
aS'variable_1'
p1600
aS'->'
p1601
aS'variable_43'
p1602
ag69
aS'variable_79'
p1603
ag13
ag13
aS'if'
p1604
ag6
aS'func_15'
p1605
ag6
aS'variable_1'
p1606
ag13
ag272
ag49
ag13
aS'variable_1'
p1607
aS'->'
p1608
aS'variable_90'
p1609
aS'++'
p1610
ag29
aS'variable_1'
p1611
aS'->'
p1612
aS'variable_90'
p1613
ag778
ag17
ag205
aS'<<'
p1614
aS'variable_1'
p1615
aS'->'
p1616
aS'variable_43'
p1617
ag69
aS'variable_79'
p1618
ag29
aS'variable_3'
p1619
aS'->'
p1620
aS'variable_31'
p1621
aS'->'
p1622
aS'variable_78'
p1623
ag17
aS'variable_1'
p1624
aS'->'
p1625
aS'variable_90'
p1626
ag29
aS'if'
p1627
ag6
ag6
aS'variable_8'
p1628
ag17
aS'func_16'
p1629
ag6
aS'variable_1'
p1630
ag10
ag205
ag13
ag13
ag272
ag49
aS'&&'
p1631
aS'variable_3'
p1632
aS'->'
p1633
aS'variable_17'
p1634
aS'->'
p1635
aS'variable_96'
p1636
ag18
aS'variable_97'
p1637
ag13
aS'if'
p1638
ag6
aS'func_17'
p1639
ag6
aS'variable_1'
p1640
ag10
aS'variable_1'
p1641
aS'->'
p1642
aS'variable_98'
p1643
ag10
aS'variable_1'
p1644
aS'->'
p1645
aS'variable_99'
p1646
ag13
ag272
ag49
aS'&&'
p1647
ag6
aS'variable_3'
p1648
aS'->'
p1649
aS'variable_17'
p1650
aS'->'
p1651
aS'variable_96'
p1652
ag18
aS'variable_97'
p1653
ag13
ag13
aS'if'
p1654
ag6
aS'variable_4'
p1655
aS'->'
p1656
aS'variable_30'
p1657
ag13
aS'assert'
p1658
ag6
aS'variable_4'
p1659
aS'->'
p1660
aS'variable_31'
p1661
aS'->'
p1662
aS'variable_100'
p1663
ag69
aS'variable_101'
p1664
ag122
ag49
ag124
ag13
ag29
aa(lp1665
S'static'
p1666
aS'int'
p1667
aS'func_0'
p1668
ag6
aS'variable_0'
p1669
ag8
aS'variable_1'
p1670
ag10
aS'variable_0'
p1671
ag8
aS'variable_2'
p1672
ag13
aS'MpegEncContext'
p1673
ag8
aS'const'
p1674
aS'variable_3'
p1675
ag17
ag18
aS'variable_1'
p1676
aS'->'
p1677
aS'MpegEncContext'
p1678
ag8
aS'const'
p1679
aS'variable_4'
p1680
ag17
ag18
aS'variable_2'
p1681
aS'->'
p1682
aS'unsigned'
p1683
aS'int'
p1684
aS'variable_5'
p1685
ag29
aS'unsigned'
p1686
aS'int'
p1687
aS'variable_6'
p1688
ag29
aS'int'
p1689
aS'variable_7'
p1690
ag10
aS'variable_8'
p1691
ag29
aS'unsigned'
p1692
aS'int'
p1693
aS'variable_9'
p1694
ag10
aS'variable_10'
p1695
ag10
aS'variable_11'
p1696
ag10
aS'variable_12'
p1697
ag29
aS'int'
p1698
aS'variable_13'
p1699
ag10
aS'variable_14'
p1700
ag29
aS'int'
p1701
aS'variable_15'
p1702
ag29
aS'int'
p1703
aS'variable_16'
p1704
ag17
ag49
ag29
aS'if'
p1705
ag6
ag6
aS'variable_3'
p1706
aS'->'
p1707
aS'variable_17'
p1708
aS'->'
p1709
aS'variable_18'
p1710
ag18
aS'variable_19'
p1711
ag13
aS'&&'
p1712
ag58
aS'variable_1'
p1713
aS'->'
p1714
aS'variable_20'
p1715
aS'&&'
p1716
ag58
aS'variable_1'
p1717
aS'->'
p1718
aS'variable_21'
p1719
ag13
aS'variable_3'
p1720
aS'->'
p1721
aS'variable_22'
p1722
ag69
aS'variable_23'
p1723
ag17
aS'variable_3'
p1724
aS'->'
p1725
aS'variable_24'
p1726
ag69
aS'variable_25'
p1727
ag29
aS'variable_3'
p1728
aS'->'
p1729
aS'variable_22'
p1730
ag69
aS'variable_26'
p1731
ag17
aS'variable_3'
p1732
aS'->'
p1733
aS'variable_24'
p1734
ag69
aS'variable_27'
p1735
ag29
aS'variable_5'
p1736
ag17
aS'func_1'
p1737
ag6
ag18
aS'variable_3'
p1738
aS'->'
p1739
aS'variable_28'
p1740
ag13
ag29
aS'if'
p1741
ag6
aS'variable_5'
p1742
aS'=='
p1743
ag49
ag13
aS'variable_2'
p1744
aS'->'
p1745
aS'variable_29'
p1746
ag17
ag49
ag29
aS'if'
p1747
ag6
ag58
aS'variable_4'
p1748
aS'->'
p1749
aS'variable_30'
p1750
ag13
aS'variable_3'
p1751
aS'->'
p1752
aS'variable_31'
p1753
ag17
aS'NULL'
p1754
ag29
aS'variable_9'
p1755
ag17
aS'func_2'
p1756
ag6
ag18
aS'variable_3'
p1757
aS'->'
p1758
aS'variable_28'
p1759
ag13
ag29
aS'if'
p1760
ag6
aS'variable_9'
p1761
ag109
ag110
ag13
aS'if'
p1762
ag6
aS'variable_9'
p1763
ag109
ag113
ag13
aS'variable_9'
p1764
aS'-='
p1765
ag116
ag29
aS'variable_1'
p1766
aS'->'
p1767
aS'variable_32'
p1768
ag17
ag49
ag29
aS'variable_9'
p1769
ag17
aS'variable_33'
p1770
ag122
aS'variable_9'
p1771
ag124
ag29
aS'variable_1'
p1772
aS'->'
p1773
aS'variable_9'
p1774
ag17
aS'variable_9'
p1775
ag29
aS'variable_1'
p1776
aS'->'
p1777
aS'variable_34'
p1778
ag17
aS'variable_9'
p1779
ag18
ag133
ag29
aS'variable_3'
p1780
aS'->'
p1781
aS'variable_35'
p1782
ag17
aS'variable_1'
p1783
aS'->'
p1784
aS'variable_9'
p1785
ag29
aS'variable_6'
p1786
ag17
aS'func_3'
p1787
ag6
ag18
aS'variable_3'
p1788
aS'->'
p1789
aS'variable_28'
p1790
ag13
ag29
aS'if'
p1791
ag6
aS'variable_6'
p1792
ag109
ag17
aS'variable_36'
p1793
ag13
aS'if'
p1794
ag6
ag58
aS'variable_2'
p1795
aS'->'
p1796
aS'variable_37'
p1797
ag122
aS'variable_6'
p1798
ag124
ag13
aS'variable_1'
p1799
aS'->'
p1800
aS'variable_38'
p1801
ag17
ag8
aS'variable_2'
p1802
aS'->'
p1803
aS'variable_37'
p1804
ag122
aS'variable_6'
p1805
ag124
ag29
aS'if'
p1806
ag6
ag58
aS'variable_2'
p1807
aS'->'
p1808
aS'variable_39'
p1809
ag122
aS'variable_1'
p1810
aS'->'
p1811
aS'variable_38'
p1812
ag69
aS'variable_40'
p1813
ag124
ag13
aS'variable_41'
p1814
ag8
aS'variable_42'
p1815
ag17
aS'variable_2'
p1816
aS'->'
p1817
aS'variable_39'
p1818
ag122
aS'variable_1'
p1819
aS'->'
p1820
aS'variable_38'
p1821
ag69
aS'variable_40'
p1822
ag124
ag29
aS'variable_2'
p1823
aS'->'
p1824
aS'variable_39'
p1825
ag122
aS'variable_1'
p1826
aS'->'
p1827
aS'variable_38'
p1828
ag69
aS'variable_40'
p1829
ag124
aS'->'
p1830
aS'new'
p1831
ag17
aS'if'
p1832
ag6
aS'variable_1'
p1833
aS'->'
p1834
aS'variable_43'
p1835
ag69
aS'variable_44'
p1836
aS'!='
p1837
aS'variable_42'
p1838
aS'->'
p1839
aS'variable_44'
p1840
aS'||'
p1841
aS'variable_1'
p1842
aS'->'
p1843
aS'variable_43'
p1844
ag69
aS'variable_45'
p1845
aS'!='
p1846
aS'variable_42'
p1847
aS'->'
p1848
aS'variable_45'
p1849
ag13
aS'variable_16'
p1850
ag17
ag205
ag29
aS'variable_1'
p1851
aS'->'
p1852
aS'variable_46'
p1853
ag17
aS'variable_1'
p1854
aS'->'
p1855
aS'variable_38'
p1856
ag69
aS'variable_40'
p1857
ag29
aS'variable_1'
p1858
aS'->'
p1859
aS'variable_43'
p1860
ag17
ag8
aS'variable_2'
p1861
aS'->'
p1862
aS'variable_39'
p1863
ag122
aS'variable_1'
p1864
aS'->'
p1865
aS'variable_38'
p1866
ag69
aS'variable_40'
p1867
ag124
ag29
aS'if'
p1868
ag6
aS'variable_3'
p1869
aS'->'
p1870
aS'variable_47'
p1871
aS'!='
p1872
aS'variable_1'
p1873
aS'->'
p1874
aS'variable_43'
p1875
ag69
aS'variable_47'
p1876
aS'||'
p1877
aS'variable_3'
p1878
aS'->'
p1879
aS'variable_48'
p1880
aS'!='
p1881
aS'variable_1'
p1882
aS'->'
p1883
aS'variable_43'
p1884
ag69
aS'variable_48'
p1885
ag8
ag6
ag241
ag242
aS'variable_1'
p1886
aS'->'
p1887
aS'variable_43'
p1888
ag69
aS'variable_49'
p1889
ag13
aS'||'
p1890
aS'variable_3'
p1891
aS'->'
p1892
aS'variable_17'
p1893
aS'->'
p1894
aS'variable_50'
p1895
aS'!='
p1896
aS'variable_1'
p1897
aS'->'
p1898
aS'variable_43'
p1899
ag69
aS'variable_45'
p1900
aS'||'
p1901
aS'variable_1'
p1902
aS'->'
p1903
aS'variable_51'
p1904
aS'!='
p1905
aS'variable_1'
p1906
aS'->'
p1907
aS'variable_43'
p1908
ag69
aS'variable_44'
p1909
ag13
aS'variable_16'
p1910
ag17
ag205
ag29
aS'if'
p1911
ag6
ag6
aS'variable_8'
p1912
ag17
aS'func_4'
p1913
ag6
aS'variable_1'
p1914
ag13
ag13
ag272
ag49
ag13
aS'variable_3'
p1915
aS'->'
p1916
aS'variable_17'
p1917
aS'->'
p1918
aS'variable_52'
p1919
ag17
aS'func_5'
p1920
ag6
ag18
aS'variable_1'
p1921
aS'->'
p1922
aS'variable_43'
p1923
ag13
ag29
aS'variable_3'
p1924
aS'->'
p1925
aS'variable_17'
p1926
aS'->'
p1927
aS'variable_53'
p1928
ag17
aS'variable_1'
p1929
aS'->'
p1930
aS'variable_43'
p1931
ag69
aS'variable_54'
p1932
ag29
aS'variable_3'
p1933
aS'->'
p1934
aS'variable_17'
p1935
aS'->'
p1936
aS'variable_55'
p1937
ag17
aS'variable_1'
p1938
aS'->'
p1939
aS'variable_43'
p1940
ag69
aS'variable_56'
p1941
ag29
aS'variable_15'
p1942
ag17
ag6
aS'variable_3'
p1943
aS'->'
p1944
aS'variable_57'
p1945
aS'&&'
p1946
ag6
aS'16'
p1947
ag8
aS'variable_1'
p1948
aS'->'
p1949
aS'variable_43'
p1950
ag69
aS'variable_47'
p1951
aS'!='
p1952
aS'variable_3'
p1953
aS'->'
p1954
aS'variable_17'
p1955
aS'->'
p1956
aS'variable_58'
p1957
aS'||'
p1958
aS'16'
p1959
ag8
aS'variable_1'
p1960
aS'->'
p1961
aS'variable_43'
p1962
ag69
aS'variable_48'
p1963
ag8
ag6
ag241
ag242
aS'variable_1'
p1964
aS'->'
p1965
aS'variable_43'
p1966
ag69
aS'variable_49'
p1967
ag13
aS'!='
p1968
aS'variable_3'
p1969
aS'->'
p1970
aS'variable_17'
p1971
aS'->'
p1972
aS'variable_59'
p1973
aS'||'
p1974
aS'variable_3'
p1975
aS'->'
p1976
aS'variable_17'
p1977
aS'->'
p1978
aS'variable_50'
p1979
aS'!='
p1980
aS'variable_1'
p1981
aS'->'
p1982
aS'variable_43'
p1983
ag69
aS'variable_45'
p1984
aS'||'
p1985
aS'variable_1'
p1986
aS'->'
p1987
aS'variable_51'
p1988
aS'!='
p1989
aS'variable_1'
p1990
aS'->'
p1991
aS'variable_43'
p1992
ag69
aS'variable_44'
p1993
aS'||'
p1994
aS'func_6'
p1995
ag6
aS'variable_1'
p1996
aS'->'
p1997
aS'variable_43'
p1998
ag69
aS'variable_60'
p1999
ag10
aS'variable_3'
p2000
aS'->'
p2001
aS'variable_17'
p2002
aS'->'
p2003
aS'variable_61'
p2004
ag13
ag13
ag13
ag29
aS'if'
p2005
ag6
aS'variable_2'
p2006
aS'->'
p2007
aS'variable_3'
p2008
ag69
aS'variable_17'
p2009
aS'->'
p2010
aS'variable_62'
p2011
aS'!='
p2012
aS'func_7'
p2013
ag6
aS'variable_2'
p2014
ag13
ag13
aS'variable_15'
p2015
ag17
ag205
ag29
aS'variable_3'
p2016
aS'->'
p2017
aS'variable_47'
p2018
ag17
aS'variable_1'
p2019
aS'->'
p2020
aS'variable_43'
p2021
ag69
aS'variable_47'
p2022
ag29
aS'variable_3'
p2023
aS'->'
p2024
aS'variable_48'
p2025
ag17
aS'variable_1'
p2026
aS'->'
p2027
aS'variable_43'
p2028
ag69
aS'variable_48'
p2029
ag8
ag6
ag241
ag242
aS'variable_1'
p2030
aS'->'
p2031
aS'variable_43'
p2032
ag69
aS'variable_49'
p2033
ag13
ag29
aS'variable_1'
p2034
aS'->'
p2035
aS'variable_63'
p2036
ag17
aS'variable_3'
p2037
aS'->'
p2038
aS'variable_47'
p2039
ag8
ag113
ag29
aS'variable_3'
p2040
aS'->'
p2041
aS'variable_64'
p2042
ag17
aS'variable_1'
p2043
aS'->'
p2044
aS'variable_43'
p2045
ag69
aS'variable_44'
p2046
ag272
ag17
ag205
ag29
aS'variable_3'
p2047
aS'->'
p2048
aS'variable_65'
p2049
ag17
aS'16'
p2050
ag8
aS'variable_3'
p2051
aS'->'
p2052
aS'variable_47'
p2053
ag29
aS'variable_3'
p2054
aS'->'
p2055
aS'variable_66'
p2056
ag17
aS'16'
p2057
ag8
aS'variable_3'
p2058
aS'->'
p2059
aS'variable_48'
p2060
ag29
aS'if'
p2061
ag6
aS'variable_1'
p2062
aS'->'
p2063
aS'variable_43'
p2064
ag69
aS'variable_67'
p2065
ag13
aS'variable_3'
p2066
aS'->'
p2067
aS'variable_17'
p2068
aS'->'
p2069
aS'variable_68'
p2070
ag17
aS'variable_1'
p2071
aS'->'
p2072
aS'variable_43'
p2073
ag69
aS'variable_69'
p2074
ag109
ag49
ag433
aS'variable_70'
p2075
ag435
aS'variable_71'
p2076
ag29
aS'if'
p2077
ag6
aS'variable_1'
p2078
aS'->'
p2079
aS'variable_43'
p2080
ag69
aS'variable_72'
p2081
ag13
aS'if'
p2082
ag6
aS'variable_3'
p2083
aS'->'
p2084
aS'variable_17'
p2085
aS'->'
p2086
aS'variable_73'
p2087
aS'!='
p2088
aS'variable_1'
p2089
aS'->'
p2090
aS'variable_43'
p2091
ag69
aS'variable_73'
p2092
ag13
aS'variable_16'
p2093
ag17
ag205
ag29
aS'variable_3'
p2094
aS'->'
p2095
aS'variable_17'
p2096
aS'->'
p2097
aS'variable_74'
p2098
ag17
aS'variable_1'
p2099
aS'->'
p2100
aS'variable_43'
p2101
ag69
aS'variable_74'
p2102
ag29
aS'variable_3'
p2103
aS'->'
p2104
aS'variable_17'
p2105
aS'->'
p2106
aS'variable_75'
p2107
ag17
aS'variable_1'
p2108
aS'->'
p2109
aS'variable_43'
p2110
ag69
aS'variable_75'
p2111
ag29
aS'variable_3'
p2112
aS'->'
p2113
aS'variable_17'
p2114
aS'->'
p2115
aS'variable_73'
p2116
ag17
aS'variable_1'
p2117
aS'->'
p2118
aS'variable_43'
p2119
ag69
aS'variable_73'
p2120
ag29
aS'if'
p2121
ag6
aS'variable_3'
p2122
aS'->'
p2123
aS'variable_57'
p2124
aS'&&'
p2125
ag6
aS'variable_16'
p2126
aS'||'
p2127
aS'variable_15'
p2128
ag13
ag13
aS'if'
p2129
ag6
aS'variable_1'
p2130
aS'!='
p2131
aS'variable_2'
p2132
ag13
aS'if'
p2133
ag6
ag6
aS'variable_8'
p2134
ag17
aS'func_8'
p2135
ag6
aS'variable_1'
p2136
ag13
ag13
ag272
ag49
ag13
aS'variable_3'
p2137
aS'->'
p2138
aS'variable_17'
p2139
aS'->'
p2140
aS'variable_62'
p2141
ag17
aS'variable_8'
p2142
ag29
aS'if'
p2143
ag6
ag6
aS'variable_8'
p2144
ag17
aS'func_9'
p2145
ag6
aS'variable_1'
p2146
ag10
ag205
ag13
ag13
ag272
ag49
ag13
aS'variable_1'
p2147
aS'->'
p2148
aS'variable_76'
p2149
ag17
ag205
ag29
aS'if'
p2150
ag6
ag58
aS'variable_3'
p2151
aS'->'
p2152
aS'variable_57'
p2153
ag13
aS'if'
p2154
ag6
aS'variable_1'
p2155
aS'!='
p2156
aS'variable_2'
p2157
ag13
aS'if'
p2158
ag6
ag6
aS'variable_8'
p2159
ag17
aS'func_10'
p2160
ag6
aS'variable_1'
p2161
ag13
ag13
ag272
ag49
ag13
aS'variable_3'
p2162
aS'->'
p2163
aS'variable_17'
p2164
aS'->'
p2165
aS'variable_62'
p2166
ag17
aS'variable_8'
p2167
ag29
aS'if'
p2168
ag6
ag6
aS'variable_8'
p2169
ag17
aS'func_11'
p2170
ag6
aS'variable_1'
p2171
ag10
ag49
ag13
ag13
ag272
ag49
ag13
aS'if'
p2172
ag6
aS'variable_1'
p2173
aS'=='
p2174
aS'variable_2'
p2175
aS'&&'
p2176
aS'variable_1'
p2177
aS'->'
p2178
aS'variable_77'
p2179
aS'!='
p2180
aS'variable_6'
p2181
ag13
aS'variable_1'
p2182
aS'->'
p2183
aS'variable_77'
p2184
ag17
aS'variable_6'
p2185
ag29
aS'variable_1'
p2186
aS'->'
p2187
aS'variable_78'
p2188
ag17
aS'func_12'
p2189
ag6
ag18
aS'variable_3'
p2190
aS'->'
p2191
aS'variable_28'
p2192
ag10
aS'variable_1'
p2193
aS'->'
p2194
aS'variable_43'
p2195
ag69
aS'variable_79'
p2196
ag13
ag29
aS'variable_1'
p2197
aS'->'
p2198
aS'variable_80'
p2199
ag17
ag49
ag29
aS'variable_1'
p2200
aS'->'
p2201
aS'variable_81'
p2202
ag17
ag49
ag29
aS'variable_13'
p2203
ag17
aS'variable_4'
p2204
aS'->'
p2205
aS'variable_82'
p2206
ag29
aS'variable_14'
p2207
ag17
aS'variable_4'
p2208
aS'->'
p2209
aS'variable_83'
p2210
ag29
aS'variable_3'
p2211
aS'->'
p2212
aS'variable_83'
p2213
ag17
aS'variable_1'
p2214
aS'->'
p2215
aS'variable_20'
p2216
aS'=='
p2217
ag49
ag29
aS'if'
p2218
ag6
aS'variable_1'
p2219
aS'->'
p2220
aS'variable_43'
p2221
ag69
aS'variable_49'
p2222
ag13
aS'variable_3'
p2223
aS'->'
p2224
aS'variable_82'
p2225
ag17
aS'variable_84'
p2226
ag29
aS'if'
p2227
ag6
ag58
aS'variable_1'
p2228
aS'->'
p2229
aS'variable_43'
p2230
ag69
aS'variable_85'
p2231
aS'&&'
p2232
aS'variable_9'
p2233
aS'=='
p2234
aS'variable_86'
p2235
ag13
aS'if'
p2236
ag6
aS'func_13'
p2237
ag6
ag18
aS'variable_3'
p2238
aS'->'
p2239
aS'variable_28'
p2240
ag13
ag13
aS'variable_3'
p2241
aS'->'
p2242
aS'variable_82'
p2243
ag17
aS'variable_87'
p2244
ag605
aS'func_14'
p2245
ag6
ag18
aS'variable_3'
p2246
aS'->'
p2247
aS'variable_28'
p2248
ag13
ag29
aS'variable_3'
p2249
aS'->'
p2250
aS'variable_82'
p2251
ag17
aS'variable_84'
p2252
ag29
aS'variable_1'
p2253
aS'->'
p2254
aS'variable_81'
p2255
ag17
aS'variable_1'
p2256
aS'->'
p2257
aS'variable_43'
p2258
ag69
aS'variable_88'
p2259
ag29
aS'variable_1'
p2260
aS'->'
p2261
aS'variable_89'
p2262
ag17
aS'variable_3'
p2263
aS'->'
p2264
aS'variable_82'
p2265
aS'!='
p2266
aS'variable_84'
p2267
ag29
aS'if'
p2268
ag6
aS'variable_2'
p2269
aS'->'
p2270
aS'variable_29'
p2271
aS'!='
p2272
ag49
ag13
aS'if'
p2273
ag6
aS'variable_1'
p2274
aS'->'
p2275
aS'variable_78'
p2276
aS'!='
p2277
aS'variable_1'
p2278
aS'->'
p2279
aS'variable_90'
p2280
aS'&&'
p2281
aS'variable_1'
p2282
aS'->'
p2283
aS'variable_90'
p2284
ag109
ag17
ag49
ag13
aS'int'
p2285
aS'variable_91'
p2286
ag17
aS'variable_1'
p2287
aS'->'
p2288
aS'variable_90'
p2289
ag29
aS'int'
p2290
aS'variable_92'
p2291
ag17
ag205
aS'<<'
p2292
aS'variable_1'
p2293
aS'->'
p2294
aS'variable_43'
p2295
ag69
aS'variable_79'
p2296
ag29
aS'if'
p2297
ag6
aS'variable_91'
p2298
ag109
aS'variable_1'
p2299
aS'->'
p2300
aS'variable_78'
p2301
ag13
aS'variable_91'
p2302
aS'-='
p2303
aS'variable_92'
p2304
ag29
aS'if'
p2305
ag6
ag6
aS'variable_1'
p2306
aS'->'
p2307
aS'variable_78'
p2308
ag242
aS'variable_91'
p2309
ag13
ag109
aS'variable_1'
p2310
aS'->'
p2311
aS'variable_43'
p2312
ag69
aS'variable_56'
p2313
ag13
aS'variable_91'
p2314
ag17
ag6
aS'variable_1'
p2315
aS'->'
p2316
aS'variable_78'
p2317
ag242
aS'variable_1'
p2318
aS'->'
p2319
aS'variable_43'
p2320
ag69
aS'variable_56'
p2321
ag13
ag242
ag205
ag29
aS'if'
p2322
ag6
aS'variable_91'
p2323
ag272
ag49
ag13
aS'variable_91'
p2324
aS'+='
p2325
aS'variable_92'
p2326
ag29
aS'variable_1'
p2327
aS'->'
p2328
aS'variable_90'
p2329
ag17
aS'variable_91'
p2330
ag29
aS'if'
p2331
ag6
aS'variable_4'
p2332
aS'->'
p2333
aS'variable_30'
p2334
ag13
aS'if'
p2335
ag6
ag58
aS'variable_93'
p2336
aS'||'
p2337
aS'variable_3'
p2338
aS'->'
p2339
aS'variable_82'
p2340
aS'=='
p2341
aS'variable_13'
p2342
ag13
aS'if'
p2343
ag6
aS'variable_4'
p2344
aS'->'
p2345
aS'variable_31'
p2346
aS'->'
p2347
aS'variable_78'
p2348
aS'!='
p2349
aS'variable_1'
p2350
aS'->'
p2351
aS'variable_78'
p2352
ag13
aS'if'
p2353
ag6
ag58
ag6
ag6
aS'variable_13'
p2354
aS'=='
p2355
aS'variable_87'
p2356
aS'&&'
p2357
aS'variable_3'
p2358
aS'->'
p2359
aS'variable_82'
p2360
aS'=='
p2361
aS'variable_94'
p2362
ag13
aS'||'
p2363
ag6
aS'variable_13'
p2364
aS'=='
p2365
aS'variable_94'
p2366
aS'&&'
p2367
aS'variable_3'
p2368
aS'->'
p2369
aS'variable_82'
p2370
aS'=='
p2371
aS'variable_87'
p2372
ag13
ag13
ag13
aS'if'
p2373
ag6
aS'variable_14'
p2374
aS'!='
p2375
aS'variable_3'
p2376
aS'->'
p2377
aS'variable_83'
p2378
ag13
aS'variable_3'
p2379
aS'->'
p2380
aS'variable_82'
p2381
ag17
aS'variable_13'
p2382
ag29
aS'variable_3'
p2383
aS'->'
p2384
aS'variable_83'
p2385
ag17
aS'variable_14'
p2386
ag29
aS'variable_4'
p2387
aS'->'
p2388
aS'variable_31'
p2389
aS'->'
p2390
aS'variable_95'
p2391
ag17
aS'variable_4'
p2392
ag29
aS'while'
p2393
ag6
aS'variable_1'
p2394
aS'->'
p2395
aS'variable_78'
p2396
aS'!='
p2397
aS'variable_1'
p2398
aS'->'
p2399
aS'variable_90'
p2400
aS'&&'
p2401
aS'variable_1'
p2402
aS'->'
p2403
aS'variable_90'
p2404
ag109
ag17
ag49
aS'&&'
p2405
ag58
aS'variable_4'
p2406
aS'->'
p2407
aS'variable_30'
p2408
aS'&&'
p2409
aS'variable_1'
p2410
aS'->'
p2411
aS'variable_78'
p2412
aS'!='
p2413
ag6
aS'variable_1'
p2414
aS'->'
p2415
aS'variable_90'
p2416
ag605
ag205
ag13
ag778
ag6
ag205
aS'<<'
p2417
aS'variable_1'
p2418
aS'->'
p2419
aS'variable_43'
p2420
ag69
aS'variable_79'
p2421
ag13
ag13
aS'if'
p2422
ag6
aS'func_15'
p2423
ag6
aS'variable_1'
p2424
ag13
ag272
ag49
ag13
aS'variable_1'
p2425
aS'->'
p2426
aS'variable_90'
p2427
aS'++'
p2428
ag29
aS'variable_1'
p2429
aS'->'
p2430
aS'variable_90'
p2431
ag778
ag17
ag205
aS'<<'
p2432
aS'variable_1'
p2433
aS'->'
p2434
aS'variable_43'
p2435
ag69
aS'variable_79'
p2436
ag29
aS'variable_3'
p2437
aS'->'
p2438
aS'variable_31'
p2439
aS'->'
p2440
aS'variable_78'
p2441
ag17
aS'variable_1'
p2442
aS'->'
p2443
aS'variable_90'
p2444
ag29
aS'if'
p2445
ag6
ag6
aS'variable_8'
p2446
ag17
aS'func_16'
p2447
ag6
aS'variable_1'
p2448
ag10
ag205
ag13
ag13
ag272
ag49
aS'&&'
p2449
aS'variable_3'
p2450
aS'->'
p2451
aS'variable_17'
p2452
aS'->'
p2453
aS'variable_96'
p2454
ag18
aS'variable_97'
p2455
ag13
aS'if'
p2456
ag6
aS'func_17'
p2457
ag6
aS'variable_1'
p2458
ag10
aS'variable_1'
p2459
aS'->'
p2460
aS'variable_98'
p2461
ag10
aS'variable_1'
p2462
aS'->'
p2463
aS'variable_99'
p2464
ag13
ag272
ag49
aS'&&'
p2465
ag6
aS'variable_3'
p2466
aS'->'
p2467
aS'variable_17'
p2468
aS'->'
p2469
aS'variable_96'
p2470
ag18
aS'variable_97'
p2471
ag13
ag13
aS'if'
p2472
ag6
aS'variable_4'
p2473
aS'->'
p2474
aS'variable_30'
p2475
ag13
aS'assert'
p2476
ag6
aS'variable_4'
p2477
aS'->'
p2478
aS'variable_31'
p2479
ag13
ag29
aa(lp2480
S'static'
p2481
aS'int'
p2482
aS'func_0'
p2483
ag6
aS'variable_0'
p2484
ag8
aS'variable_1'
p2485
ag10
aS'variable_0'
p2486
ag8
aS'variable_2'
p2487
ag13
aS'MpegEncContext'
p2488
ag8
aS'const'
p2489
aS'variable_3'
p2490
ag17
ag18
aS'variable_1'
p2491
aS'->'
p2492
aS'MpegEncContext'
p2493
ag8
aS'const'
p2494
aS'variable_4'
p2495
ag17
ag18
aS'variable_2'
p2496
aS'->'
p2497
aS'unsigned'
p2498
aS'int'
p2499
aS'variable_5'
p2500
ag29
aS'unsigned'
p2501
aS'int'
p2502
aS'variable_6'
p2503
ag29
aS'int'
p2504
aS'variable_7'
p2505
ag10
aS'variable_8'
p2506
ag29
aS'unsigned'
p2507
aS'int'
p2508
aS'variable_9'
p2509
ag10
aS'variable_10'
p2510
ag10
aS'variable_11'
p2511
ag10
aS'variable_12'
p2512
ag29
aS'int'
p2513
aS'variable_13'
p2514
ag29
aS'int'
p2515
aS'variable_14'
p2516
ag17
ag49
ag29
aS'if'
p2517
ag6
ag6
aS'variable_3'
p2518
aS'->'
p2519
aS'variable_15'
p2520
aS'->'
p2521
aS'variable_16'
p2522
ag18
aS'variable_17'
p2523
ag13
aS'&&'
p2524
ag58
aS'variable_1'
p2525
aS'->'
p2526
aS'variable_18'
p2527
aS'&&'
p2528
ag58
aS'variable_1'
p2529
aS'->'
p2530
aS'variable_19'
p2531
ag13
aS'variable_3'
p2532
aS'->'
p2533
aS'variable_20'
p2534
ag69
aS'variable_21'
p2535
ag17
aS'variable_3'
p2536
aS'->'
p2537
aS'variable_22'
p2538
ag69
aS'variable_23'
p2539
ag29
aS'variable_3'
p2540
aS'->'
p2541
aS'variable_20'
p2542
ag69
aS'variable_24'
p2543
ag17
aS'variable_3'
p2544
aS'->'
p2545
aS'variable_22'
p2546
ag69
aS'variable_25'
p2547
ag29
aS'variable_5'
p2548
ag17
aS'func_1'
p2549
ag6
ag18
aS'variable_3'
p2550
aS'->'
p2551
aS'variable_26'
p2552
ag13
ag29
aS'if'
p2553
ag6
aS'variable_5'
p2554
aS'=='
p2555
ag49
ag13
aS'variable_2'
p2556
aS'->'
p2557
aS'variable_27'
p2558
ag17
ag49
ag29
aS'if'
p2559
ag6
ag58
aS'variable_4'
p2560
aS'->'
p2561
aS'variable_28'
p2562
ag13
aS'variable_3'
p2563
aS'->'
p2564
aS'variable_29'
p2565
ag17
aS'NULL'
p2566
ag29
aS'variable_9'
p2567
ag17
aS'func_2'
p2568
ag6
ag18
aS'variable_3'
p2569
aS'->'
p2570
aS'variable_26'
p2571
ag13
ag29
aS'if'
p2572
ag6
aS'variable_9'
p2573
ag109
ag110
ag13
aS'if'
p2574
ag6
aS'variable_9'
p2575
ag109
ag113
ag13
aS'variable_9'
p2576
aS'-='
p2577
ag116
ag29
aS'variable_1'
p2578
aS'->'
p2579
aS'variable_30'
p2580
ag17
ag49
ag29
aS'variable_9'
p2581
ag17
aS'variable_31'
p2582
ag122
aS'variable_9'
p2583
ag124
ag29
aS'variable_1'
p2584
aS'->'
p2585
aS'variable_9'
p2586
ag17
aS'variable_9'
p2587
ag29
aS'variable_1'
p2588
aS'->'
p2589
aS'variable_32'
p2590
ag17
aS'variable_9'
p2591
ag18
ag133
ag29
aS'variable_3'
p2592
aS'->'
p2593
aS'variable_33'
p2594
ag17
aS'variable_1'
p2595
aS'->'
p2596
aS'variable_9'
p2597
ag29
aS'variable_6'
p2598
ag17
aS'func_3'
p2599
ag6
ag18
aS'variable_3'
p2600
aS'->'
p2601
aS'variable_26'
p2602
ag13
ag29
aS'if'
p2603
ag6
aS'variable_6'
p2604
ag109
ag17
aS'variable_34'
p2605
ag13
aS'if'
p2606
ag6
ag58
aS'variable_2'
p2607
aS'->'
p2608
aS'variable_35'
p2609
ag122
aS'variable_6'
p2610
ag124
ag13
aS'variable_1'
p2611
aS'->'
p2612
aS'variable_36'
p2613
ag17
ag8
aS'variable_2'
p2614
aS'->'
p2615
aS'variable_35'
p2616
ag122
aS'variable_6'
p2617
ag124
ag29
aS'if'
p2618
ag6
ag58
aS'variable_2'
p2619
aS'->'
p2620
aS'variable_37'
p2621
ag122
aS'variable_1'
p2622
aS'->'
p2623
aS'variable_36'
p2624
ag69
aS'variable_38'
p2625
ag124
ag13
aS'variable_39'
p2626
ag8
aS'variable_40'
p2627
ag17
aS'variable_2'
p2628
aS'->'
p2629
aS'variable_37'
p2630
ag122
aS'variable_1'
p2631
aS'->'
p2632
aS'variable_36'
p2633
ag69
aS'variable_38'
p2634
ag124
ag29
aS'variable_2'
p2635
aS'->'
p2636
aS'variable_37'
p2637
ag122
aS'variable_1'
p2638
aS'->'
p2639
aS'variable_36'
p2640
ag69
aS'variable_38'
p2641
ag124
aS'->'
p2642
aS'new'
p2643
ag17
aS'if'
p2644
ag6
aS'variable_1'
p2645
aS'->'
p2646
aS'variable_41'
p2647
ag69
aS'variable_42'
p2648
aS'!='
p2649
aS'variable_40'
p2650
aS'->'
p2651
aS'variable_42'
p2652
aS'||'
p2653
aS'variable_1'
p2654
aS'->'
p2655
aS'variable_41'
p2656
ag69
aS'variable_43'
p2657
aS'!='
p2658
aS'variable_40'
p2659
aS'->'
p2660
aS'variable_43'
p2661
ag13
aS'variable_14'
p2662
ag17
ag205
ag29
aS'variable_1'
p2663
aS'->'
p2664
aS'variable_44'
p2665
ag17
aS'variable_1'
p2666
aS'->'
p2667
aS'variable_36'
p2668
ag69
aS'variable_38'
p2669
ag29
aS'variable_1'
p2670
aS'->'
p2671
aS'variable_41'
p2672
ag17
ag8
aS'variable_2'
p2673
aS'->'
p2674
aS'variable_37'
p2675
ag122
aS'variable_1'
p2676
aS'->'
p2677
aS'variable_36'
p2678
ag69
aS'variable_38'
p2679
ag124
ag29
aS'if'
p2680
ag6
aS'variable_3'
p2681
aS'->'
p2682
aS'variable_45'
p2683
aS'!='
p2684
aS'variable_1'
p2685
aS'->'
p2686
aS'variable_41'
p2687
ag69
aS'variable_45'
p2688
aS'||'
p2689
aS'variable_3'
p2690
aS'->'
p2691
aS'variable_46'
p2692
aS'!='
p2693
aS'variable_1'
p2694
aS'->'
p2695
aS'variable_41'
p2696
ag69
aS'variable_46'
p2697
ag8
ag6
ag241
ag242
aS'variable_1'
p2698
aS'->'
p2699
aS'variable_41'
p2700
ag69
aS'variable_47'
p2701
ag13
aS'||'
p2702
aS'variable_3'
p2703
aS'->'
p2704
aS'variable_15'
p2705
aS'->'
p2706
aS'variable_48'
p2707
aS'!='
p2708
aS'variable_1'
p2709
aS'->'
p2710
aS'variable_41'
p2711
ag69
aS'variable_43'
p2712
aS'||'
p2713
aS'variable_1'
p2714
aS'->'
p2715
aS'variable_49'
p2716
aS'!='
p2717
aS'variable_1'
p2718
aS'->'
p2719
aS'variable_41'
p2720
ag69
aS'variable_42'
p2721
ag13
aS'variable_14'
p2722
ag17
ag205
ag29
aS'if'
p2723
ag6
ag6
aS'variable_8'
p2724
ag17
aS'func_4'
p2725
ag6
aS'variable_1'
p2726
ag13
ag13
ag272
ag49
ag13
aS'variable_3'
p2727
aS'->'
p2728
aS'variable_15'
p2729
aS'->'
p2730
aS'variable_50'
p2731
ag17
aS'func_5'
p2732
ag6
ag18
aS'variable_1'
p2733
aS'->'
p2734
aS'variable_41'
p2735
ag13
ag29
aS'variable_3'
p2736
aS'->'
p2737
aS'variable_15'
p2738
aS'->'
p2739
aS'variable_51'
p2740
ag17
aS'variable_1'
p2741
aS'->'
p2742
aS'variable_41'
p2743
ag69
aS'variable_52'
p2744
ag29
aS'variable_3'
p2745
aS'->'
p2746
aS'variable_15'
p2747
aS'->'
p2748
aS'variable_53'
p2749
ag17
aS'variable_1'
p2750
aS'->'
p2751
aS'variable_41'
p2752
ag69
aS'variable_54'
p2753
ag29
aS'variable_13'
p2754
ag17
ag6
aS'variable_3'
p2755
aS'->'
p2756
aS'variable_55'
p2757
aS'&&'
p2758
ag6
aS'16'
p2759
ag8
aS'variable_1'
p2760
aS'->'
p2761
aS'variable_41'
p2762
ag69
aS'variable_45'
p2763
aS'!='
p2764
aS'variable_3'
p2765
aS'->'
p2766
aS'variable_15'
p2767
aS'->'
p2768
aS'variable_56'
p2769
aS'||'
p2770
aS'16'
p2771
ag8
aS'variable_1'
p2772
aS'->'
p2773
aS'variable_41'
p2774
ag69
aS'variable_46'
p2775
ag8
ag6
ag241
ag242
aS'variable_1'
p2776
aS'->'
p2777
aS'variable_41'
p2778
ag69
aS'variable_47'
p2779
ag13
aS'!='
p2780
aS'variable_3'
p2781
aS'->'
p2782
aS'variable_15'
p2783
aS'->'
p2784
aS'variable_57'
p2785
aS'||'
p2786
aS'variable_3'
p2787
aS'->'
p2788
aS'variable_15'
p2789
aS'->'
p2790
aS'variable_48'
p2791
aS'!='
p2792
aS'variable_1'
p2793
aS'->'
p2794
aS'variable_41'
p2795
ag69
aS'variable_43'
p2796
aS'||'
p2797
aS'variable_1'
p2798
aS'->'
p2799
aS'variable_49'
p2800
aS'!='
p2801
aS'variable_1'
p2802
aS'->'
p2803
aS'variable_41'
p2804
ag69
aS'variable_42'
p2805
aS'||'
p2806
aS'func_6'
p2807
ag6
aS'variable_1'
p2808
aS'->'
p2809
aS'variable_41'
p2810
ag69
aS'variable_58'
p2811
ag10
aS'variable_3'
p2812
aS'->'
p2813
aS'variable_15'
p2814
aS'->'
p2815
aS'variable_59'
p2816
ag13
ag13
ag13
ag29
aS'if'
p2817
ag6
aS'variable_2'
p2818
aS'->'
p2819
aS'variable_3'
p2820
ag69
aS'variable_15'
p2821
aS'->'
p2822
aS'variable_60'
p2823
aS'!='
p2824
aS'func_7'
p2825
ag6
aS'variable_2'
p2826
ag13
ag13
aS'variable_13'
p2827
ag17
ag205
ag29
aS'variable_3'
p2828
aS'->'
p2829
aS'variable_45'
p2830
ag17
aS'variable_1'
p2831
aS'->'
p2832
aS'variable_41'
p2833
ag69
aS'variable_45'
p2834
ag29
aS'variable_3'
p2835
aS'->'
p2836
aS'variable_46'
p2837
ag17
aS'variable_1'
p2838
aS'->'
p2839
aS'variable_41'
p2840
ag69
aS'variable_46'
p2841
ag8
ag6
ag241
ag242
aS'variable_1'
p2842
aS'->'
p2843
aS'variable_41'
p2844
ag69
aS'variable_47'
p2845
ag13
ag29
aS'variable_1'
p2846
aS'->'
p2847
aS'variable_61'
p2848
ag17
aS'variable_3'
p2849
aS'->'
p2850
aS'variable_45'
p2851
ag8
ag113
ag29
aS'variable_3'
p2852
aS'->'
p2853
aS'variable_62'
p2854
ag17
aS'variable_1'
p2855
aS'->'
p2856
aS'variable_41'
p2857
ag69
aS'variable_42'
p2858
ag272
ag17
ag205
ag29
aS'variable_3'
p2859
aS'->'
p2860
aS'variable_63'
p2861
ag17
aS'16'
p2862
ag8
aS'variable_3'
p2863
aS'->'
p2864
aS'variable_45'
p2865
ag29
aS'variable_3'
p2866
aS'->'
p2867
aS'variable_64'
p2868
ag17
aS'16'
p2869
ag8
aS'variable_3'
p2870
aS'->'
p2871
aS'variable_46'
p2872
ag29
aS'if'
p2873
ag6
aS'variable_1'
p2874
aS'->'
p2875
aS'variable_41'
p2876
ag69
aS'variable_65'
p2877
ag13
aS'variable_3'
p2878
aS'->'
p2879
aS'variable_15'
p2880
aS'->'
p2881
aS'variable_66'
p2882
ag17
aS'variable_1'
p2883
aS'->'
p2884
aS'variable_41'
p2885
ag69
aS'variable_67'
p2886
ag109
ag49
ag433
aS'variable_68'
p2887
ag435
aS'variable_69'
p2888
ag29
aS'if'
p2889
ag6
aS'variable_1'
p2890
aS'->'
p2891
aS'variable_41'
p2892
ag69
aS'variable_70'
p2893
ag13
aS'if'
p2894
ag6
aS'variable_3'
p2895
aS'->'
p2896
aS'variable_15'
p2897
aS'->'
p2898
aS'variable_71'
p2899
aS'!='
p2900
aS'variable_1'
p2901
aS'->'
p2902
aS'variable_41'
p2903
ag69
aS'variable_71'
p2904
ag13
aS'variable_14'
p2905
ag17
ag205
ag29
aS'variable_3'
p2906
aS'->'
p2907
aS'variable_15'
p2908
aS'->'
p2909
aS'variable_72'
p2910
ag17
aS'variable_1'
p2911
aS'->'
p2912
aS'variable_41'
p2913
ag69
aS'variable_72'
p2914
ag29
aS'variable_3'
p2915
aS'->'
p2916
aS'variable_15'
p2917
aS'->'
p2918
aS'variable_73'
p2919
ag17
aS'variable_1'
p2920
aS'->'
p2921
aS'variable_41'
p2922
ag69
aS'variable_73'
p2923
ag29
aS'variable_3'
p2924
aS'->'
p2925
aS'variable_15'
p2926
aS'->'
p2927
aS'variable_71'
p2928
ag17
aS'variable_1'
p2929
aS'->'
p2930
aS'variable_41'
p2931
ag69
aS'variable_71'
p2932
ag29
aS'if'
p2933
ag6
aS'variable_3'
p2934
aS'->'
p2935
aS'variable_55'
p2936
aS'&&'
p2937
ag6
aS'variable_14'
p2938
aS'||'
p2939
aS'variable_13'
p2940
ag13
ag13
aS'if'
p2941
ag6
aS'variable_1'
p2942
aS'!='
p2943
aS'variable_2'
p2944
ag13
aS'if'
p2945
ag6
ag6
aS'variable_8'
p2946
ag17
aS'func_8'
p2947
ag6
aS'variable_1'
p2948
ag13
ag13
ag272
ag49
ag13
aS'if'
p2949
ag6
ag6
aS'variable_8'
p2950
ag17
aS'func_9'
p2951
ag6
aS'variable_1'
p2952
ag10
ag205
ag13
ag13
ag272
ag49
ag13
aS'variable_1'
p2953
aS'->'
p2954
aS'variable_74'
p2955
ag17
ag205
ag29
aS'if'
p2956
ag6
ag58
aS'variable_3'
p2957
aS'->'
p2958
aS'variable_55'
p2959
ag13
aS'if'
p2960
ag6
aS'variable_1'
p2961
aS'!='
p2962
aS'variable_2'
p2963
ag13
aS'if'
p2964
ag6
ag6
aS'variable_8'
p2965
ag17
aS'func_10'
p2966
ag6
aS'variable_1'
p2967
ag13
ag13
ag272
ag49
ag13
aS'variable_3'
p2968
aS'->'
p2969
aS'variable_15'
p2970
aS'->'
p2971
aS'variable_60'
p2972
ag17
aS'variable_8'
p2973
ag29
aS'if'
p2974
ag6
ag6
aS'variable_8'
p2975
ag17
aS'func_11'
p2976
ag6
aS'variable_1'
p2977
ag10
ag49
ag13
ag13
ag272
ag49
ag13
aS'if'
p2978
ag6
aS'variable_1'
p2979
aS'=='
p2980
aS'variable_2'
p2981
aS'&&'
p2982
aS'variable_1'
p2983
aS'->'
p2984
aS'variable_75'
p2985
aS'!='
p2986
aS'variable_6'
p2987
ag13
aS'variable_1'
p2988
aS'->'
p2989
aS'variable_75'
p2990
ag17
aS'variable_6'
p2991
ag29
aS'variable_1'
p2992
aS'->'
p2993
aS'variable_76'
p2994
ag17
aS'func_12'
p2995
ag6
ag18
aS'variable_3'
p2996
aS'->'
p2997
aS'variable_26'
p2998
ag10
aS'variable_1'
p2999
aS'->'
p3000
aS'variable_41'
p3001
ag69
aS'variable_77'
p3002
ag13
ag29
aS'variable_1'
p3003
aS'->'
p3004
aS'variable_78'
p3005
ag17
ag49
ag29
aS'variable_1'
p3006
aS'->'
p3007
aS'variable_79'
p3008
ag17
ag49
ag29
aS'if'
p3009
ag6
aS'variable_1'
p3010
aS'->'
p3011
aS'variable_41'
p3012
ag69
aS'variable_47'
p3013
ag13
aS'if'
p3014
ag6
ag58
aS'variable_1'
p3015
aS'->'
p3016
aS'variable_41'
p3017
ag69
aS'variable_80'
p3018
aS'&&'
p3019
aS'variable_9'
p3020
aS'=='
p3021
aS'variable_81'
p3022
ag13
aS'if'
p3023
ag6
aS'variable_2'
p3024
aS'->'
p3025
aS'variable_27'
p3026
aS'!='
p3027
ag49
ag13
aS'if'
p3028
ag6
aS'variable_4'
p3029
aS'->'
p3030
aS'variable_28'
p3031
ag13
aS'assert'
p3032
ag6
aS'variable_4'
p3033
aS'->'
p3034
aS'variable_29'
p3035
aS'->'
p3036
aS'variable_82'
p3037
ag69
aS'variable_83'
p3038
aS'!='
p3039
aS'variable_84'
p3040
ag13
ag29
aa(lp3041
S'static'
p3042
aS'int'
p3043
aS'func_0'
p3044
ag6
aS'variable_0'
p3045
ag8
aS'variable_1'
p3046
ag10
aS'variable_0'
p3047
ag8
aS'variable_2'
p3048
ag13
aS'MpegEncContext'
p3049
ag8
aS'const'
p3050
aS'variable_3'
p3051
ag17
ag18
aS'variable_1'
p3052
aS'->'
p3053
aS'MpegEncContext'
p3054
ag8
aS'const'
p3055
aS'variable_4'
p3056
ag17
ag18
aS'variable_2'
p3057
aS'->'
p3058
aS'unsigned'
p3059
aS'int'
p3060
aS'variable_5'
p3061
ag29
aS'unsigned'
p3062
aS'int'
p3063
aS'variable_6'
p3064
ag29
aS'int'
p3065
aS'variable_7'
p3066
ag10
aS'variable_8'
p3067
ag29
aS'unsigned'
p3068
aS'int'
p3069
aS'variable_9'
p3070
ag10
aS'variable_10'
p3071
ag10
aS'variable_11'
p3072
ag10
aS'variable_12'
p3073
ag29
aS'int'
p3074
aS'variable_13'
p3075
ag29
aS'int'
p3076
aS'variable_14'
p3077
ag17
ag49
ag29
aS'if'
p3078
ag6
ag6
aS'variable_3'
p3079
aS'->'
p3080
aS'variable_15'
p3081
aS'->'
p3082
aS'variable_16'
p3083
ag18
aS'variable_17'
p3084
ag13
aS'&&'
p3085
ag58
aS'variable_1'
p3086
aS'->'
p3087
aS'variable_18'
p3088
aS'&&'
p3089
ag58
aS'variable_1'
p3090
aS'->'
p3091
aS'variable_19'
p3092
ag13
aS'variable_3'
p3093
aS'->'
p3094
aS'variable_20'
p3095
ag69
aS'variable_21'
p3096
ag17
aS'variable_3'
p3097
aS'->'
p3098
aS'variable_22'
p3099
ag69
aS'variable_23'
p3100
ag29
aS'variable_3'
p3101
aS'->'
p3102
aS'variable_20'
p3103
ag69
aS'variable_24'
p3104
ag17
aS'variable_3'
p3105
aS'->'
p3106
aS'variable_22'
p3107
ag69
aS'variable_25'
p3108
ag29
aS'variable_5'
p3109
ag17
aS'func_1'
p3110
ag6
ag18
aS'variable_3'
p3111
aS'->'
p3112
aS'variable_26'
p3113
ag13
ag29
aS'if'
p3114
ag6
aS'variable_5'
p3115
aS'=='
p3116
ag49
ag13
aS'variable_2'
p3117
aS'->'
p3118
aS'variable_27'
p3119
ag17
ag49
ag29
aS'if'
p3120
ag6
ag58
aS'variable_4'
p3121
aS'->'
p3122
aS'variable_28'
p3123
ag13
aS'variable_3'
p3124
aS'->'
p3125
aS'variable_29'
p3126
ag17
aS'NULL'
p3127
ag29
aS'variable_9'
p3128
ag17
aS'func_2'
p3129
ag6
ag18
aS'variable_3'
p3130
aS'->'
p3131
aS'variable_26'
p3132
ag13
ag29
aS'if'
p3133
ag6
aS'variable_9'
p3134
ag109
ag110
ag13
aS'if'
p3135
ag6
aS'variable_9'
p3136
ag109
ag113
ag13
aS'variable_9'
p3137
aS'-='
p3138
ag116
ag29
aS'variable_1'
p3139
aS'->'
p3140
aS'variable_30'
p3141
ag17
ag49
ag29
aS'variable_9'
p3142
ag17
aS'variable_31'
p3143
ag122
aS'variable_9'
p3144
ag124
ag29
aS'variable_1'
p3145
aS'->'
p3146
aS'variable_9'
p3147
ag17
aS'variable_9'
p3148
ag29
aS'variable_1'
p3149
aS'->'
p3150
aS'variable_32'
p3151
ag17
aS'variable_9'
p3152
ag18
ag133
ag29
aS'variable_3'
p3153
aS'->'
p3154
aS'variable_33'
p3155
ag17
aS'variable_1'
p3156
aS'->'
p3157
aS'variable_9'
p3158
ag29
aS'variable_6'
p3159
ag17
aS'func_3'
p3160
ag6
ag18
aS'variable_3'
p3161
aS'->'
p3162
aS'variable_26'
p3163
ag13
ag29
aS'if'
p3164
ag6
aS'variable_6'
p3165
ag109
ag17
aS'variable_34'
p3166
ag13
aS'if'
p3167
ag6
ag58
aS'variable_2'
p3168
aS'->'
p3169
aS'variable_35'
p3170
ag122
aS'variable_6'
p3171
ag124
ag13
aS'variable_1'
p3172
aS'->'
p3173
aS'variable_36'
p3174
ag17
ag8
aS'variable_2'
p3175
aS'->'
p3176
aS'variable_35'
p3177
ag122
aS'variable_6'
p3178
ag124
ag29
aS'if'
p3179
ag6
ag58
aS'variable_2'
p3180
aS'->'
p3181
aS'variable_37'
p3182
ag122
aS'variable_1'
p3183
aS'->'
p3184
aS'variable_36'
p3185
ag69
aS'variable_38'
p3186
ag124
ag13
aS'variable_39'
p3187
ag8
aS'variable_40'
p3188
ag17
aS'variable_2'
p3189
aS'->'
p3190
aS'variable_37'
p3191
ag122
aS'variable_1'
p3192
aS'->'
p3193
aS'variable_36'
p3194
ag69
aS'variable_38'
p3195
ag124
ag29
aS'variable_2'
p3196
aS'->'
p3197
aS'variable_37'
p3198
ag122
aS'variable_1'
p3199
aS'->'
p3200
aS'variable_36'
p3201
ag69
aS'variable_38'
p3202
ag124
aS'->'
p3203
aS'new'
p3204
ag17
aS'if'
p3205
ag6
aS'variable_1'
p3206
aS'->'
p3207
aS'variable_41'
p3208
ag69
aS'variable_42'
p3209
aS'!='
p3210
aS'variable_40'
p3211
aS'->'
p3212
aS'variable_42'
p3213
aS'||'
p3214
aS'variable_1'
p3215
aS'->'
p3216
aS'variable_41'
p3217
ag69
aS'variable_43'
p3218
aS'!='
p3219
aS'variable_40'
p3220
aS'->'
p3221
aS'variable_43'
p3222
ag13
aS'variable_14'
p3223
ag17
ag205
ag29
aS'variable_1'
p3224
aS'->'
p3225
aS'variable_44'
p3226
ag17
aS'variable_1'
p3227
aS'->'
p3228
aS'variable_36'
p3229
ag69
aS'variable_38'
p3230
ag29
aS'variable_1'
p3231
aS'->'
p3232
aS'variable_41'
p3233
ag17
ag8
aS'variable_2'
p3234
aS'->'
p3235
aS'variable_37'
p3236
ag122
aS'variable_1'
p3237
aS'->'
p3238
aS'variable_36'
p3239
ag69
aS'variable_38'
p3240
ag124
ag29
aS'if'
p3241
ag6
aS'variable_3'
p3242
aS'->'
p3243
aS'variable_45'
p3244
aS'!='
p3245
aS'variable_1'
p3246
aS'->'
p3247
aS'variable_41'
p3248
ag69
aS'variable_45'
p3249
aS'||'
p3250
aS'variable_3'
p3251
aS'->'
p3252
aS'variable_46'
p3253
aS'!='
p3254
aS'variable_1'
p3255
aS'->'
p3256
aS'variable_41'
p3257
ag69
aS'variable_46'
p3258
ag8
ag6
ag241
ag242
aS'variable_1'
p3259
aS'->'
p3260
aS'variable_41'
p3261
ag69
aS'variable_47'
p3262
ag13
aS'||'
p3263
aS'variable_3'
p3264
aS'->'
p3265
aS'variable_15'
p3266
aS'->'
p3267
aS'variable_48'
p3268
aS'!='
p3269
aS'variable_1'
p3270
aS'->'
p3271
aS'variable_41'
p3272
ag69
aS'variable_43'
p3273
aS'||'
p3274
aS'variable_1'
p3275
aS'->'
p3276
aS'variable_49'
p3277
aS'!='
p3278
aS'variable_1'
p3279
aS'->'
p3280
aS'variable_41'
p3281
ag69
aS'variable_42'
p3282
ag13
aS'variable_14'
p3283
ag17
ag205
ag29
aS'if'
p3284
ag6
ag6
aS'variable_8'
p3285
ag17
aS'func_4'
p3286
ag6
aS'variable_1'
p3287
ag13
ag13
ag272
ag49
ag13
aS'variable_3'
p3288
aS'->'
p3289
aS'variable_15'
p3290
aS'->'
p3291
aS'variable_50'
p3292
ag17
aS'func_5'
p3293
ag6
ag18
aS'variable_1'
p3294
aS'->'
p3295
aS'variable_41'
p3296
ag13
ag29
aS'variable_3'
p3297
aS'->'
p3298
aS'variable_15'
p3299
aS'->'
p3300
aS'variable_51'
p3301
ag17
aS'variable_1'
p3302
aS'->'
p3303
aS'variable_41'
p3304
ag69
aS'variable_52'
p3305
ag29
aS'variable_3'
p3306
aS'->'
p3307
aS'variable_15'
p3308
aS'->'
p3309
aS'variable_53'
p3310
ag17
aS'variable_1'
p3311
aS'->'
p3312
aS'variable_41'
p3313
ag69
aS'variable_54'
p3314
ag29
aS'variable_13'
p3315
ag17
ag6
aS'variable_3'
p3316
aS'->'
p3317
aS'variable_55'
p3318
aS'&&'
p3319
ag6
aS'16'
p3320
ag8
aS'variable_1'
p3321
aS'->'
p3322
aS'variable_41'
p3323
ag69
aS'variable_45'
p3324
aS'!='
p3325
aS'variable_3'
p3326
aS'->'
p3327
aS'variable_15'
p3328
aS'->'
p3329
aS'variable_56'
p3330
aS'||'
p3331
aS'16'
p3332
ag8
aS'variable_1'
p3333
aS'->'
p3334
aS'variable_41'
p3335
ag69
aS'variable_46'
p3336
ag8
ag6
ag241
ag242
aS'variable_1'
p3337
aS'->'
p3338
aS'variable_41'
p3339
ag69
aS'variable_47'
p3340
ag13
aS'!='
p3341
aS'variable_3'
p3342
aS'->'
p3343
aS'variable_15'
p3344
aS'->'
p3345
aS'variable_57'
p3346
aS'||'
p3347
aS'variable_3'
p3348
aS'->'
p3349
aS'variable_15'
p3350
aS'->'
p3351
aS'variable_48'
p3352
aS'!='
p3353
aS'variable_1'
p3354
aS'->'
p3355
aS'variable_41'
p3356
ag69
aS'variable_43'
p3357
aS'||'
p3358
aS'variable_1'
p3359
aS'->'
p3360
aS'variable_49'
p3361
aS'!='
p3362
aS'variable_1'
p3363
aS'->'
p3364
aS'variable_41'
p3365
ag69
aS'variable_42'
p3366
aS'||'
p3367
aS'func_6'
p3368
ag6
aS'variable_1'
p3369
aS'->'
p3370
aS'variable_41'
p3371
ag69
aS'variable_58'
p3372
ag10
aS'variable_3'
p3373
aS'->'
p3374
aS'variable_15'
p3375
aS'->'
p3376
aS'variable_59'
p3377
ag13
ag13
ag13
ag29
aS'if'
p3378
ag6
aS'variable_2'
p3379
aS'->'
p3380
aS'variable_3'
p3381
ag69
aS'variable_15'
p3382
aS'->'
p3383
aS'variable_60'
p3384
aS'!='
p3385
aS'func_7'
p3386
ag6
aS'variable_2'
p3387
ag13
ag13
aS'variable_13'
p3388
ag17
ag205
ag29
aS'variable_3'
p3389
aS'->'
p3390
aS'variable_45'
p3391
ag17
aS'variable_1'
p3392
aS'->'
p3393
aS'variable_41'
p3394
ag69
aS'variable_45'
p3395
ag29
aS'variable_3'
p3396
aS'->'
p3397
aS'variable_46'
p3398
ag17
aS'variable_1'
p3399
aS'->'
p3400
aS'variable_41'
p3401
ag69
aS'variable_46'
p3402
ag8
ag6
ag241
ag242
aS'variable_1'
p3403
aS'->'
p3404
aS'variable_41'
p3405
ag69
aS'variable_47'
p3406
ag13
ag29
aS'variable_1'
p3407
aS'->'
p3408
aS'variable_61'
p3409
ag17
aS'variable_3'
p3410
aS'->'
p3411
aS'variable_45'
p3412
ag8
ag113
ag29
aS'variable_3'
p3413
aS'->'
p3414
aS'variable_62'
p3415
ag17
aS'variable_1'
p3416
aS'->'
p3417
aS'variable_41'
p3418
ag69
aS'variable_42'
p3419
ag272
ag17
ag205
ag29
aS'variable_3'
p3420
aS'->'
p3421
aS'variable_63'
p3422
ag17
aS'16'
p3423
ag8
aS'variable_3'
p3424
aS'->'
p3425
aS'variable_45'
p3426
ag29
aS'variable_3'
p3427
aS'->'
p3428
aS'variable_64'
p3429
ag17
aS'16'
p3430
ag8
aS'variable_3'
p3431
aS'->'
p3432
aS'variable_46'
p3433
ag29
aS'if'
p3434
ag6
aS'variable_1'
p3435
aS'->'
p3436
aS'variable_41'
p3437
ag69
aS'variable_65'
p3438
ag13
aS'variable_3'
p3439
aS'->'
p3440
aS'variable_15'
p3441
aS'->'
p3442
aS'variable_66'
p3443
ag17
aS'variable_1'
p3444
aS'->'
p3445
aS'variable_41'
p3446
ag69
aS'variable_67'
p3447
ag109
ag49
ag433
aS'variable_68'
p3448
ag435
aS'variable_69'
p3449
ag29
aS'if'
p3450
ag6
aS'variable_1'
p3451
aS'->'
p3452
aS'variable_41'
p3453
ag69
aS'variable_70'
p3454
ag13
aS'if'
p3455
ag6
aS'variable_3'
p3456
aS'->'
p3457
aS'variable_15'
p3458
aS'->'
p3459
aS'variable_71'
p3460
aS'!='
p3461
aS'variable_1'
p3462
aS'->'
p3463
aS'variable_41'
p3464
ag69
aS'variable_71'
p3465
ag13
aS'variable_14'
p3466
ag17
ag205
ag29
aS'variable_3'
p3467
aS'->'
p3468
aS'variable_15'
p3469
aS'->'
p3470
aS'variable_72'
p3471
ag17
aS'variable_1'
p3472
aS'->'
p3473
aS'variable_41'
p3474
ag69
aS'variable_72'
p3475
ag29
aS'variable_3'
p3476
aS'->'
p3477
aS'variable_15'
p3478
aS'->'
p3479
aS'variable_73'
p3480
ag17
aS'variable_1'
p3481
aS'->'
p3482
aS'variable_41'
p3483
ag69
aS'variable_73'
p3484
ag29
aS'variable_3'
p3485
aS'->'
p3486
aS'variable_15'
p3487
aS'->'
p3488
aS'variable_71'
p3489
ag17
aS'variable_1'
p3490
aS'->'
p3491
aS'variable_41'
p3492
ag69
aS'variable_71'
p3493
ag29
aS'if'
p3494
ag6
aS'variable_3'
p3495
aS'->'
p3496
aS'variable_55'
p3497
aS'&&'
p3498
ag6
aS'variable_14'
p3499
aS'||'
p3500
aS'variable_13'
p3501
ag13
ag13
aS'if'
p3502
ag6
aS'variable_1'
p3503
aS'!='
p3504
aS'variable_2'
p3505
ag13
aS'if'
p3506
ag6
ag6
aS'variable_8'
p3507
ag17
aS'func_8'
p3508
ag6
aS'variable_1'
p3509
ag13
ag13
ag272
ag49
ag13
aS'if'
p3510
ag6
ag6
aS'variable_8'
p3511
ag17
aS'func_9'
p3512
ag6
aS'variable_1'
p3513
ag10
ag205
ag13
ag13
ag272
ag49
ag13
aS'variable_1'
p3514
aS'->'
p3515
aS'variable_74'
p3516
ag17
ag205
ag29
aS'if'
p3517
ag6
ag58
aS'variable_3'
p3518
aS'->'
p3519
aS'variable_55'
p3520
ag13
aS'if'
p3521
ag6
aS'variable_1'
p3522
aS'!='
p3523
aS'variable_2'
p3524
ag13
aS'if'
p3525
ag6
ag6
aS'variable_8'
p3526
ag17
aS'func_10'
p3527
ag6
aS'variable_1'
p3528
ag13
ag13
ag272
ag49
ag13
aS'variable_3'
p3529
aS'->'
p3530
aS'variable_15'
p3531
aS'->'
p3532
aS'variable_60'
p3533
ag17
aS'variable_8'
p3534
ag29
aS'if'
p3535
ag6
ag6
aS'variable_8'
p3536
ag17
aS'func_11'
p3537
ag6
aS'variable_1'
p3538
ag10
ag49
ag13
ag13
ag272
ag49
ag13
aS'if'
p3539
ag6
aS'variable_1'
p3540
aS'=='
p3541
aS'variable_2'
p3542
aS'&&'
p3543
aS'variable_1'
p3544
aS'->'
p3545
aS'variable_75'
p3546
aS'!='
p3547
aS'variable_6'
p3548
ag13
aS'variable_1'
p3549
aS'->'
p3550
aS'variable_75'
p3551
ag17
aS'variable_6'
p3552
ag29
aS'variable_1'
p3553
aS'->'
p3554
aS'variable_76'
p3555
ag17
aS'func_12'
p3556
ag6
ag18
aS'variable_3'
p3557
aS'->'
p3558
aS'variable_26'
p3559
ag10
aS'variable_1'
p3560
aS'->'
p3561
aS'variable_41'
p3562
ag69
aS'variable_77'
p3563
ag13
ag29
aS'variable_1'
p3564
aS'->'
p3565
aS'variable_78'
p3566
ag17
ag49
ag29
aS'variable_1'
p3567
aS'->'
p3568
aS'variable_79'
p3569
ag17
ag49
ag29
aS'if'
p3570
ag6
aS'variable_1'
p3571
aS'->'
p3572
aS'variable_41'
p3573
ag69
aS'variable_47'
p3574
ag13
aS'if'
p3575
ag6
ag58
aS'variable_1'
p3576
aS'->'
p3577
aS'variable_41'
p3578
ag69
aS'variable_80'
p3579
aS'&&'
p3580
aS'variable_9'
p3581
aS'=='
p3582
aS'variable_81'
p3583
ag13
aS'if'
p3584
ag6
aS'variable_2'
p3585
aS'->'
p3586
aS'variable_27'
p3587
aS'!='
p3588
ag49
ag13
aS'if'
p3589
ag6
aS'variable_4'
p3590
aS'->'
p3591
aS'variable_28'
p3592
ag13
aS'assert'
p3593
ag6
aS'variable_4'
p3594
aS'->'
p3595
aS'variable_29'
p3596
aS'->'
p3597
aS'variable_82'
p3598
ag69
aS'variable_83'
p3599
ag122
ag49
ag124
ag13
ag29
aa(lp3600
S'static'
p3601
aS'int'
p3602
aS'func_0'
p3603
ag6
aS'variable_0'
p3604
ag8
aS'variable_1'
p3605
ag10
aS'variable_0'
p3606
ag8
aS'variable_2'
p3607
ag13
aS'MpegEncContext'
p3608
ag8
aS'const'
p3609
aS'variable_3'
p3610
ag17
ag18
aS'variable_1'
p3611
aS'->'
p3612
aS'MpegEncContext'
p3613
ag8
aS'const'
p3614
aS'variable_4'
p3615
ag17
ag18
aS'variable_2'
p3616
aS'->'
p3617
aS'unsigned'
p3618
aS'int'
p3619
aS'variable_5'
p3620
ag29
aS'unsigned'
p3621
aS'int'
p3622
aS'variable_6'
p3623
ag29
aS'int'
p3624
aS'variable_7'
p3625
ag10
aS'variable_8'
p3626
ag29
aS'unsigned'
p3627
aS'int'
p3628
aS'variable_9'
p3629
ag10
aS'variable_10'
p3630
ag10
aS'variable_11'
p3631
ag10
aS'variable_12'
p3632
ag29
aS'int'
p3633
aS'variable_13'
p3634
ag29
aS'int'
p3635
aS'variable_14'
p3636
ag17
ag49
ag29
aS'if'
p3637
ag6
ag6
aS'variable_3'
p3638
aS'->'
p3639
aS'variable_15'
p3640
aS'->'
p3641
aS'variable_16'
p3642
ag18
aS'variable_17'
p3643
ag13
aS'&&'
p3644
ag58
aS'variable_1'
p3645
aS'->'
p3646
aS'variable_18'
p3647
aS'&&'
p3648
ag58
aS'variable_1'
p3649
aS'->'
p3650
aS'variable_19'
p3651
ag13
aS'variable_3'
p3652
aS'->'
p3653
aS'variable_20'
p3654
ag69
aS'variable_21'
p3655
ag17
aS'variable_3'
p3656
aS'->'
p3657
aS'variable_22'
p3658
ag69
aS'variable_23'
p3659
ag29
aS'variable_3'
p3660
aS'->'
p3661
aS'variable_20'
p3662
ag69
aS'variable_24'
p3663
ag17
aS'variable_3'
p3664
aS'->'
p3665
aS'variable_22'
p3666
ag69
aS'variable_25'
p3667
ag29
aS'variable_5'
p3668
ag17
aS'func_1'
p3669
ag6
ag18
aS'variable_3'
p3670
aS'->'
p3671
aS'variable_26'
p3672
ag13
ag29
aS'if'
p3673
ag6
aS'variable_5'
p3674
aS'=='
p3675
ag49
ag13
aS'variable_2'
p3676
aS'->'
p3677
aS'variable_27'
p3678
ag17
ag49
ag29
aS'if'
p3679
ag6
ag58
aS'variable_4'
p3680
aS'->'
p3681
aS'variable_28'
p3682
ag13
aS'variable_3'
p3683
aS'->'
p3684
aS'variable_29'
p3685
ag17
aS'NULL'
p3686
ag29
aS'variable_9'
p3687
ag17
aS'func_2'
p3688
ag6
ag18
aS'variable_3'
p3689
aS'->'
p3690
aS'variable_26'
p3691
ag13
ag29
aS'if'
p3692
ag6
aS'variable_9'
p3693
ag109
ag110
ag13
aS'if'
p3694
ag6
aS'variable_9'
p3695
ag109
ag113
ag13
aS'variable_9'
p3696
aS'-='
p3697
ag116
ag29
aS'variable_1'
p3698
aS'->'
p3699
aS'variable_30'
p3700
ag17
ag49
ag29
aS'variable_9'
p3701
ag17
aS'variable_31'
p3702
ag122
aS'variable_9'
p3703
ag124
ag29
aS'variable_1'
p3704
aS'->'
p3705
aS'variable_9'
p3706
ag17
aS'variable_9'
p3707
ag29
aS'variable_1'
p3708
aS'->'
p3709
aS'variable_32'
p3710
ag17
aS'variable_9'
p3711
ag18
ag133
ag29
aS'variable_3'
p3712
aS'->'
p3713
aS'variable_33'
p3714
ag17
aS'variable_1'
p3715
aS'->'
p3716
aS'variable_9'
p3717
ag29
aS'variable_6'
p3718
ag17
aS'func_3'
p3719
ag6
ag18
aS'variable_3'
p3720
aS'->'
p3721
aS'variable_26'
p3722
ag13
ag29
aS'if'
p3723
ag6
aS'variable_6'
p3724
ag109
ag17
aS'variable_34'
p3725
ag13
aS'if'
p3726
ag6
ag58
aS'variable_2'
p3727
aS'->'
p3728
aS'variable_35'
p3729
ag122
aS'variable_6'
p3730
ag124
ag13
aS'variable_1'
p3731
aS'->'
p3732
aS'variable_36'
p3733
ag17
ag8
aS'variable_2'
p3734
aS'->'
p3735
aS'variable_35'
p3736
ag122
aS'variable_6'
p3737
ag124
ag29
aS'if'
p3738
ag6
ag58
aS'variable_2'
p3739
aS'->'
p3740
aS'variable_37'
p3741
ag122
aS'variable_1'
p3742
aS'->'
p3743
aS'variable_36'
p3744
ag69
aS'variable_38'
p3745
ag124
ag13
aS'variable_39'
p3746
ag8
aS'variable_40'
p3747
ag17
aS'variable_2'
p3748
aS'->'
p3749
aS'variable_37'
p3750
ag122
aS'variable_1'
p3751
aS'->'
p3752
aS'variable_36'
p3753
ag69
aS'variable_38'
p3754
ag124
ag29
aS'variable_2'
p3755
aS'->'
p3756
aS'variable_37'
p3757
ag122
aS'variable_1'
p3758
aS'->'
p3759
aS'variable_36'
p3760
ag69
aS'variable_38'
p3761
ag124
aS'->'
p3762
aS'new'
p3763
ag17
aS'if'
p3764
ag6
aS'variable_1'
p3765
aS'->'
p3766
aS'variable_41'
p3767
ag69
aS'variable_42'
p3768
aS'!='
p3769
aS'variable_40'
p3770
aS'->'
p3771
aS'variable_42'
p3772
aS'||'
p3773
aS'variable_1'
p3774
aS'->'
p3775
aS'variable_41'
p3776
ag69
aS'variable_43'
p3777
aS'!='
p3778
aS'variable_40'
p3779
aS'->'
p3780
aS'variable_43'
p3781
ag13
aS'variable_14'
p3782
ag17
ag205
ag29
aS'variable_1'
p3783
aS'->'
p3784
aS'variable_44'
p3785
ag17
aS'variable_1'
p3786
aS'->'
p3787
aS'variable_36'
p3788
ag69
aS'variable_38'
p3789
ag29
aS'variable_1'
p3790
aS'->'
p3791
aS'variable_41'
p3792
ag17
ag8
aS'variable_2'
p3793
aS'->'
p3794
aS'variable_37'
p3795
ag122
aS'variable_1'
p3796
aS'->'
p3797
aS'variable_36'
p3798
ag69
aS'variable_38'
p3799
ag124
ag29
aS'if'
p3800
ag6
aS'variable_3'
p3801
aS'->'
p3802
aS'variable_45'
p3803
aS'!='
p3804
aS'variable_1'
p3805
aS'->'
p3806
aS'variable_41'
p3807
ag69
aS'variable_45'
p3808
aS'||'
p3809
aS'variable_3'
p3810
aS'->'
p3811
aS'variable_46'
p3812
aS'!='
p3813
aS'variable_1'
p3814
aS'->'
p3815
aS'variable_41'
p3816
ag69
aS'variable_46'
p3817
ag8
ag6
ag241
ag242
aS'variable_1'
p3818
aS'->'
p3819
aS'variable_41'
p3820
ag69
aS'variable_47'
p3821
ag13
aS'||'
p3822
aS'variable_3'
p3823
aS'->'
p3824
aS'variable_15'
p3825
aS'->'
p3826
aS'variable_48'
p3827
aS'!='
p3828
aS'variable_1'
p3829
aS'->'
p3830
aS'variable_41'
p3831
ag69
aS'variable_43'
p3832
aS'||'
p3833
aS'variable_1'
p3834
aS'->'
p3835
aS'variable_49'
p3836
aS'!='
p3837
aS'variable_1'
p3838
aS'->'
p3839
aS'variable_41'
p3840
ag69
aS'variable_42'
p3841
ag13
aS'variable_14'
p3842
ag17
ag205
ag29
aS'if'
p3843
ag6
ag6
aS'variable_8'
p3844
ag17
aS'func_4'
p3845
ag6
aS'variable_1'
p3846
ag13
ag13
ag272
ag49
ag13
aS'variable_3'
p3847
aS'->'
p3848
aS'variable_15'
p3849
aS'->'
p3850
aS'variable_50'
p3851
ag17
aS'func_5'
p3852
ag6
ag18
aS'variable_1'
p3853
aS'->'
p3854
aS'variable_41'
p3855
ag13
ag29
aS'variable_3'
p3856
aS'->'
p3857
aS'variable_15'
p3858
aS'->'
p3859
aS'variable_51'
p3860
ag17
aS'variable_1'
p3861
aS'->'
p3862
aS'variable_41'
p3863
ag69
aS'variable_52'
p3864
ag29
aS'variable_3'
p3865
aS'->'
p3866
aS'variable_15'
p3867
aS'->'
p3868
aS'variable_53'
p3869
ag17
aS'variable_1'
p3870
aS'->'
p3871
aS'variable_41'
p3872
ag69
aS'variable_54'
p3873
ag29
aS'variable_13'
p3874
ag17
ag6
aS'variable_3'
p3875
aS'->'
p3876
aS'variable_55'
p3877
aS'&&'
p3878
ag6
aS'16'
p3879
ag8
aS'variable_1'
p3880
aS'->'
p3881
aS'variable_41'
p3882
ag69
aS'variable_45'
p3883
aS'!='
p3884
aS'variable_3'
p3885
aS'->'
p3886
aS'variable_15'
p3887
aS'->'
p3888
aS'variable_56'
p3889
aS'||'
p3890
aS'16'
p3891
ag8
aS'variable_1'
p3892
aS'->'
p3893
aS'variable_41'
p3894
ag69
aS'variable_46'
p3895
ag8
ag6
ag241
ag242
aS'variable_1'
p3896
aS'->'
p3897
aS'variable_41'
p3898
ag69
aS'variable_47'
p3899
ag13
aS'!='
p3900
aS'variable_3'
p3901
aS'->'
p3902
aS'variable_15'
p3903
aS'->'
p3904
aS'variable_57'
p3905
aS'||'
p3906
aS'variable_3'
p3907
aS'->'
p3908
aS'variable_15'
p3909
aS'->'
p3910
aS'variable_48'
p3911
aS'!='
p3912
aS'variable_1'
p3913
aS'->'
p3914
aS'variable_41'
p3915
ag69
aS'variable_43'
p3916
aS'||'
p3917
aS'variable_1'
p3918
aS'->'
p3919
aS'variable_49'
p3920
aS'!='
p3921
aS'variable_1'
p3922
aS'->'
p3923
aS'variable_41'
p3924
ag69
aS'variable_42'
p3925
aS'||'
p3926
aS'func_6'
p3927
ag6
aS'variable_1'
p3928
aS'->'
p3929
aS'variable_41'
p3930
ag69
aS'variable_58'
p3931
ag10
aS'variable_3'
p3932
aS'->'
p3933
aS'variable_15'
p3934
aS'->'
p3935
aS'variable_59'
p3936
ag13
ag13
ag13
ag29
aS'if'
p3937
ag6
aS'variable_2'
p3938
aS'->'
p3939
aS'variable_3'
p3940
ag69
aS'variable_15'
p3941
aS'->'
p3942
aS'variable_60'
p3943
aS'!='
p3944
aS'func_7'
p3945
ag6
aS'variable_2'
p3946
ag13
ag13
aS'variable_13'
p3947
ag17
ag205
ag29
aS'variable_3'
p3948
aS'->'
p3949
aS'variable_45'
p3950
ag17
aS'variable_1'
p3951
aS'->'
p3952
aS'variable_41'
p3953
ag69
aS'variable_45'
p3954
ag29
aS'variable_3'
p3955
aS'->'
p3956
aS'variable_46'
p3957
ag17
aS'variable_1'
p3958
aS'->'
p3959
aS'variable_41'
p3960
ag69
aS'variable_46'
p3961
ag8
ag6
ag241
ag242
aS'variable_1'
p3962
aS'->'
p3963
aS'variable_41'
p3964
ag69
aS'variable_47'
p3965
ag13
ag29
aS'variable_1'
p3966
aS'->'
p3967
aS'variable_61'
p3968
ag17
aS'variable_3'
p3969
aS'->'
p3970
aS'variable_45'
p3971
ag8
ag113
ag29
aS'variable_3'
p3972
aS'->'
p3973
aS'variable_62'
p3974
ag17
aS'variable_1'
p3975
aS'->'
p3976
aS'variable_41'
p3977
ag69
aS'variable_42'
p3978
ag272
ag17
ag205
ag29
aS'variable_3'
p3979
aS'->'
p3980
aS'variable_63'
p3981
ag17
aS'16'
p3982
ag8
aS'variable_3'
p3983
aS'->'
p3984
aS'variable_45'
p3985
ag29
aS'variable_3'
p3986
aS'->'
p3987
aS'variable_64'
p3988
ag17
aS'16'
p3989
ag8
aS'variable_3'
p3990
aS'->'
p3991
aS'variable_46'
p3992
ag29
aS'if'
p3993
ag6
aS'variable_1'
p3994
aS'->'
p3995
aS'variable_41'
p3996
ag69
aS'variable_65'
p3997
ag13
aS'variable_3'
p3998
aS'->'
p3999
aS'variable_15'
p4000
aS'->'
p4001
aS'variable_66'
p4002
ag17
aS'variable_1'
p4003
aS'->'
p4004
aS'variable_41'
p4005
ag69
aS'variable_67'
p4006
ag109
ag49
ag433
aS'variable_68'
p4007
ag435
aS'variable_69'
p4008
ag29
aS'if'
p4009
ag6
aS'variable_1'
p4010
aS'->'
p4011
aS'variable_41'
p4012
ag69
aS'variable_70'
p4013
ag13
aS'if'
p4014
ag6
aS'variable_3'
p4015
aS'->'
p4016
aS'variable_15'
p4017
aS'->'
p4018
aS'variable_71'
p4019
aS'!='
p4020
aS'variable_1'
p4021
aS'->'
p4022
aS'variable_41'
p4023
ag69
aS'variable_71'
p4024
ag13
aS'variable_14'
p4025
ag17
ag205
ag29
aS'variable_3'
p4026
aS'->'
p4027
aS'variable_15'
p4028
aS'->'
p4029
aS'variable_72'
p4030
ag17
aS'variable_1'
p4031
aS'->'
p4032
aS'variable_41'
p4033
ag69
aS'variable_72'
p4034
ag29
aS'variable_3'
p4035
aS'->'
p4036
aS'variable_15'
p4037
aS'->'
p4038
aS'variable_73'
p4039
ag17
aS'variable_1'
p4040
aS'->'
p4041
aS'variable_41'
p4042
ag69
aS'variable_73'
p4043
ag29
aS'variable_3'
p4044
aS'->'
p4045
aS'variable_15'
p4046
aS'->'
p4047
aS'variable_71'
p4048
ag17
aS'variable_1'
p4049
aS'->'
p4050
aS'variable_41'
p4051
ag69
aS'variable_71'
p4052
ag29
aS'if'
p4053
ag6
aS'variable_3'
p4054
aS'->'
p4055
aS'variable_55'
p4056
aS'&&'
p4057
ag6
aS'variable_14'
p4058
aS'||'
p4059
aS'variable_13'
p4060
ag13
ag13
aS'if'
p4061
ag6
aS'variable_1'
p4062
aS'!='
p4063
aS'variable_2'
p4064
ag13
aS'if'
p4065
ag6
ag6
aS'variable_8'
p4066
ag17
aS'func_8'
p4067
ag6
aS'variable_1'
p4068
ag13
ag13
ag272
ag49
ag13
aS'if'
p4069
ag6
ag6
aS'variable_8'
p4070
ag17
aS'func_9'
p4071
ag6
aS'variable_1'
p4072
ag10
ag205
ag13
ag13
ag272
ag49
ag13
aS'variable_1'
p4073
aS'->'
p4074
aS'variable_74'
p4075
ag17
ag205
ag29
aS'if'
p4076
ag6
ag58
aS'variable_3'
p4077
aS'->'
p4078
aS'variable_55'
p4079
ag13
aS'if'
p4080
ag6
aS'variable_1'
p4081
aS'!='
p4082
aS'variable_2'
p4083
ag13
aS'if'
p4084
ag6
ag6
aS'variable_8'
p4085
ag17
aS'func_10'
p4086
ag6
aS'variable_1'
p4087
ag13
ag13
ag272
ag49
ag13
aS'variable_3'
p4088
aS'->'
p4089
aS'variable_15'
p4090
aS'->'
p4091
aS'variable_60'
p4092
ag17
aS'variable_8'
p4093
ag29
aS'if'
p4094
ag6
ag6
aS'variable_8'
p4095
ag17
aS'func_11'
p4096
ag6
aS'variable_1'
p4097
ag10
ag49
ag13
ag13
ag272
ag49
ag13
aS'if'
p4098
ag6
aS'variable_1'
p4099
aS'=='
p4100
aS'variable_2'
p4101
aS'&&'
p4102
aS'variable_1'
p4103
aS'->'
p4104
aS'variable_75'
p4105
aS'!='
p4106
aS'variable_6'
p4107
ag13
aS'variable_1'
p4108
aS'->'
p4109
aS'variable_75'
p4110
ag17
aS'variable_6'
p4111
ag29
aS'variable_1'
p4112
aS'->'
p4113
aS'variable_76'
p4114
ag17
aS'func_12'
p4115
ag6
ag18
aS'variable_3'
p4116
aS'->'
p4117
aS'variable_26'
p4118
ag10
aS'variable_1'
p4119
aS'->'
p4120
aS'variable_41'
p4121
ag69
aS'variable_77'
p4122
ag13
ag29
aS'variable_1'
p4123
aS'->'
p4124
aS'variable_78'
p4125
ag17
ag49
ag29
aS'variable_1'
p4126
aS'->'
p4127
aS'variable_79'
p4128
ag17
ag49
ag29
aS'if'
p4129
ag6
aS'variable_1'
p4130
aS'->'
p4131
aS'variable_41'
p4132
ag69
aS'variable_47'
p4133
ag13
aS'if'
p4134
ag6
ag58
aS'variable_1'
p4135
aS'->'
p4136
aS'variable_41'
p4137
ag69
aS'variable_80'
p4138
aS'&&'
p4139
aS'variable_9'
p4140
aS'=='
p4141
aS'variable_81'
p4142
ag13
aS'if'
p4143
ag6
aS'variable_2'
p4144
aS'->'
p4145
aS'variable_27'
p4146
aS'!='
p4147
ag49
ag13
aS'if'
p4148
ag6
aS'variable_4'
p4149
aS'->'
p4150
aS'variable_28'
p4151
ag13
aS'assert'
p4152
ag6
aS'variable_4'
p4153
aS'->'
p4154
aS'variable_29'
p4155
ag13
ag29
aaa(lp4156
I0
aI0
aI0
aI0
aI0
aI0
aa(lp4157
I1290
aI1290
aI1290
aI890
aI890
aI890
aa(lp4158
(lp4159
S'main'
p4160
aa(lp4161
g4160
aa(lp4162
g4160
aa(lp4163
g4160
aa(lp4164
g4160
aa(lp4165
g4160
aaa(lp4166
S'136 ../data/NVD/CVE_2013_0867_PATCHED_decode_slice_header.c assert 360'
p4167
aS'137 ../data/NVD/CVE_2013_0867_PATCHED_decode_slice_header.c assert 359'
p4168
aS'138 ../data/NVD/CVE_2013_0867_PATCHED_decode_slice_header.c assert 358'
p4169
aS'139 ../data/NVD/CVE_2013_0867_PATCHED_decode_slice_header.c assert 261'
p4170
aS'140 ../data/NVD/CVE_2013_0867_PATCHED_decode_slice_header.c assert 260'
p4171
aS'141 ../data/NVD/CVE_2013_0867_PATCHED_decode_slice_header.c assert 259'
p4172
aa.