(lp0
(lp1
(lp2
S'void'
p3
aS'func_0'
p4
aS'('
p5
aS'variable_0'
p6
aS':'
p7
ag7
aS'variable_1'
p8
aS'*'
p9
aS'uint32_t'
p10
aS'variable_2'
p11
aS','
p12
aS'GraphTime'
p13
aS'variable_3'
p14
ag12
aS'bool'
p15
ag9
aS'variable_4'
p16
aS')'
p17
aS'variable_5'
p18
ag9
aS'variable_6'
p19
aS'='
p20
aS'&'
p21
aS'variable_7'
p22
aS'['
p23
aS'variable_2'
p24
aS']'
p25
aS';'
p26
aS'variable_0'
p27
ag7
ag7
aS'variable_1'
p28
ag9
aS'variable_8'
p29
ag20
aS'variable_9'
p30
aS'.'
p31
aS'func_1'
p32
ag5
aS'variable_6'
p33
aS'->'
p34
aS'variable_10'
p35
ag17
ag26
aS'TrackRate'
p36
aS'variable_11'
p37
ag20
aS'variable_8'
p38
aS'->'
p39
aS'func_2'
p40
ag5
ag17
ag26
aS'variable_12'
p41
ag9
aS'variable_13'
p42
ag20
aS'variable_6'
p43
aS'->'
p44
aS'variable_14'
p45
aS'->'
p46
aS'func_3'
p47
ag5
ag17
ag26
aS'GraphTime'
p48
aS'variable_15'
p49
ag26
aS'for'
p50
ag5
aS'GraphTime'
p51
aS'variable_16'
p52
ag20
aS'variable_3'
p53
ag26
aS'variable_16'
p54
aS'<'
p55
aS'variable_17'
p56
ag26
aS'variable_16'
p57
ag20
aS'variable_15'
p58
ag17
aS'variable_18'
p59
ag7
ag7
aS'InputInterval'
p60
aS'variable_19'
p61
ag20
aS'variable_6'
p62
aS'->'
p63
aS'variable_14'
p64
aS'->'
p65
aS'func_4'
p66
ag5
aS'variable_16'
p67
ag17
ag26
aS'variable_19'
p68
ag31
aS'variable_20'
p69
ag20
aS'func_5'
p70
ag5
aS'variable_19'
p71
ag31
aS'variable_20'
p72
ag12
aS'variable_17'
p73
ag17
ag26
aS'if'
p74
ag5
aS'variable_19'
p75
ag31
aS'variable_21'
p76
aS'>'
p77
ag20
aS'variable_19'
p78
ag31
aS'variable_20'
p79
ag17
aS'variable_15'
p80
ag20
aS'variable_19'
p81
ag31
aS'variable_20'
p82
ag26
aS'StreamTime'
p83
aS'variable_22'
p84
ag20
aS'func_6'
p85
ag5
aS'variable_19'
p86
ag31
aS'variable_20'
p87
ag17
ag26
aS'TrackTicks'
p88
aS'variable_23'
p89
ag20
aS'variable_8'
p90
aS'->'
p91
aS'func_7'
p92
ag5
ag17
ag26
aS'TrackTicks'
p93
aS'variable_24'
p94
ag20
aS'func_8'
p95
ag5
aS'variable_11'
p96
ag12
aS'variable_22'
p97
ag17
ag26
aS'TrackTicks'
p98
aS'variable_25'
p99
ag20
aS'variable_24'
p100
aS'-'
p101
aS'variable_23'
p102
ag26
aS'StreamTime'
p103
aS'variable_26'
p104
ag20
aS'variable_13'
p105
aS'->'
p106
aS'func_9'
p107
ag5
aS'variable_19'
p108
ag31
aS'variable_20'
p109
ag17
ag26
aS'if'
p110
ag5
aS'variable_19'
p111
ag31
aS'variable_27'
p112
ag17
aS'TrackTicks'
p113
aS'variable_28'
p114
ag20
aS'func_10'
p115
ag5
aS'variable_11'
p116
ag12
aS'variable_26'
p117
ag17
ag26
aS'TrackTicks'
p118
aS'variable_29'
p119
ag20
aS'variable_28'
p120
ag101
aS'variable_25'
p121
ag26
aS'variable_30'
p122
aS'->'
p123
aS'func_11'
p124
ag5
ag9
aS'variable_31'
p125
aS'->'
p126
aS'func_12'
p127
ag5
ag17
ag12
aS'func_13'
p128
ag5
aS'variable_32'
p129
ag12
aS'variable_29'
p130
ag17
ag12
aS'func_14'
p131
ag5
aS'variable_32'
p132
ag12
aS'variable_28'
p133
ag17
ag17
ag26
aS'func_15'
p134
ag5
aS'variable_33'
p135
ag12
ag5
aS'"'
p136
aS'TrackUnionStream'
p137
aS'%'
p138
aS'p'
p139
aS'appending'
p140
ag138
aS'lld'
p141
aS'ticks'
p142
aS'of'
p143
aS'input'
p144
aS'data'
p145
aS'to'
p146
aS'track'
p147
ag138
aS'd'
p148
ag136
ag12
aS'variable_34'
p149
ag12
ag5
aS'long'
p150
aS'long'
p151
ag17
ag5
aS'func_16'
p152
ag5
aS'variable_32'
p153
ag12
aS'variable_28'
p154
ag17
ag101
aS'func_17'
p155
ag5
aS'variable_32'
p156
ag12
aS'variable_29'
p157
ag17
ag17
ag12
aS'variable_8'
p158
aS'->'
p159
aS'func_18'
p160
ag5
ag17
ag17
ag17
ag26
aa(lp161
S'void'
p162
aS'func_0'
p163
ag5
aS'variable_0'
p164
ag7
ag7
aS'variable_1'
p165
ag9
aS'uint32_t'
p166
aS'variable_2'
p167
ag12
aS'GraphTime'
p168
aS'variable_3'
p169
ag12
aS'bool'
p170
ag9
aS'variable_4'
p171
ag17
aS'variable_5'
p172
ag9
aS'variable_6'
p173
ag20
ag21
aS'variable_7'
p174
ag23
aS'variable_2'
p175
ag25
ag26
aS'variable_0'
p176
ag7
ag7
aS'variable_1'
p177
ag9
aS'variable_8'
p178
ag20
aS'variable_9'
p179
ag31
aS'func_1'
p180
ag5
aS'variable_6'
p181
aS'->'
p182
aS'variable_10'
p183
ag17
ag26
aS'TrackRate'
p184
aS'variable_11'
p185
ag20
aS'variable_8'
p186
aS'->'
p187
aS'func_2'
p188
ag5
ag17
ag26
aS'GraphTime'
p189
aS'variable_12'
p190
ag26
aS'for'
p191
ag5
aS'GraphTime'
p192
aS'variable_13'
p193
ag20
aS'variable_3'
p194
ag26
aS'variable_13'
p195
ag55
aS'variable_14'
p196
ag26
aS'variable_13'
p197
ag20
aS'variable_12'
p198
ag17
aS'variable_15'
p199
ag7
ag7
aS'InputInterval'
p200
aS'variable_16'
p201
ag20
aS'variable_6'
p202
aS'->'
p203
aS'variable_17'
p204
aS'->'
p205
aS'func_3'
p206
ag5
aS'variable_13'
p207
ag17
ag26
aS'variable_16'
p208
ag31
aS'variable_18'
p209
ag20
aS'func_4'
p210
ag5
aS'variable_16'
p211
ag31
aS'variable_18'
p212
ag12
aS'variable_14'
p213
ag17
ag26
aS'if'
p214
ag5
aS'variable_16'
p215
ag31
aS'variable_19'
p216
ag77
ag20
aS'variable_16'
p217
ag31
aS'variable_18'
p218
ag17
aS'variable_12'
p219
ag20
aS'variable_16'
p220
ag31
aS'variable_18'
p221
ag26
aS'StreamTime'
p222
aS'variable_20'
p223
ag20
aS'func_5'
p224
ag5
aS'variable_16'
p225
ag31
aS'variable_18'
p226
ag17
ag26
aS'TrackTicks'
p227
aS'variable_21'
p228
ag20
aS'variable_8'
p229
aS'->'
p230
aS'func_6'
p231
ag5
ag17
ag26
aS'TrackTicks'
p232
aS'variable_22'
p233
ag20
aS'func_7'
p234
ag5
aS'variable_11'
p235
ag12
aS'variable_20'
p236
ag17
ag26
aS'TrackTicks'
p237
aS'variable_23'
p238
ag20
aS'variable_22'
p239
ag101
aS'variable_21'
p240
ag26
aS'variable_24'
p241
aS'->'
p242
aS'func_8'
p243
ag5
aS'variable_23'
p244
ag17
ag26
aS'func_9'
p245
ag5
aS'variable_25'
p246
ag12
ag5
ag136
aS'TrackUnionStream'
p247
ag138
ag139
aS'appending'
p248
ag138
aS'lld'
p249
aS'ticks'
p250
aS'of'
p251
aS'null'
p252
aS'data'
p253
aS'to'
p254
aS'track'
p255
ag138
ag148
ag136
ag12
aS'variable_26'
p256
ag12
ag5
aS'long'
p257
aS'long'
p258
ag17
aS'variable_23'
p259
ag12
aS'variable_8'
p260
aS'->'
p261
aS'func_10'
p262
ag5
ag17
ag17
ag17
ag26
aS'TrackTicks'
p263
aS'variable_27'
p264
ag20
aS'variable_28'
p265
ag101
aS'variable_23'
p266
ag26
aS'variable_24'
p267
aS'->'
p268
aS'func_11'
p269
ag5
ag9
aS'variable_29'
p270
aS'->'
p271
aS'func_12'
p272
ag5
ag17
ag12
aS'func_13'
p273
ag5
aS'variable_30'
p274
ag12
aS'variable_27'
p275
ag17
ag12
aS'func_14'
p276
ag5
aS'variable_30'
p277
ag12
aS'variable_28'
p278
ag17
ag17
ag26
aS'func_15'
p279
ag5
aS'variable_25'
p280
ag12
ag5
ag136
aS'TrackUnionStream'
p281
ag138
ag139
aS'appending'
p282
ag138
aS'lld'
p283
aS'ticks'
p284
aS'of'
p285
aS'input'
p286
aS'data'
p287
aS'to'
p288
aS'track'
p289
ag138
ag148
ag136
ag12
aS'variable_26'
p290
ag12
ag5
aS'long'
p291
aS'long'
p292
ag17
ag5
aS'func_16'
p293
ag5
aS'variable_30'
p294
ag12
aS'variable_28'
p295
ag17
ag101
aS'func_17'
p296
ag5
aS'variable_30'
p297
ag12
aS'variable_27'
p298
ag17
ag17
ag12
aS'variable_8'
p299
aS'->'
p300
aS'func_18'
p301
ag5
ag17
ag17
ag17
ag26
aaa(lp302
I0
aI0
aa(lp303
I197
aI150
aa(lp304
(lp305
S'main'
p306
aa(lp307
g306
aaa(lp308
S'205 ../data/NVD/CVE_2013_0761_PATCHED_CopyTrackData.c TrackTicks inputStartTicks = inputEndTicks - ticks ; 58'
p309
aS'206 ../data/NVD/CVE_2013_0761_PATCHED_CopyTrackData.c TrackTicks ticks = endTicks - startTicks ; 31'
p310
aa.