(lp0
(lp1
(lp2
S'static'
p3
aS'void'
p4
aS'func_0'
p5
aS'('
p6
aS'variable_0'
p7
aS'*'
p8
aS'variable_1'
p9
aS','
p10
aS'gint'
p11
aS'variable_2'
p12
ag10
aS'variable_3'
p13
ag8
aS'variable_4'
p14
ag10
aS'variable_5'
p15
ag8
aS'variable_6'
p16
aS')'
p17
aS'variable_7'
p18
ag8
aS'variable_8'
p19
aS'='
p20
aS'NULL'
p21
ag10
ag8
aS'variable_9'
p22
ag20
aS'NULL'
p23
aS';'
p24
aS'guint'
p25
aS'variable_10'
p26
ag20
aS'func_1'
p27
ag6
aS'variable_1'
p28
ag17
aS'-'
p29
aS'variable_2'
p30
ag24
aS'if'
p31
ag6
aS'variable_6'
p32
ag17
aS'variable_8'
p33
ag20
aS'func_2'
p34
ag6
aS'variable_6'
p35
ag10
aS'variable_11'
p36
ag10
aS'variable_1'
p37
ag10
aS'variable_2'
p38
ag10
aS'variable_10'
p39
ag10
aS'variable_12'
p40
ag17
ag24
aS'if'
p41
ag6
aS'variable_10'
p42
aS'>'
p43
ag20
aS'variable_13'
p44
ag17
aS'ETHERCAT_EOE_HEADER'
p45
aS'variable_14'
p46
ag24
aS'variable_15'
p47
ag20
aS'func_3'
p48
ag6
aS'variable_8'
p49
ag10
aS'variable_16'
p50
ag17
ag24
aS'variable_8'
p51
ag20
aS'func_4'
p52
ag6
aS'variable_15'
p53
ag10
aS'variable_17'
p54
ag10
aS'variable_1'
p55
ag10
aS'variable_2'
p56
ag10
aS'4'
p57
ag10
aS'variable_12'
p58
ag17
ag24
aS'variable_18'
p59
ag20
aS'func_5'
p60
ag6
aS'variable_8'
p61
ag10
aS'variable_19'
p62
ag17
ag24
aS'switch'
p63
ag6
aS'variable_14'
p64
aS'.'
p65
aS'variable_20'
p66
ag65
aS'variable_21'
p67
ag65
aS'variable_22'
p68
ag17
aS'variable_2'
p69
aS'+='
p70
aS'variable_13'
p71
ag24
aS'variable_8'
p72
ag20
aS'func_6'
p73
ag6
aS'variable_18'
p74
ag10
aS'variable_23'
p75
ag10
aS'variable_1'
p76
ag10
aS'variable_2'
p77
ag10
aS'func_7'
p78
ag6
aS'variable_10'
p79
ag29
aS'variable_2'
p80
ag10
aS'variable_24'
p81
ag17
ag10
aS'variable_12'
p82
ag17
ag24
aS'variable_25'
p83
ag20
aS'func_8'
p84
ag6
aS'variable_8'
p85
ag10
aS'variable_26'
p86
ag17
ag24
aS'func_9'
p87
ag6
aS'variable_25'
p88
ag10
aS'variable_27'
p89
ag10
aS'variable_1'
p90
ag10
aS'variable_2'
p91
ag10
ag57
ag10
aS'variable_28'
p92
ag17
ag24
aS'func_10'
p93
ag6
aS'variable_25'
p94
ag10
aS'variable_29'
p95
ag10
aS'variable_1'
p96
ag10
aS'variable_2'
p97
ag10
ag57
ag10
aS'variable_28'
p98
ag17
ag24
aS'func_11'
p99
ag6
aS'variable_25'
p100
ag10
aS'variable_30'
p101
ag10
aS'variable_1'
p102
ag10
aS'variable_2'
p103
ag10
ag57
ag10
aS'variable_28'
p104
ag17
ag24
aS'variable_8'
p105
ag20
aS'func_12'
p106
ag6
aS'variable_25'
p107
ag10
aS'variable_31'
p108
ag10
aS'variable_1'
p109
ag10
aS'variable_2'
p110
ag10
aS'16'
p111
ag8
aS'variable_32'
p112
ag10
aS'variable_12'
p113
ag17
ag24
aS'variable_33'
p114
ag20
aS'func_13'
p115
ag6
aS'variable_8'
p116
ag10
aS'variable_34'
p117
ag17
ag24
aS'func_14'
p118
ag6
aS'variable_33'
p119
ag10
aS'variable_35'
p120
aS'['
p121
aS'variable_36'
p122
aS']'
p123
ag10
aS'variable_1'
p124
ag10
aS'variable_2'
p125
aS'+'
p126
aS'variable_36'
p127
ag8
aS'variable_32'
p128
ag10
aS'variable_32'
p129
ag10
aS'variable_12'
p130
ag17
ag24
aS'variable_8'
p131
ag20
aS'func_15'
p132
ag6
aS'variable_25'
p133
ag10
aS'variable_37'
p134
ag10
aS'variable_1'
p135
ag10
aS'variable_2'
p136
ag10
ag57
ag8
aS'sizeof'
p137
ag6
aS'variable_38'
p138
ag17
ag10
aS'variable_12'
p139
ag17
ag24
aS'variable_39'
p140
ag20
aS'func_16'
p141
ag6
aS'variable_8'
p142
ag10
aS'variable_40'
p143
ag17
ag24
aS'func_17'
p144
ag6
aS'variable_39'
p145
ag10
aS'variable_41'
p146
ag121
aS'variable_36'
p147
ag123
ag10
aS'variable_1'
p148
ag10
aS'variable_2'
p149
ag126
aS'variable_36'
p150
ag8
aS'sizeof'
p151
ag6
aS'variable_38'
p152
ag17
ag10
aS'sizeof'
p153
ag6
aS'variable_38'
p154
ag17
ag10
aS'variable_12'
p155
ag17
ag24
aS'func_18'
p156
ag6
aS'variable_8'
p157
ag10
aS'"'
p158
ag29
aS'Invalid'
p159
aS'length'
p160
aS'!'
p161
ag158
ag17
ag24
aa(lp162
S'static'
p163
aS'void'
p164
aS'func_0'
p165
ag6
aS'variable_0'
p166
ag8
aS'variable_1'
p167
ag10
aS'gint'
p168
aS'variable_2'
p169
ag10
aS'variable_3'
p170
ag8
aS'variable_4'
p171
ag10
aS'variable_5'
p172
ag8
aS'variable_6'
p173
ag17
aS'variable_7'
p174
ag8
aS'variable_8'
p175
ag20
aS'NULL'
p176
ag10
ag8
aS'variable_9'
p177
ag20
aS'NULL'
p178
ag24
aS'guint'
p179
aS'variable_10'
p180
ag20
aS'func_1'
p181
ag6
aS'variable_1'
p182
ag17
ag29
aS'variable_2'
p183
ag24
aS'if'
p184
ag6
aS'variable_6'
p185
ag17
aS'variable_8'
p186
ag20
aS'func_2'
p187
ag6
aS'variable_6'
p188
ag10
aS'variable_11'
p189
ag10
aS'variable_1'
p190
ag10
aS'variable_2'
p191
ag10
aS'variable_10'
p192
ag10
aS'variable_12'
p193
ag17
ag24
aS'if'
p194
ag6
aS'variable_10'
p195
ag43
ag20
aS'variable_13'
p196
ag17
aS'ETHERCAT_EOE_HEADER'
p197
aS'variable_14'
p198
ag24
aS'variable_15'
p199
ag20
aS'func_3'
p200
ag6
aS'variable_8'
p201
ag10
aS'variable_16'
p202
ag17
ag24
aS'variable_8'
p203
ag20
aS'func_4'
p204
ag6
aS'variable_15'
p205
ag10
aS'variable_17'
p206
ag10
aS'variable_1'
p207
ag10
aS'variable_2'
p208
ag10
ag57
ag10
aS'variable_12'
p209
ag17
ag24
aS'variable_18'
p210
ag20
aS'func_5'
p211
ag6
aS'variable_8'
p212
ag10
aS'variable_19'
p213
ag17
ag24
aS'switch'
p214
ag6
aS'variable_14'
p215
ag65
aS'variable_20'
p216
ag65
aS'variable_21'
p217
ag65
aS'variable_22'
p218
ag17
aS'variable_2'
p219
aS'+='
p220
aS'variable_13'
p221
ag24
aS'variable_2'
p222
aS'+='
p223
aS'variable_13'
p224
ag24
aS'variable_8'
p225
ag20
aS'func_6'
p226
ag6
aS'variable_18'
p227
ag10
aS'variable_23'
p228
ag10
aS'variable_1'
p229
ag10
aS'variable_2'
p230
ag10
aS'func_7'
p231
ag6
aS'variable_10'
p232
ag29
aS'variable_2'
p233
ag10
aS'variable_24'
p234
ag17
ag10
aS'variable_12'
p235
ag17
ag24
aS'variable_25'
p236
ag20
aS'func_8'
p237
ag6
aS'variable_8'
p238
ag10
aS'variable_26'
p239
ag17
ag24
aS'func_9'
p240
ag6
aS'variable_25'
p241
ag10
aS'variable_27'
p242
ag10
aS'variable_1'
p243
ag10
aS'variable_2'
p244
ag10
ag57
ag10
aS'variable_28'
p245
ag17
ag24
aS'func_10'
p246
ag6
aS'variable_25'
p247
ag10
aS'variable_29'
p248
ag10
aS'variable_1'
p249
ag10
aS'variable_2'
p250
ag10
ag57
ag10
aS'variable_28'
p251
ag17
ag24
aS'func_11'
p252
ag6
aS'variable_25'
p253
ag10
aS'variable_30'
p254
ag10
aS'variable_1'
p255
ag10
aS'variable_2'
p256
ag10
ag57
ag10
aS'variable_28'
p257
ag17
ag24
aS'func_12'
p258
ag6
aS'variable_25'
p259
ag10
aS'variable_31'
p260
ag10
aS'variable_1'
p261
ag10
aS'variable_2'
p262
ag10
ag57
ag10
aS'variable_28'
p263
ag17
ag24
aS'func_13'
p264
ag6
aS'variable_25'
p265
ag10
aS'variable_32'
p266
ag10
aS'variable_1'
p267
ag10
aS'variable_2'
p268
ag10
ag57
ag10
aS'variable_28'
p269
ag17
ag24
aS'func_14'
p270
ag6
aS'variable_25'
p271
ag10
aS'variable_33'
p272
ag10
aS'variable_1'
p273
ag10
aS'variable_2'
p274
ag10
ag57
ag10
aS'variable_28'
p275
ag17
ag24
aS'func_15'
p276
ag6
aS'variable_25'
p277
ag10
aS'variable_34'
p278
ag10
aS'variable_1'
p279
ag10
aS'variable_2'
p280
ag10
ag57
ag10
aS'variable_28'
p281
ag17
ag24
aS'func_16'
p282
ag6
aS'variable_25'
p283
ag10
aS'variable_35'
p284
ag10
aS'variable_1'
p285
ag10
aS'variable_2'
p286
ag10
aS'variable_36'
p287
ag10
aS'variable_12'
p288
ag17
ag24
aS'func_17'
p289
ag6
aS'variable_25'
p290
ag10
aS'variable_37'
p291
ag10
aS'variable_1'
p292
ag10
aS'variable_2'
p293
ag10
ag57
ag10
aS'variable_28'
p294
ag17
ag24
aS'func_18'
p295
ag6
aS'variable_25'
p296
ag10
aS'variable_38'
p297
ag10
aS'variable_1'
p298
ag10
aS'variable_2'
p299
ag10
ag57
ag10
aS'variable_28'
p300
ag17
ag24
aS'func_19'
p301
ag6
aS'variable_25'
p302
ag10
aS'variable_39'
p303
ag10
aS'variable_1'
p304
ag10
aS'variable_2'
p305
ag10
ag57
ag10
aS'variable_28'
p306
ag17
ag24
aS'func_20'
p307
ag6
aS'variable_25'
p308
ag10
aS'variable_40'
p309
ag10
aS'variable_1'
p310
ag10
aS'variable_2'
p311
ag10
ag57
ag10
aS'variable_28'
p312
ag17
ag24
aS'func_21'
p313
ag6
aS'variable_25'
p314
ag10
aS'variable_41'
p315
ag10
aS'variable_1'
p316
ag10
aS'variable_2'
p317
ag10
aS'32'
p318
ag10
aS'variable_42'
p319
aS'|'
p320
aS'variable_12'
p321
ag17
ag24
aS'func_22'
p322
ag6
aS'variable_8'
p323
ag10
ag158
ag29
aS'Invalid'
p324
aS'length'
p325
ag161
ag158
ag17
ag24
aa(lp326
S'static'
p327
aS'void'
p328
aS'func_0'
p329
ag6
aS'variable_0'
p330
ag8
aS'variable_1'
p331
ag10
aS'gint'
p332
aS'variable_2'
p333
ag10
aS'variable_3'
p334
ag8
aS'variable_4'
p335
ag10
aS'variable_5'
p336
ag8
aS'variable_6'
p337
ag17
aS'variable_0'
p338
ag8
aS'variable_7'
p339
ag24
aS'guint'
p340
aS'variable_8'
p341
ag20
aS'func_1'
p342
ag6
aS'variable_1'
p343
ag17
ag29
aS'variable_2'
p344
ag24
aS'if'
p345
ag6
aS'variable_8'
p346
ag43
ag20
aS'variable_9'
p347
ag17
aS'ETHERCAT_EOE_HEADER'
p348
aS'variable_10'
p349
ag24
aS'switch'
p350
ag6
aS'variable_10'
p351
ag65
aS'variable_11'
p352
ag65
aS'variable_12'
p353
ag65
aS'variable_13'
p354
ag17
aS'variable_2'
p355
aS'+='
p356
aS'variable_9'
p357
ag24
aS'if'
p358
ag6
aS'variable_10'
p359
ag65
aS'variable_14'
p360
ag65
aS'variable_12'
p361
ag65
aS'variable_15'
p362
aS'=='
p363
aS'0'
p364
ag17
aS'variable_7'
p365
ag20
aS'func_2'
p366
ag6
aS'variable_1'
p367
ag10
aS'variable_2'
p368
ag10
aS'variable_8'
p369
ag29
aS'variable_2'
p370
ag10
aS'variable_8'
p371
ag29
aS'variable_2'
p372
ag17
ag24
aS'func_3'
p373
ag6
aS'variable_16'
p374
ag10
aS'variable_7'
p375
ag10
aS'variable_4'
p376
ag10
aS'variable_17'
p377
ag17
ag24
aaa(lp378
I0
aI0
aI0
aa(lp379
I138
aI142
aI83
aa(lp380
(lp381
S'main'
p382
aa(lp383
g382
aa(lp384
g382
aaa(lp385
S'10 ../data/NVD/CVE_2012_4293_VULN_dissect_ecat_eoe.c anItem = proto_tree_add_item ( ecat_fraghead_tree , hf_ecat_mailbox_eoe_macfilter , tvb , offset , MIN ( eoe_length - offset , ETHERCAT_EOE_MACFILTER_LEN ) , ENC_NA ) 134'
p386
aS'11 ../data/NVD/CVE_2012_4293_VULN_dissect_ecat_eoe.c anItem = proto_tree_add_item ( ecat_fraghead_tree , hf_ecat_mailbox_eoe_init , tvb , offset , MIN ( eoe_length - offset , ETHERCAT_EOE_INIT_LEN ) , ENC_NA ) 95'
p387
aS'12 ../data/NVD/CVE_2012_4293_VULN_dissect_ecat_eoe.c next_tvb = tvb_new_subset ( tvb , offset , eoe_length - offset , eoe_length - offset ) 79'
p388
aa.