(lp0
(lp1
(lp2
S'variable_0'
p3
aS':'
p4
ag4
aS'func_0'
p5
aS'('
p6
aS'const'
p7
aS'uint8_t'
p8
aS'*'
p9
aS'variable_1'
p10
aS')'
p11
aS'if'
p12
ag6
aS'!'
p13
aS'variable_2'
p14
aS'.'
p15
aS'variable_3'
p16
ag11
aS'uint32_t'
p17
aS'variable_4'
p18
aS'='
p19
aS'variable_2'
p20
ag15
aS'variable_5'
p21
aS';'
p22
aS'if'
p23
ag6
ag13
aS'variable_2'
p24
ag15
aS'variable_6'
p25
ag11
aS'variable_4'
p26
ag9
ag19
aS'sizeof'
p27
ag6
aS'variable_7'
p28
ag11
ag22
aS'variable_8'
p29
ag9
aS'variable_9'
p30
ag19
aS'variable_10'
p31
aS'+'
p32
ag6
aS'variable_4'
p33
ag9
aS'variable_2'
p34
ag15
aS'variable_11'
p35
ag11
ag32
aS'variable_2'
p36
ag15
aS'variable_5'
p37
ag22
aaa(lp38
I0
aa(lp39
I55
aa(lp40
(lp41
S'main'
p42
aaa(lp43
S'214 ../data/NVD/CVE_2013_0772_VULN_nsGIFDecoder2__DoLzw.c uint8_t * rowend = mImageData + ( bpr * mGIFStruct . irow ) + mGIFStruct . width ; 29'
p44
aa.