(lp0
(lp1
(lp2
S'static'
p3
aS'int'
p4
aS'func_0'
p5
aS'('
p6
aS'struct'
p7
aS'variable_0'
p8
aS'*'
p9
aS'variable_1'
p10
aS','
p11
aS'struct'
p12
aS'variable_2'
p13
ag9
aS'variable_3'
p14
aS')'
p15
aS'char'
p16
ag9
aS'variable_4'
p17
ag11
ag9
aS'variable_5'
p18
ag11
ag9
aS'variable_6'
p19
aS';'
p20
aS'char'
p21
aS'variable_7'
p22
aS'['
p23
aS'variable_8'
p24
aS']'
p25
ag20
aS'if'
p26
ag6
ag6
aS'variable_1'
p27
aS'->'
p28
aS'variable_9'
p29
ag23
aS'0'
p30
ag25
aS'!='
p31
aS"'"
p32
aS'#'
p33
ag32
ag15
aS'||'
p34
ag6
aS'variable_1'
p35
aS'->'
p36
aS'variable_9'
p37
ag23
aS'1'
p38
ag25
aS'!='
p39
ag32
aS'!'
p40
ag32
ag15
aS'||'
p41
ag6
aS'variable_1'
p42
aS'->'
p43
aS'variable_10'
p44
aS'>'
p45
aS'variable_11'
p46
ag15
ag15
aS'variable_1'
p47
aS'->'
p48
aS'variable_10'
p49
aS'++'
p50
ag20
aS'variable_1'
p51
aS'->'
p52
aS'variable_12'
p53
aS'='
p54
aS'NULL'
p55
ag20
aS'variable_1'
p56
aS'->'
p57
aS'variable_9'
p58
ag23
aS'variable_8'
p59
aS'-'
p60
ag38
ag25
ag54
ag32
aS'\\'
p61
ag30
ag32
ag20
aS'if'
p62
ag6
ag6
aS'variable_4'
p63
ag54
aS'strchr'
p64
ag6
aS'variable_1'
p65
aS'->'
p66
aS'variable_9'
p67
ag11
ag32
ag61
aS'n'
p68
ag32
ag15
ag15
aS'=='
p69
aS'NULL'
p70
ag15
aS'variable_4'
p71
ag54
aS'variable_1'
p72
aS'->'
p73
aS'variable_9'
p74
aS'+'
p75
aS'variable_8'
p76
ag60
ag38
ag20
ag9
aS'variable_4'
p77
ag54
ag32
ag61
ag30
ag32
ag20
aS'while'
p78
ag6
aS'variable_4'
p79
ag45
aS'variable_1'
p80
aS'->'
p81
aS'variable_9'
p82
ag15
aS'variable_4'
p83
aS'--'
p84
ag20
aS'if'
p85
ag6
ag6
ag9
aS'variable_4'
p86
aS'=='
p87
ag32
ag32
ag15
aS'||'
p88
ag6
ag9
aS'variable_4'
p89
aS'=='
p90
ag32
ag61
aS't'
p91
ag32
ag15
ag15
ag9
aS'variable_4'
p92
ag54
ag32
ag61
ag30
ag32
ag20
aS'for'
p93
ag6
aS'variable_4'
p94
ag54
aS'variable_1'
p95
aS'->'
p96
aS'variable_9'
p97
ag75
aS'2'
p98
ag20
ag6
ag9
aS'variable_4'
p99
aS'=='
p100
ag32
ag32
ag15
aS'||'
p101
ag6
ag9
aS'variable_4'
p102
aS'=='
p103
ag32
ag61
ag91
ag32
ag15
ag20
aS'variable_4'
p104
aS'++'
p105
ag15
ag20
aS'if'
p106
ag6
ag9
aS'variable_4'
p107
aS'=='
p108
ag32
ag61
ag30
ag32
ag15
aS'variable_5'
p109
ag54
aS'variable_4'
p110
ag20
aS'strcpy'
p111
ag6
aS'variable_7'
p112
ag11
aS'variable_5'
p113
ag15
ag20
aS'variable_1'
p114
aS'->'
p115
aS'variable_7'
p116
ag54
aS'variable_7'
p117
ag20
aS'variable_12'
p118
ag54
aS'func_1'
p119
ag6
aS'variable_7'
p120
ag15
ag20
aS'if'
p121
ag6
aS'func_2'
p122
ag6
aS'variable_12'
p123
ag15
ag15
aS'return'
p124
aS'func_3'
p125
ag6
aS'variable_12'
p126
ag15
ag20
aS'variable_1'
p127
aS'->'
p128
aS'variable_12'
p129
ag54
aS'variable_12'
p130
ag20
aS'variable_13'
p131
ag54
aS'func_4'
p132
ag6
aS'variable_1'
p133
ag15
ag20
aS'if'
p134
ag6
aS'variable_13'
p135
aS'<'
p136
ag30
ag15
aS'return'
p137
aS'variable_13'
p138
ag20
aS'return'
p139
aS'func_5'
p140
ag6
aS'variable_1'
p141
ag11
aS'variable_3'
p142
ag15
ag20
aaa(lp143
I0
aa(lp144
I214
aa(lp145
(lp146
S'main'
p147
aaa(lp148
S'155 ../data/NVD/CVE_2012_4530_VULN_load_script.c strcpy 43'
p149
aa.