(lp0
(lp1
(lp2
S'variable_0'
p3
aS':'
p4
ag4
aS'func_0'
p5
aS'('
p6
aS'variable_1'
p7
aS'&'
p8
aS'variable_2'
p9
aS','
p10
aS'variable_3'
p11
aS'*'
p12
aS'variable_4'
p13
ag8
aS'variable_5'
p14
ag8
aS'variable_6'
p15
aS')'
p16
aS'int32_t'
p17
aS'variable_7'
p18
aS'='
p19
aS'func_1'
p20
ag6
ag16
aS';'
p21
aS'if'
p22
ag6
aS'!'
p23
aS'variable_7'
p24
ag16
aS'const'
p25
aS'nsStyleText'
p26
ag12
aS'variable_8'
p27
ag19
aS'func_2'
p28
ag6
ag16
ag21
aS'bool'
p29
aS'variable_9'
p30
ag19
aS'variable_2'
p31
aS'.'
p32
aS'func_3'
p33
ag6
ag16
ag21
aS'const'
p34
aS'nsTextFragment'
p35
ag12
aS'variable_10'
p36
ag19
aS'variable_11'
p37
aS'->'
p38
aS'func_4'
p39
ag6
ag16
ag21
aS'int32_t'
p40
aS'variable_12'
p41
ag19
aS'variable_7'
p42
ag21
aS'int32_t'
p43
aS'variable_13'
p44
ag19
aS'func_5'
p45
ag6
ag16
ag21
aS'int32_t'
p46
aS'variable_14'
p47
ag19
aS'-'
p48
aS'1'
p49
ag21
aS'int32_t'
p50
aS'variable_15'
p51
ag19
ag48
ag49
ag21
aS'variable_16'
p52
ag12
aS'variable_17'
p53
ag19
aS'variable_18'
p54
ag21
aS'if'
p55
ag6
aS'variable_8'
p56
aS'->'
p57
aS'func_6'
p58
ag6
ag16
ag16
aS'variable_19'
p59
aS'<'
p60
aS'variable_16'
p61
ag12
aS'>'
p62
aS'variable_11'
p63
aS'->'
p64
aS'func_7'
p65
ag6
aS'variable_20'
p66
ag4
ag4
aS'variable_21'
p67
ag16
aS'if'
p68
ag6
aS'variable_17'
p69
aS'&&'
p70
aS'variable_17'
p71
aS'->'
p72
aS'variable_22'
p73
ag60
ag19
aS'variable_13'
p74
aS'&&'
p75
ag6
aS'variable_17'
p76
aS'->'
p77
aS'variable_23'
p78
aS'=='
p79
ag48
ag49
aS'||'
p80
aS'variable_17'
p81
aS'->'
p82
aS'variable_23'
p83
ag62
ag19
aS'variable_13'
p84
ag16
ag16
aS'variable_15'
p85
ag19
aS'variable_17'
p86
aS'->'
p87
aS'variable_23'
p88
ag21
aS'variable_15'
p89
ag19
aS'func_8'
p90
ag6
aS'variable_10'
p91
ag10
aS'variable_13'
p92
ag10
aS'variable_11'
p93
aS'->'
p94
aS'func_9'
p95
ag6
ag16
ag48
aS'variable_13'
p96
ag10
aS"'"
p97
aS'\\'
p98
aS'n'
p99
ag97
ag16
ag21
aS'if'
p100
ag6
aS'variable_15'
p101
ag60
aS'variable_13'
p102
aS'+'
p103
aS'variable_12'
p104
ag16
aS'variable_14'
p105
ag19
aS'variable_15'
p106
ag21
aS'if'
p107
ag6
aS'variable_14'
p108
ag62
ag19
aS'0'
p109
ag16
aS'variable_12'
p110
ag19
aS'variable_14'
p111
ag103
ag49
ag48
aS'variable_13'
p112
ag21
aS'if'
p113
ag6
ag6
aS'variable_9'
p114
aS'&&'
p115
ag23
aS'variable_8'
p116
aS'->'
p117
aS'func_10'
p118
ag6
ag16
ag16
aS'||'
p119
ag6
aS'func_11'
p120
ag6
ag16
ag8
aS'variable_24'
p121
ag16
ag16
aS'int32_t'
p122
aS'variable_25'
p123
ag19
aS'variable_14'
p124
ag62
ag19
ag109
aS'?'
p125
aS'variable_12'
p126
ag48
ag49
ag4
aS'variable_12'
p127
ag21
aS'int32_t'
p128
aS'variable_26'
p129
ag19
aS'func_12'
p130
ag6
aS'variable_10'
p131
ag10
aS'variable_13'
p132
ag10
aS'variable_25'
p133
ag10
ag49
ag16
ag21
aS'variable_13'
p134
aS'+='
p135
aS'variable_26'
p136
ag21
aS'variable_12'
p137
aS'-='
p138
aS'variable_26'
p139
ag21
aS'if'
p140
ag6
aS'variable_2'
p141
ag32
aS'func_13'
p142
ag6
ag16
aS'||'
p143
aS'variable_2'
p144
ag32
aS'func_14'
p145
ag6
ag16
ag16
aS'if'
p146
ag6
aS'variable_2'
p147
ag32
aS'func_15'
p148
ag6
ag16
ag16
aS'if'
p149
ag6
aS'variable_27'
p150
ag16
aS'int32_t'
p151
aS'variable_28'
p152
ag19
aS'variable_12'
p153
ag21
aS'if'
p154
ag6
aS'variable_2'
p155
ag32
aS'func_16'
p156
ag6
ag16
ag16
aS'if'
p157
ag6
aS'variable_14'
p158
ag62
ag19
ag109
ag16
aS'variable_28'
p159
ag19
aS'func_17'
p160
ag6
aS'variable_28'
p161
ag10
aS'variable_12'
p162
ag48
ag49
ag16
ag21
aS'variable_28'
p163
ag19
ag109
ag21
aS'variable_12'
p164
ag19
aS'variable_28'
p165
ag21
aS'if'
p166
ag6
ag23
aS'variable_27'
p167
ag16
aS'PropertyProvider'
p168
aS'func_18'
p169
ag6
aS'variable_27'
p170
ag10
aS'variable_8'
p171
ag10
aS'variable_10'
p172
ag10
aS'variable_29'
p173
ag10
aS'variable_30'
p174
ag10
aS'variable_12'
p175
ag10
aS'variable_31'
p176
ag10
aS'variable_32'
p177
ag10
aS'variable_33'
p178
ag4
ag4
aS'variable_34'
p179
ag16
ag21
aS'int32_t'
p180
aS'variable_35'
p181
ag19
aS'variable_12'
p182
ag21
aS'int32_t'
p183
aS'variable_36'
p184
ag19
aS'variable_2'
p185
ag32
aS'func_19'
p186
ag6
aS'variable_11'
p187
ag16
ag21
aS'if'
p188
ag6
aS'variable_36'
p189
ag62
ag19
aS'variable_13'
p190
ag103
aS'variable_12'
p191
ag16
aS'variable_36'
p192
ag19
ag48
ag49
ag21
aS'if'
p193
ag6
aS'variable_36'
p194
ag62
ag19
ag109
ag16
aS'variable_35'
p195
ag19
aS'variable_36'
p196
ag48
aS'variable_13'
p197
ag21
aS'gfxSkipCharsIterator'
p198
aS'end'
p199
ag6
aS'variable_37'
p200
ag32
aS'func_20'
p201
ag6
ag16
ag16
ag21
aS'int32_t'
p202
aS'variable_38'
p203
ag19
aS'variable_39'
p204
ag32
aS'func_21'
p205
ag6
ag16
ag48
aS'variable_13'
p206
ag21
aS'if'
p207
ag6
aS'variable_38'
p208
ag62
ag19
aS'variable_35'
p209
ag16
aS'variable_38'
p210
ag19
aS'variable_35'
p211
ag21
aS'int32_t'
p212
aS'variable_40'
p213
ag19
aS'variable_13'
p214
ag103
aS'variable_38'
p215
ag48
aS'func_22'
p216
ag6
ag16
ag21
aS'variable_6'
p217
ag19
aS'variable_40'
p218
aS'=='
p219
aS'variable_7'
p220
ag125
aS'variable_41'
p221
ag4
aS'variable_42'
p222
ag21
aS'if'
p223
ag6
aS'variable_40'
p224
ag62
ag109
aS'&&'
p225
aS'variable_43'
p226
ag103
aS'variable_40'
p227
ag48
ag49
aS'=='
p228
aS'variable_14'
p229
ag16
aS'variable_6'
p230
ag19
aS'func_23'
p231
ag6
aS'variable_6'
p232
ag16
ag21
aS'variable_6'
p233
ag19
aS'func_24'
p234
ag6
aS'variable_6'
p235
ag16
ag21
aS'variable_6'
p236
aS'|'
p237
ag19
aS'variable_44'
p238
ag21
aS'if'
p239
ag6
aS'variable_40'
p240
ag60
aS'variable_7'
p241
aS'&&'
p242
aS'variable_8'
p243
aS'->'
p244
aS'func_25'
p245
ag6
ag16
aS'&&'
p246
ag6
aS'variable_15'
p247
ag60
ag109
aS'||'
p248
aS'variable_43'
p249
ag103
aS'variable_40'
p250
ag60
ag19
aS'variable_15'
p251
ag16
ag16
aS'if'
p252
ag6
ag23
aS'variable_17'
p253
ag16
aS'variable_17'
p254
ag19
aS'func_26'
p255
ag6
aS'variable_40'
p256
ag10
ag8
aS'variable_2'
p257
ag10
aS'variable_45'
p258
ag16
ag21
aS'printf'
p259
ag6
aS'"'
p260
ag4
aS'desiredSize'
p261
ag19
aS'%'
p262
aS'd'
p263
ag10
ag262
ag263
ag6
aS'b'
p264
ag19
ag262
ag263
ag16
aS'status'
p265
ag19
ag262
aS'x'
p266
ag98
ag99
ag260
ag10
aS'variable_46'
p267
ag32
aS'variable_47'
p268
ag10
aS'variable_46'
p269
ag32
aS'variable_48'
p270
ag10
aS'variable_46'
p271
ag32
aS'variable_49'
p272
ag10
aS'variable_6'
p273
ag16
ag21
aaa(lp274
I0
aa(lp275
I420
aa(lp276
(lp277
S'main'
p278
aaa(lp279
S'210 ../data/NVD/CVE_2013_0771_VULN_nsTextFrame__ReflowText.c int32_t contentLength = offset + charsFit - GetContentOffset ( ) ; 362'
p280
aa.