(lp0
(lp1
(lp2
S'func_0'
p3
aS'('
p4
aS'DWORD'
p5
aS'variable_0'
p6
aS','
p7
aS'variable_1'
p8
aS'*'
p9
aS'variable_2'
p10
aS')'
p11
aS'if'
p12
ag4
aS'variable_0'
p13
aS'<'
p14
aS'3'
p15
ag11
aS'WCHAR'
p16
aS'variable_3'
p17
aS'['
p18
aS'variable_4'
p19
aS']'
p20
aS'='
p21
aS'variable_5'
p22
aS"'"
p23
aS'\\'
p24
aS'0'
p25
ag23
aS'if'
p26
ag4
aS'!'
p27
aS'func_1'
p28
ag4
aS'variable_0'
p29
ag7
aS'variable_2'
p30
ag7
aS'variable_3'
p31
ag11
ag11
aS'BOOL'
p32
aS'variable_6'
p33
ag21
aS'variable_7'
p34
aS';'
p35
aS'if'
p36
ag4
ag27
aS'func_2'
p37
ag4
aS'variable_2'
p38
ag18
ag25
ag20
ag7
aS'variable_6'
p39
ag11
aS'||'
p40
ag27
aS'variable_6'
p41
ag11
aS'nsAutoHandle'
p42
aS'func_3'
p43
ag4
aS'func_4'
p44
ag4
aS'variable_2'
p45
ag18
ag25
ag20
ag7
aS'variable_8'
p46
ag7
aS'variable_9'
p47
ag7
aS'NULL'
p48
ag7
aS'variable_10'
p49
ag7
ag25
ag7
aS'NULL'
p50
ag11
ag11
ag35
aS'if'
p51
ag4
aS'variable_11'
p52
aS'=='
p53
aS'variable_12'
p54
ag11
aS'WCHAR'
p55
aS'variable_13'
p56
ag18
aS'variable_4'
p57
aS'+'
p58
aS'1'
p59
ag20
ag21
aS'variable_5'
p60
ag23
ag24
ag25
ag23
aS'wcsncpy'
p61
ag4
aS'variable_13'
p62
ag7
aS'variable_3'
p63
ag7
aS'variable_4'
p64
ag11
ag35
aS'variable_14'
p65
ag21
aS'variable_7'
p66
ag35
aS'BOOL'
p67
aS'variable_15'
p68
ag35
aS'if'
p69
ag4
aS'variable_14'
p70
aS'&&'
p71
ag27
aS'func_5'
p72
ag4
aS'variable_2'
p73
ag18
ag25
ag20
ag7
aS'variable_13'
p74
ag7
aS'variable_15'
p75
ag11
ag11
aS'variable_14'
p76
ag21
aS'variable_7'
p77
ag35
aS'if'
p78
ag4
aS'variable_14'
p79
aS'&&'
p80
ag27
aS'variable_15'
p81
ag11
aS'variable_14'
p82
ag21
aS'variable_7'
p83
ag35
aS'if'
p84
ag4
aS'variable_14'
p85
ag11
aS'HMODULE'
p86
aS'variable_16'
p87
ag21
aS'LoadLibraryEx'
p88
ag4
aS'variable_2'
p89
ag18
ag25
ag20
ag7
aS'NULL'
p90
ag7
aS'variable_17'
p91
ag11
ag35
aS'if'
p92
ag4
ag27
aS'variable_16'
p93
ag11
aS'char'
p94
aS'variable_18'
p95
ag18
aS'64'
p96
ag20
ag35
aS'if'
p97
ag4
aS'strcmp'
p98
ag4
aS'variable_18'
p99
ag7
aS'variable_19'
p100
ag11
ag11
aaa(lp101
I0
aa(lp102
I182
aa(lp103
(lp104
S'main'
p105
aaa(lp106
S'151 ../data/NVD/CVE_2013_0799_VULN_ProcessSoftwareUpdateCommand.c strcmp 109'
p107
aa.