(lp0
(lp1
(lp2
S'static'
p3
aS'int'
p4
aS'func_0'
p5
aS'('
p6
aS'struct'
p7
aS'variable_0'
p8
aS'*'
p9
aS'variable_1'
p10
aS','
p11
aS'int'
p12
ag9
aS'variable_2'
p13
ag11
aS'int'
p14
aS'variable_3'
p15
aS')'
p16
aS'struct'
p17
aS'sockaddr_llc'
p18
aS'variable_4'
p19
aS';'
p20
aS'struct'
p21
aS'variable_1'
p22
ag9
aS'variable_5'
p23
aS'='
p24
aS'variable_1'
p25
aS'->'
p26
aS'variable_5'
p27
ag20
aS'struct'
p28
aS'variable_6'
p29
ag9
aS'variable_7'
p30
ag24
aS'func_1'
p31
ag6
aS'variable_5'
p32
ag16
ag20
aS'memset'
p33
ag6
aS'&'
p34
aS'variable_4'
p35
ag11
aS'0'
p36
ag11
aS'sizeof'
p37
ag6
aS'variable_4'
p38
ag16
ag16
ag20
aS'if'
p39
ag6
aS'func_2'
p40
ag6
aS'variable_5'
p41
ag11
aS'variable_8'
p42
ag16
ag16
aS'if'
p43
ag6
aS'variable_3'
p44
ag16
aS'if'
p45
ag6
aS'variable_5'
p46
aS'->'
p47
aS'variable_9'
p48
aS'!='
p49
aS'variable_10'
p50
ag16
aS'if'
p51
ag6
aS'variable_7'
p52
aS'->'
p53
aS'variable_11'
p54
ag16
aS'variable_4'
p55
aS'.'
p56
aS'variable_12'
p57
ag24
aS'variable_7'
p58
aS'->'
p59
aS'variable_11'
p60
aS'->'
p61
aS'variable_13'
p62
ag20
aS'variable_4'
p63
ag56
aS'variable_14'
p64
ag24
aS'variable_7'
p65
aS'->'
p66
aS'variable_15'
p67
ag56
aS'variable_16'
p68
ag20
aS'if'
p69
ag6
aS'!'
p70
aS'variable_7'
p71
aS'->'
p72
aS'variable_17'
p73
ag16
aS'variable_4'
p74
ag56
aS'variable_14'
p75
ag24
aS'variable_7'
p76
aS'->'
p77
aS'variable_17'
p78
aS'->'
p79
aS'variable_18'
p80
ag56
aS'variable_16'
p81
ag20
aS'if'
p82
ag6
aS'variable_7'
p83
aS'->'
p84
aS'variable_11'
p85
ag16
aS'variable_4'
p86
ag56
aS'variable_12'
p87
ag24
aS'variable_7'
p88
aS'->'
p89
aS'variable_11'
p90
aS'->'
p91
aS'variable_13'
p92
ag20
aS'memcpy'
p93
ag6
ag34
aS'variable_4'
p94
ag56
aS'variable_19'
p95
ag11
aS'variable_7'
p96
aS'->'
p97
aS'variable_11'
p98
aS'->'
p99
aS'variable_20'
p100
ag11
aS'variable_21'
p101
ag16
ag20
aS'variable_4'
p102
ag56
aS'variable_22'
p103
ag24
aS'variable_23'
p104
ag20
aS'memcpy'
p105
ag6
aS'variable_24'
p106
ag11
ag34
aS'variable_4'
p107
ag11
aS'sizeof'
p108
ag6
aS'variable_4'
p109
ag16
ag16
ag20
aa(lp110
S'static'
p111
aS'int'
p112
aS'func_0'
p113
ag6
aS'struct'
p114
aS'variable_0'
p115
ag9
aS'variable_1'
p116
ag11
aS'int'
p117
ag9
aS'variable_2'
p118
ag11
aS'int'
p119
aS'variable_3'
p120
ag16
aS'struct'
p121
aS'sockaddr_llc'
p122
aS'variable_4'
p123
ag20
aS'struct'
p124
aS'variable_1'
p125
ag9
aS'variable_5'
p126
ag24
aS'variable_1'
p127
aS'->'
p128
aS'variable_5'
p129
ag20
aS'struct'
p130
aS'variable_6'
p131
ag9
aS'variable_7'
p132
ag24
aS'func_1'
p133
ag6
aS'variable_5'
p134
ag16
ag20
aS'if'
p135
ag6
aS'func_2'
p136
ag6
aS'variable_5'
p137
ag11
aS'variable_8'
p138
ag16
ag16
aS'if'
p139
ag6
aS'variable_3'
p140
ag16
aS'if'
p141
ag6
ag70
aS'variable_7'
p142
aS'->'
p143
aS'variable_9'
p144
ag16
aS'variable_4'
p145
ag56
aS'variable_10'
p146
ag24
aS'variable_7'
p147
aS'->'
p148
aS'variable_9'
p149
aS'->'
p150
aS'variable_11'
p151
ag56
aS'variable_12'
p152
ag20
aS'if'
p153
ag6
aS'variable_7'
p154
aS'->'
p155
aS'variable_13'
p156
ag16
aS'variable_4'
p157
ag56
aS'variable_14'
p158
ag24
aS'variable_7'
p159
aS'->'
p160
aS'variable_13'
p161
aS'->'
p162
aS'variable_15'
p163
ag20
aS'memcpy'
p164
ag6
ag34
aS'variable_4'
p165
ag56
aS'variable_16'
p166
ag11
aS'variable_7'
p167
aS'->'
p168
aS'variable_13'
p169
aS'->'
p170
aS'variable_17'
p171
ag11
aS'variable_18'
p172
ag16
ag20
aS'variable_4'
p173
ag56
aS'variable_19'
p174
ag24
aS'variable_20'
p175
ag20
aS'memcpy'
p176
ag6
aS'variable_21'
p177
ag11
ag34
aS'variable_4'
p178
ag11
aS'sizeof'
p179
ag6
aS'variable_4'
p180
ag16
ag16
ag20
aa(lp181
S'static'
p182
aS'int'
p183
aS'func_0'
p184
ag6
aS'struct'
p185
aS'variable_0'
p186
ag9
aS'variable_1'
p187
ag11
aS'int'
p188
ag9
aS'variable_2'
p189
ag11
aS'int'
p190
aS'variable_3'
p191
ag16
aS'struct'
p192
aS'sockaddr_llc'
p193
aS'variable_4'
p194
ag20
aS'struct'
p195
aS'variable_1'
p196
ag9
aS'variable_5'
p197
ag24
aS'variable_1'
p198
aS'->'
p199
aS'variable_5'
p200
ag20
aS'struct'
p201
aS'variable_6'
p202
ag9
aS'variable_7'
p203
ag24
aS'func_1'
p204
ag6
aS'variable_5'
p205
ag16
ag20
aS'memset'
p206
ag6
ag34
aS'variable_4'
p207
ag11
ag36
ag11
aS'sizeof'
p208
ag6
aS'variable_4'
p209
ag16
ag16
ag20
aS'if'
p210
ag6
aS'func_2'
p211
ag6
aS'variable_5'
p212
ag11
aS'variable_8'
p213
ag16
ag16
aS'if'
p214
ag6
aS'variable_3'
p215
ag16
aS'if'
p216
ag6
aS'variable_5'
p217
aS'->'
p218
aS'variable_9'
p219
aS'!='
p220
aS'variable_10'
p221
ag16
aS'if'
p222
ag6
aS'variable_7'
p223
aS'->'
p224
aS'variable_11'
p225
ag16
aS'variable_4'
p226
ag56
aS'variable_12'
p227
ag24
aS'variable_7'
p228
aS'->'
p229
aS'variable_11'
p230
aS'->'
p231
aS'variable_13'
p232
ag20
aS'variable_4'
p233
ag56
aS'variable_14'
p234
ag24
aS'variable_7'
p235
aS'->'
p236
aS'variable_15'
p237
ag56
aS'variable_16'
p238
ag20
aS'memcpy'
p239
ag6
ag34
aS'variable_4'
p240
ag56
aS'variable_17'
p241
ag11
ag34
aS'variable_7'
p242
aS'->'
p243
aS'variable_15'
p244
ag56
aS'variable_18'
p245
ag11
aS'variable_19'
p246
ag16
ag20
aaa(lp247
I0
aI0
aI0
aa(lp248
I157
aI88
aI100
aa(lp249
(lp250
S'main'
p251
aa(lp252
g251
aa(lp253
g251
aaa(lp254
S'86 ../data/NVD/CVE_2012_6542_PATCHED_llc_ui_getname.c memcpy 36'
p255
aS'87 ../data/NVD/CVE_2012_6542_PATCHED_llc_ui_getname.c memcpy 30'
p256
aS'88 ../data/NVD/CVE_2012_6542_PATCHED_llc_ui_getname.c memcpy 21'
p257
aa.