(lp0
(lp1
(lp2
S'func_0'
p3
aS'('
p4
aS'variable_0'
p5
aS'*'
p6
aS'variable_1'
p7
aS','
p8
aS'variable_2'
p9
ag6
aS'variable_3'
p10
ag8
aS'guint'
p11
aS'variable_4'
p12
ag8
aS'variable_5'
p13
ag6
aS'variable_6'
p14
ag8
aS'int'
p15
aS'variable_7'
p16
ag8
aS'int'
p17
aS'variable_8'
p18
aS')'
p19
aS'gint32'
p20
aS'variable_9'
p21
aS';'
p22
aS'guint'
p23
aS'variable_10'
p24
ag22
aS'variable_9'
p25
aS'='
p26
aS'func_1'
p27
ag4
aS'variable_1'
p28
ag8
aS'variable_4'
p29
ag19
ag22
aS'if'
p30
ag4
aS'variable_9'
p31
aS'=='
p32
aS'5'
p33
ag19
aS'variable_10'
p34
ag26
aS'variable_4'
p35
aS'+'
p36
aS'variable_9'
p37
ag22
aS'while'
p38
ag4
aS'variable_4'
p39
aS'<'
p40
aS'variable_10'
p41
aS'-'
p42
aS'1'
p43
ag19
aaa(lp44
I0
aa(lp45
I48
aa(lp46
(lp47
S'main'
p48
aaa(lp49
S'3 ../data/NVD/CVE_2012_4287_PATCHED_dissect_bson_document.c final_offset = offset + document_length 38'
p50
aa.