(lp0
(lp1
(lp2
S'func_0'
p3
aS'('
p4
aS'variable_0'
p5
aS'*'
p6
aS'variable_1'
p7
aS','
p8
aS'variable_2'
p9
ag6
aS'variable_3'
p10
ag8
aS'variable_4'
p11
ag6
aS'variable_5'
p12
ag8
aS'guint'
p13
aS'variable_6'
p14
ag8
aS'guint8'
p15
aS'variable_7'
p16
ag8
aS'const'
p17
aS'char'
p18
ag6
aS'variable_8'
p19
ag8
aS'guint32'
p20
aS'variable_9'
p21
ag8
aS'variable_10'
p22
ag6
aS'variable_11'
p23
ag8
aS'variable_12'
p24
ag6
aS'variable_13'
p25
aS')'
p26
aS'guint'
p27
aS'variable_14'
p28
aS'='
p29
aS'variable_6'
p30
aS'+'
p31
aS'func_1'
p32
ag4
aS'variable_1'
p33
ag8
aS'variable_6'
p34
ag26
aS';'
p35
aS'variable_6'
p36
ag29
aS'func_2'
p37
ag4
aS'variable_15'
p38
ag8
aS'variable_1'
p39
ag8
aS'variable_6'
p40
ag8
aS'variable_9'
p41
ag8
aS'variable_14'
p42
ag8
aS'variable_16'
p43
ag26
ag35
aS'variable_6'
p44
ag29
aS'func_3'
p45
ag4
aS'variable_15'
p46
ag8
aS'variable_1'
p47
ag8
aS'variable_6'
p48
ag8
aS'variable_9'
p49
ag8
aS'variable_14'
p50
ag8
aS'variable_16'
p51
ag26
ag35
aS'variable_6'
p52
ag29
aS'func_4'
p53
ag4
aS'variable_15'
p54
ag8
aS'variable_1'
p55
ag8
aS'variable_6'
p56
ag8
aS'variable_9'
p57
ag8
aS'variable_14'
p58
ag8
aS'variable_17'
p59
ag26
ag35
aS'variable_18'
p60
ag29
aS'variable_6'
p61
aS'-'
p62
aS'variable_19'
p63
ag35
aS'variable_6'
p64
ag29
aS'func_5'
p65
ag4
aS'variable_3'
p66
ag8
aS'variable_15'
p67
ag8
aS'variable_1'
p68
ag8
aS'variable_6'
p69
ag8
aS'variable_9'
p70
ag8
aS'variable_14'
p71
ag8
aS'variable_20'
p72
ag26
ag35
aS'variable_6'
p73
ag29
aS'func_6'
p74
ag4
aS'variable_3'
p75
ag8
aS'variable_15'
p76
ag8
aS'variable_1'
p77
ag8
aS'variable_6'
p78
ag8
aS'variable_9'
p79
ag8
aS'variable_14'
p80
ag8
aS'variable_20'
p81
ag26
ag35
aS'variable_6'
p82
ag29
aS'func_7'
p83
ag4
aS'variable_3'
p84
ag8
aS'variable_15'
p85
ag8
aS'variable_1'
p86
ag8
aS'variable_6'
p87
ag8
aS'variable_9'
p88
ag8
aS'variable_14'
p89
ag8
aS'variable_21'
p90
ag26
ag35
aS'variable_6'
p91
ag29
aS'func_8'
p92
ag4
aS'variable_3'
p93
ag8
aS'variable_15'
p94
ag8
aS'variable_1'
p95
ag8
aS'variable_6'
p96
ag8
aS'variable_9'
p97
ag8
aS'variable_14'
p98
ag8
aS'variable_21'
p99
ag26
ag35
aS'if'
p100
ag4
ag4
aS'variable_14'
p101
ag62
aS'variable_6'
p102
ag26
aS'>'
p103
aS'0'
p104
ag26
aS'func_9'
p105
ag4
aS'variable_15'
p106
ag8
aS'variable_22'
p107
ag8
aS'variable_1'
p108
ag8
aS'variable_6'
p109
ag8
aS'variable_14'
p110
ag62
aS'variable_6'
p111
ag8
aS'variable_23'
p112
ag26
ag35
aS'variable_6'
p113
ag29
aS'variable_14'
p114
ag35
aS'variable_6'
p115
ag29
aS'func_10'
p116
ag4
aS'variable_15'
p117
ag8
aS'variable_1'
p118
ag8
aS'variable_6'
p119
ag8
aS'variable_9'
p120
ag8
aS'variable_14'
p121
ag8
aS'variable_24'
p122
ag26
ag35
aS'func_11'
p123
ag4
aS'variable_15'
p124
ag8
aS'variable_6'
p125
ag62
aS'variable_25'
p126
ag26
ag35
aS'if'
p127
ag4
aS'variable_18'
p128
ag26
aS'if'
p129
ag4
aS'variable_26'
p130
ag103
ag4
aS'int'
p131
ag26
aS'variable_18'
p132
ag26
aS'variable_26'
p133
ag29
aS'variable_18'
p134
ag35
aS'if'
p135
ag4
aS'variable_27'
p136
ag103
ag4
aS'int'
p137
ag26
aS'variable_18'
p138
ag26
aS'variable_27'
p139
ag29
aS'variable_18'
p140
ag35
aS'variable_28'
p141
ag29
aS'func_12'
p142
ag4
aS'variable_1'
p143
ag8
aS'variable_19'
p144
ag8
aS'variable_26'
p145
ag8
aS'variable_27'
p146
ag26
ag35
aS'func_13'
p147
ag4
aS'variable_28'
p148
ag8
aS'variable_3'
p149
ag8
aS'variable_5'
p150
ag8
aS'variable_21'
p151
ag8
aS'&'
p152
aS'variable_29'
p153
aS'->'
p154
aS'variable_30'
p155
ag8
aS'variable_31'
p156
ag8
ag104
ag26
ag35
aS'if'
p157
ag4
ag4
aS'variable_14'
p158
ag62
aS'variable_6'
p159
ag26
ag103
ag29
aS'2'
p160
ag26
aS'int'
p161
aS'variable_32'
p162
ag29
aS'func_14'
p163
ag4
aS'variable_1'
p164
ag8
aS'variable_6'
p165
ag26
ag35
aS'func_15'
p166
ag4
aS'variable_15'
p167
ag8
aS'variable_33'
p168
ag8
aS'variable_1'
p169
ag8
aS'variable_6'
p170
ag8
ag160
ag8
aS'variable_34'
p171
ag26
ag35
aS'variable_6'
p172
aS'+='
p173
ag160
ag35
aS'if'
p174
ag4
aS'variable_32'
p175
ag103
ag104
ag26
aS'variable_26'
p176
ag29
aS'func_16'
p177
ag4
aS'variable_1'
p178
ag8
aS'variable_6'
p179
ag26
ag35
aS'if'
p180
ag4
aS'variable_26'
p181
ag103
aS'variable_32'
p182
ag26
aS'variable_26'
p183
ag29
aS'variable_32'
p184
ag35
aS'variable_27'
p185
ag29
aS'func_17'
p186
ag4
aS'variable_1'
p187
ag8
aS'variable_6'
p188
ag26
ag35
aS'if'
p189
ag4
aS'variable_27'
p190
ag103
aS'variable_32'
p191
ag26
aS'variable_27'
p192
ag29
aS'variable_32'
p193
ag35
aS'variable_28'
p194
ag29
aS'func_18'
p195
ag4
aS'variable_1'
p196
ag8
aS'variable_6'
p197
ag8
aS'variable_26'
p198
ag8
aS'variable_27'
p199
ag26
ag35
aS'func_19'
p200
ag4
aS'variable_28'
p201
ag8
aS'variable_3'
p202
ag8
aS'variable_5'
p203
ag8
ag104
ag8
aS'variable_26'
p204
ag8
ag152
aS'variable_29'
p205
aS'->'
p206
aS'variable_30'
p207
ag8
aS'variable_31'
p208
ag26
ag35
aS'variable_26'
p209
ag29
aS'func_20'
p210
ag4
aS'variable_1'
p211
ag8
aS'variable_6'
p212
ag26
ag35
aS'if'
p213
ag4
aS'variable_26'
p214
ag103
ag4
aS'int'
p215
ag26
aS'variable_9'
p216
ag26
aS'variable_27'
p217
ag29
aS'func_21'
p218
ag4
aS'variable_1'
p219
ag8
aS'variable_6'
p220
ag26
ag35
aS'if'
p221
ag4
aS'variable_27'
p222
ag103
ag4
aS'int'
p223
ag26
aS'variable_9'
p224
ag26
aS'variable_28'
p225
ag29
aS'func_22'
p226
ag4
aS'variable_1'
p227
ag8
aS'variable_6'
p228
ag8
aS'variable_26'
p229
ag8
aS'variable_27'
p230
ag26
ag35
aS'func_23'
p231
ag4
aS'variable_28'
p232
ag8
aS'variable_3'
p233
ag8
aS'variable_5'
p234
ag8
ag4
aS'variable_7'
p235
aS'=='
p236
aS'variable_35'
p237
ag26
ag8
ag152
aS'variable_29'
p238
aS'->'
p239
aS'variable_30'
p240
ag8
aS'variable_31'
p241
ag8
aS'variable_36'
p242
ag26
ag35
aaa(lp243
I0
aa(lp244
I47
aa(lp245
(lp246
S'main'
p247
aaa(lp248
S'200 ../data/NVD/CVE_2012_6060_PATCHED_dissect_iscsi_pdu.c guint end_offset = offset + tvb_length_remaining ( tvb , offset ) ; 9'
p249
aa.