(lp0
(lp1
(lp2
S'func_0'
p3
aS'('
p4
aS'variable_0'
p5
aS'*'
p6
aS'variable_1'
p7
aS','
p8
aS'variable_2'
p9
ag6
aS'variable_3'
p10
ag8
aS'int'
p11
aS'variable_4'
p12
ag8
aS'unsigned'
p13
aS'int'
p14
aS'variable_5'
p15
ag8
aS'unsigned'
p16
aS'int'
p17
aS'variable_6'
p18
ag8
aS'guint32'
p19
aS'variable_7'
p20
aS')'
p21
aS'unsigned'
p22
aS'int'
p23
aS'variable_8'
p24
aS';'
p25
aS'char'
p26
aS'variable_9'
p27
aS'['
p28
aS'5'
p29
aS']'
p30
ag25
aS'guint'
p31
aS'variable_10'
p32
ag25
aS'guint'
p33
aS'variable_11'
p34
ag25
aS'static'
p35
aS'const'
p36
aS'char'
p37
aS'variable_12'
p38
ag28
ag30
aS'='
p39
aS'"'
p40
aS'PoC1'
p41
ag40
ag25
aS'variable_4'
p42
aS'+='
p43
aS'4'
p44
ag25
aS'variable_6'
p45
aS'-='
p46
ag44
ag25
aS'for'
p47
ag4
aS'variable_8'
p48
ag39
aS'0'
p49
ag25
aS'variable_8'
p50
aS'<'
p51
ag44
ag25
aS'variable_8'
p52
aS'++'
p53
ag21
aS'variable_9'
p54
ag28
aS'variable_8'
p55
ag30
ag39
aS'func_1'
p56
ag4
aS'variable_1'
p57
ag8
aS'variable_4'
p58
aS'+'
p59
aS'variable_8'
p60
ag21
ag25
aS'variable_9'
p61
ag28
ag44
ag30
ag39
aS"'"
p62
aS'\\'
p63
ag49
ag62
ag25
aS'if'
p64
ag4
aS'func_2'
p65
ag4
aS'variable_9'
p66
ag8
aS'variable_12'
p67
ag8
ag44
ag21
aS'=='
p68
ag49
ag21
aS'guint8'
p69
aS'variable_13'
p70
ag8
aS'variable_14'
p71
ag25
aS'variable_4'
p72
aS'+='
p73
ag44
ag25
aS'variable_6'
p74
aS'-='
p75
ag44
ag25
aS'if'
p76
ag4
aS'variable_6'
p77
aS'=='
p78
ag49
ag21
aS'if'
p79
ag4
aS'variable_5'
p80
ag21
aS'variable_6'
p81
aS'-='
p82
aS'func_3'
p83
ag4
aS'variable_1'
p84
ag8
aS'variable_4'
p85
ag59
aS'variable_6'
p86
aS'-'
p87
aS'1'
p88
ag21
ag25
aS'switch'
p89
ag4
aS'variable_15'
p90
ag21
aS'guint8'
p91
aS'variable_16'
p92
ag25
aS'if'
p93
ag4
aS'func_4'
p94
ag4
aS'variable_1'
p95
ag8
aS'variable_4'
p96
ag21
aS'=='
p97
ag49
ag21
aS'variable_16'
p98
ag39
aS'func_5'
p99
ag4
aS'variable_1'
p100
ag8
aS'variable_4'
p101
ag21
ag25
aS'variable_4'
p102
aS'+='
p103
ag88
ag25
aS'variable_6'
p104
aS'-='
p105
ag88
ag25
aS'if'
p106
ag4
aS'variable_16'
p107
aS'=='
p108
aS'102'
p109
ag21
aS'variable_11'
p110
ag39
aS'func_6'
p111
ag4
aS'variable_1'
p112
ag8
aS'variable_4'
p113
ag21
ag25
aS'variable_4'
p114
aS'+='
p115
ag88
ag25
aS'variable_6'
p116
aS'-='
p117
ag88
ag25
aS'if'
p118
ag4
aS'variable_11'
p119
aS'!='
p120
aS'2'
p121
ag21
aS'variable_4'
p122
aS'+='
p123
ag121
ag25
aS'variable_6'
p124
aS'-='
p125
ag121
ag25
aS'if'
p126
ag4
aS'func_7'
p127
ag4
aS'variable_1'
p128
ag8
aS'variable_4'
p129
ag21
aS'=='
p130
ag49
ag21
aS'variable_16'
p131
ag39
aS'func_8'
p132
ag4
aS'variable_1'
p133
ag8
aS'variable_4'
p134
ag21
ag25
aS'variable_4'
p135
aS'+='
p136
ag88
ag25
aS'variable_6'
p137
aS'-='
p138
ag88
ag25
aS'if'
p139
ag4
aS'variable_16'
p140
aS'=='
p141
aS'103'
p142
ag21
aS'variable_11'
p143
ag39
aS'func_9'
p144
ag4
aS'variable_1'
p145
ag8
aS'variable_4'
p146
ag21
ag25
aS'variable_4'
p147
aS'+='
p148
ag88
ag25
aS'variable_6'
p149
aS'-='
p150
ag88
ag25
aS'if'
p151
ag4
aS'variable_11'
p152
aS'!='
p153
aS'8'
p154
ag21
aS'variable_4'
p155
aS'+='
p156
ag154
ag25
aS'variable_6'
p157
aS'-='
p158
ag154
ag25
aS'variable_13'
p159
ag39
aS'func_10'
p160
ag4
aS'variable_1'
p161
ag8
aS'variable_4'
p162
ag21
ag25
aS'variable_4'
p163
aS'+='
p164
ag88
ag25
aS'variable_6'
p165
aS'-='
p166
ag88
ag25
aS'if'
p167
ag4
aS'variable_13'
p168
aS'!='
p169
aS'101'
p170
ag21
aS'variable_11'
p171
ag39
aS'func_11'
p172
ag4
aS'variable_1'
p173
ag8
aS'variable_4'
p174
ag21
ag25
aS'variable_4'
p175
aS'+='
p176
ag88
ag25
aS'variable_6'
p177
aS'-='
p178
ag88
ag25
aS'if'
p179
ag4
aS'variable_11'
p180
aS'!='
p181
ag121
ag21
aS'variable_4'
p182
aS'+='
p183
aS'variable_11'
p184
ag25
aS'variable_6'
p185
aS'-='
p186
aS'variable_11'
p187
ag25
aS'if'
p188
ag4
aS'func_12'
p189
ag4
aS'variable_1'
p190
ag8
aS'variable_4'
p191
ag21
aS'=='
p192
ag49
ag21
aS'variable_14'
p193
ag39
aS'func_13'
p194
ag4
aS'variable_1'
p195
ag8
aS'variable_4'
p196
ag21
ag25
aS'variable_4'
p197
aS'+='
p198
ag88
ag25
aS'variable_6'
p199
aS'-='
p200
ag88
ag25
aS'if'
p201
ag4
aS'variable_14'
p202
aS'!='
p203
aS'100'
p204
ag21
aS'variable_11'
p205
ag39
aS'func_14'
p206
ag4
aS'variable_1'
p207
ag8
aS'variable_4'
p208
ag21
ag25
aS'variable_4'
p209
aS'+='
p210
ag88
ag25
aS'variable_6'
p211
aS'-='
p212
ag88
ag25
aS'if'
p213
ag4
aS'variable_11'
p214
aS'!='
p215
ag121
ag21
aS'variable_4'
p216
aS'+='
p217
aS'variable_11'
p218
ag25
aS'variable_6'
p219
aS'-='
p220
aS'variable_11'
p221
ag25
aS'variable_4'
p222
aS'+='
p223
ag44
ag25
aS'variable_6'
p224
aS'-='
p225
ag44
ag25
aS'variable_10'
p226
ag39
aS'func_15'
p227
ag4
aS'variable_1'
p228
ag8
aS'variable_4'
p229
ag21
ag25
aS'variable_4'
p230
aS'++'
p231
ag25
aS'variable_6'
p232
aS'--'
p233
ag25
aS'if'
p234
ag4
aS'variable_10'
p235
aS'!='
p236
aS'variable_17'
p237
ag21
aS'variable_11'
p238
ag39
aS'func_16'
p239
ag4
aS'variable_1'
p240
ag8
aS'variable_4'
p241
ag21
ag25
aS'variable_4'
p242
aS'++'
p243
ag25
aS'variable_4'
p244
aS'+='
p245
aS'variable_11'
p246
ag25
aS'variable_6'
p247
ag39
aS'variable_6'
p248
ag87
aS'variable_11'
p249
ag87
ag88
ag25
aS'if'
p250
ag4
aS'variable_6'
p251
aS'=='
p252
ag49
ag21
aS'variable_10'
p253
ag39
aS'func_17'
p254
ag4
aS'variable_1'
p255
ag8
aS'variable_4'
p256
ag21
ag25
aS'if'
p257
ag4
aS'variable_10'
p258
aS'=='
p259
aS'variable_18'
p260
ag21
aS'variable_4'
p261
aS'++'
p262
ag25
aS'variable_6'
p263
aS'--'
p264
ag25
aS'variable_11'
p265
ag39
aS'func_18'
p266
ag4
aS'variable_1'
p267
ag8
aS'variable_4'
p268
ag21
ag25
aS'variable_6'
p269
ag39
aS'variable_6'
p270
ag87
aS'variable_11'
p271
ag87
ag88
ag25
aS'if'
p272
ag4
aS'variable_6'
p273
aS'=='
p274
ag49
ag21
aS'variable_6'
p275
aS'-='
p276
aS'variable_19'
p277
ag25
aS'variable_6'
p278
aS'-='
p279
ag88
ag25
aS'variable_6'
p280
aS'-='
p281
ag88
ag25
aS'variable_6'
p282
aS'-='
p283
aS'variable_11'
p284
ag25
aS'variable_6'
p285
aS'--'
p286
ag25
aS'variable_6'
p287
aS'-='
p288
ag4
aS'variable_11'
p289
ag59
ag88
ag21
ag25
aS'variable_6'
p290
aS'-='
p291
ag44
ag25
aS'variable_6'
p292
aS'-='
p293
ag44
ag25
aS'variable_6'
p294
aS'-='
p295
ag44
ag25
aS'variable_6'
p296
aS'-='
p297
ag44
ag25
aS'variable_6'
p298
aS'-='
p299
ag44
ag25
aS'variable_6'
p300
aS'-='
p301
ag4
aS'variable_20'
p302
ag59
ag121
ag21
ag25
aS'variable_4'
p303
aS'+='
p304
aS'variable_6'
p305
ag25
aS'return'
p306
aS'variable_4'
p307
ag25
aS'variable_4'
p308
aS'+='
p309
ag44
ag25
aS'variable_6'
p310
aS'-='
p311
aS'func_19'
p312
ag4
aS'variable_1'
p313
ag8
aS'variable_4'
p314
ag59
aS'variable_6'
p315
ag87
ag88
ag21
ag25
aS'if'
p316
ag4
aS'variable_6'
p317
aS'=='
p318
ag44
ag21
aS'variable_21'
p319
ag6
aS'variable_22'
p320
ag39
aS'func_20'
p321
ag4
aS'variable_23'
p322
ag8
aS'variable_24'
p323
ag8
aS'variable_1'
p324
ag8
aS'variable_4'
p325
ag8
aS'variable_6'
p326
ag8
aS'variable_25'
p327
ag21
ag25
aS'variable_26'
p328
ag6
aS'variable_27'
p329
ag39
aS'func_21'
p330
ag4
aS'variable_22'
p331
ag8
aS'variable_28'
p332
ag21
ag25
aS'func_22'
p333
ag4
aS'variable_27'
p334
ag8
aS'variable_29'
p335
ag8
aS'variable_1'
p336
ag8
aS'variable_4'
p337
ag8
ag88
ag8
aS'variable_30'
p338
ag21
ag25
aS'func_23'
p339
ag4
aS'variable_27'
p340
ag8
aS'variable_31'
p341
ag8
aS'variable_1'
p342
ag8
aS'variable_4'
p343
ag8
ag88
ag8
aS'variable_30'
p344
ag21
ag25
aS'func_24'
p345
ag4
aS'variable_27'
p346
ag8
aS'variable_32'
p347
ag8
aS'variable_1'
p348
ag8
aS'variable_4'
p349
ag8
ag88
ag8
aS'variable_30'
p350
ag21
ag25
aS'variable_33'
p351
ag39
aS'func_25'
p352
ag4
aS'variable_1'
p353
ag8
aS'variable_4'
p354
ag59
ag121
ag21
ag25
aS'func_26'
p355
ag4
aS'variable_27'
p356
ag8
aS'variable_34'
p357
ag8
aS'variable_1'
p358
ag8
aS'variable_4'
p359
ag59
ag121
ag8
ag121
ag8
aS'variable_33'
p360
ag6
ag121
ag21
ag25
aS'func_27'
p361
ag4
aS'variable_23'
p362
ag8
aS'variable_35'
p363
ag8
aS'variable_1'
p364
ag8
aS'variable_4'
p365
ag8
aS'variable_6'
p366
ag8
aS'variable_25'
p367
ag21
ag25
aS'variable_4'
p368
aS'+='
p369
aS'variable_6'
p370
ag25
aS'return'
p371
aS'variable_4'
p372
ag25
aa(lp373
S'func_0'
p374
ag4
aS'variable_0'
p375
ag6
aS'variable_1'
p376
ag8
aS'variable_2'
p377
ag6
aS'variable_3'
p378
ag8
aS'int'
p379
aS'variable_4'
p380
ag8
aS'unsigned'
p381
aS'int'
p382
aS'variable_5'
p383
ag8
aS'unsigned'
p384
aS'int'
p385
aS'variable_6'
p386
ag8
aS'guint32'
p387
aS'variable_7'
p388
ag21
aS'unsigned'
p389
aS'int'
p390
aS'variable_8'
p391
ag25
aS'char'
p392
aS'variable_9'
p393
ag28
ag29
ag30
ag25
aS'guint'
p394
aS'variable_10'
p395
ag25
aS'guint'
p396
aS'variable_11'
p397
ag25
aS'static'
p398
aS'const'
p399
aS'char'
p400
aS'variable_12'
p401
ag28
ag30
ag39
ag40
aS'PoC1'
p402
ag40
ag25
aS'variable_4'
p403
aS'+='
p404
ag44
ag25
aS'variable_6'
p405
aS'-='
p406
ag44
ag25
aS'for'
p407
ag4
aS'variable_8'
p408
ag39
ag49
ag25
aS'variable_8'
p409
ag51
ag44
ag25
aS'variable_8'
p410
aS'++'
p411
ag21
aS'variable_9'
p412
ag28
aS'variable_8'
p413
ag30
ag39
aS'func_1'
p414
ag4
aS'variable_1'
p415
ag8
aS'variable_4'
p416
ag59
aS'variable_8'
p417
ag21
ag25
aS'variable_9'
p418
ag28
ag44
ag30
ag39
ag62
ag63
ag49
ag62
ag25
aS'if'
p419
ag4
aS'func_2'
p420
ag4
aS'variable_9'
p421
ag8
aS'variable_12'
p422
ag8
ag44
ag21
aS'=='
p423
ag49
ag21
aS'guint8'
p424
aS'variable_13'
p425
ag8
aS'variable_14'
p426
ag25
aS'variable_4'
p427
aS'+='
p428
ag44
ag25
aS'variable_6'
p429
aS'-='
p430
ag44
ag25
aS'if'
p431
ag4
aS'variable_6'
p432
aS'=='
p433
ag49
ag21
aS'if'
p434
ag4
aS'variable_5'
p435
ag21
aS'variable_6'
p436
aS'-='
p437
aS'func_3'
p438
ag4
aS'variable_1'
p439
ag8
aS'variable_4'
p440
ag59
aS'variable_6'
p441
ag87
ag88
ag21
ag25
aS'switch'
p442
ag4
aS'variable_15'
p443
ag21
aS'guint8'
p444
aS'variable_16'
p445
ag25
aS'if'
p446
ag4
aS'func_4'
p447
ag4
aS'variable_1'
p448
ag8
aS'variable_4'
p449
ag21
aS'=='
p450
ag49
ag21
aS'variable_16'
p451
ag39
aS'func_5'
p452
ag4
aS'variable_1'
p453
ag8
aS'variable_4'
p454
ag21
ag25
aS'variable_4'
p455
aS'+='
p456
ag88
ag25
aS'variable_6'
p457
aS'-='
p458
ag88
ag25
aS'if'
p459
ag4
aS'variable_16'
p460
aS'=='
p461
aS'102'
p462
ag21
aS'variable_11'
p463
ag39
aS'func_6'
p464
ag4
aS'variable_1'
p465
ag8
aS'variable_4'
p466
ag21
ag25
aS'variable_4'
p467
aS'+='
p468
ag88
ag25
aS'variable_6'
p469
aS'-='
p470
ag88
ag25
aS'if'
p471
ag4
aS'variable_11'
p472
aS'!='
p473
ag121
ag21
aS'variable_4'
p474
aS'+='
p475
ag121
ag25
aS'variable_6'
p476
aS'-='
p477
ag121
ag25
aS'if'
p478
ag4
aS'func_7'
p479
ag4
aS'variable_1'
p480
ag8
aS'variable_4'
p481
ag21
aS'=='
p482
ag49
ag21
aS'variable_16'
p483
ag39
aS'func_8'
p484
ag4
aS'variable_1'
p485
ag8
aS'variable_4'
p486
ag21
ag25
aS'variable_4'
p487
aS'+='
p488
ag88
ag25
aS'variable_6'
p489
aS'-='
p490
ag88
ag25
aS'if'
p491
ag4
aS'variable_16'
p492
aS'=='
p493
aS'103'
p494
ag21
aS'variable_11'
p495
ag39
aS'func_9'
p496
ag4
aS'variable_1'
p497
ag8
aS'variable_4'
p498
ag21
ag25
aS'variable_4'
p499
aS'+='
p500
ag88
ag25
aS'variable_6'
p501
aS'-='
p502
ag88
ag25
aS'if'
p503
ag4
aS'variable_11'
p504
aS'!='
p505
ag154
ag21
aS'variable_4'
p506
aS'+='
p507
ag154
ag25
aS'variable_6'
p508
aS'-='
p509
ag154
ag25
aS'variable_13'
p510
ag39
aS'func_10'
p511
ag4
aS'variable_1'
p512
ag8
aS'variable_4'
p513
ag21
ag25
aS'variable_4'
p514
aS'+='
p515
ag88
ag25
aS'variable_6'
p516
aS'-='
p517
ag88
ag25
aS'if'
p518
ag4
aS'variable_13'
p519
aS'!='
p520
aS'101'
p521
ag21
aS'variable_11'
p522
ag39
aS'func_11'
p523
ag4
aS'variable_1'
p524
ag8
aS'variable_4'
p525
ag21
ag25
aS'variable_4'
p526
aS'+='
p527
ag88
ag25
aS'variable_6'
p528
aS'-='
p529
ag88
ag25
aS'if'
p530
ag4
aS'variable_11'
p531
aS'!='
p532
ag121
ag21
aS'variable_4'
p533
aS'+='
p534
aS'variable_11'
p535
ag25
aS'variable_6'
p536
aS'-='
p537
aS'variable_11'
p538
ag25
aS'if'
p539
ag4
aS'func_12'
p540
ag4
aS'variable_1'
p541
ag8
aS'variable_4'
p542
ag21
aS'=='
p543
ag49
ag21
aS'variable_14'
p544
ag39
aS'func_13'
p545
ag4
aS'variable_1'
p546
ag8
aS'variable_4'
p547
ag21
ag25
aS'variable_4'
p548
aS'+='
p549
ag88
ag25
aS'variable_6'
p550
aS'-='
p551
ag88
ag25
aS'if'
p552
ag4
aS'variable_14'
p553
aS'!='
p554
aS'100'
p555
ag21
aS'variable_11'
p556
ag39
aS'func_14'
p557
ag4
aS'variable_1'
p558
ag8
aS'variable_4'
p559
ag21
ag25
aS'variable_4'
p560
aS'+='
p561
ag88
ag25
aS'variable_6'
p562
aS'-='
p563
ag88
ag25
aS'if'
p564
ag4
aS'variable_11'
p565
aS'!='
p566
ag121
ag21
aS'variable_4'
p567
aS'+='
p568
aS'variable_11'
p569
ag25
aS'variable_6'
p570
aS'-='
p571
aS'variable_11'
p572
ag25
aS'variable_4'
p573
aS'+='
p574
ag44
ag25
aS'variable_6'
p575
aS'-='
p576
ag44
ag25
aS'variable_10'
p577
ag39
aS'func_15'
p578
ag4
aS'variable_1'
p579
ag8
aS'variable_4'
p580
ag21
ag25
aS'variable_4'
p581
aS'++'
p582
ag25
aS'variable_6'
p583
aS'--'
p584
ag25
aS'if'
p585
ag4
aS'variable_10'
p586
aS'!='
p587
aS'variable_17'
p588
ag21
aS'variable_11'
p589
ag39
aS'func_16'
p590
ag4
aS'variable_1'
p591
ag8
aS'variable_4'
p592
ag21
ag25
aS'variable_6'
p593
ag39
aS'variable_6'
p594
ag87
aS'variable_11'
p595
ag87
ag88
ag25
aS'if'
p596
ag4
aS'variable_6'
p597
aS'=='
p598
ag49
ag21
aS'variable_6'
p599
aS'--'
p600
ag25
aS'variable_6'
p601
ag39
aS'variable_6'
p602
ag87
aS'variable_11'
p603
ag87
ag88
ag25
aS'if'
p604
ag4
aS'variable_6'
p605
aS'=='
p606
ag49
ag21
aS'variable_6'
p607
aS'-='
p608
aS'variable_18'
p609
ag25
aS'variable_6'
p610
aS'-='
p611
ag88
ag25
aS'variable_6'
p612
aS'-='
p613
ag88
ag25
aS'variable_6'
p614
aS'-='
p615
aS'variable_11'
p616
ag25
aS'variable_6'
p617
aS'--'
p618
ag25
aS'variable_6'
p619
aS'-='
p620
ag4
aS'variable_11'
p621
ag59
ag88
ag21
ag25
aS'variable_6'
p622
aS'-='
p623
ag44
ag25
aS'variable_6'
p624
aS'-='
p625
ag44
ag25
aS'variable_6'
p626
aS'-='
p627
ag44
ag25
aS'variable_6'
p628
aS'-='
p629
ag44
ag25
aS'variable_6'
p630
aS'-='
p631
ag44
ag25
aS'variable_6'
p632
aS'-='
p633
ag4
aS'variable_19'
p634
ag59
ag121
ag21
ag25
aS'variable_4'
p635
aS'+='
p636
aS'variable_6'
p637
ag25
aS'return'
p638
aS'variable_4'
p639
ag25
aS'variable_4'
p640
aS'+='
p641
ag44
ag25
aS'variable_6'
p642
aS'-='
p643
aS'func_17'
p644
ag4
aS'variable_1'
p645
ag8
aS'variable_4'
p646
ag59
aS'variable_6'
p647
ag87
ag88
ag21
ag25
aS'if'
p648
ag4
aS'variable_6'
p649
aS'=='
p650
ag44
ag21
aS'variable_20'
p651
ag6
aS'variable_21'
p652
ag39
aS'func_18'
p653
ag4
aS'variable_22'
p654
ag8
aS'variable_23'
p655
ag8
aS'variable_1'
p656
ag8
aS'variable_4'
p657
ag8
aS'variable_6'
p658
ag8
aS'variable_24'
p659
ag21
ag25
aS'variable_25'
p660
ag6
aS'variable_26'
p661
ag39
aS'func_19'
p662
ag4
aS'variable_21'
p663
ag8
aS'variable_27'
p664
ag21
ag25
aS'func_20'
p665
ag4
aS'variable_26'
p666
ag8
aS'variable_28'
p667
ag8
aS'variable_1'
p668
ag8
aS'variable_4'
p669
ag8
ag88
ag8
aS'variable_29'
p670
ag21
ag25
aS'func_21'
p671
ag4
aS'variable_26'
p672
ag8
aS'variable_30'
p673
ag8
aS'variable_1'
p674
ag8
aS'variable_4'
p675
ag8
ag88
ag8
aS'variable_29'
p676
ag21
ag25
aS'func_22'
p677
ag4
aS'variable_26'
p678
ag8
aS'variable_31'
p679
ag8
aS'variable_1'
p680
ag8
aS'variable_4'
p681
ag8
ag88
ag8
aS'variable_29'
p682
ag21
ag25
aS'variable_32'
p683
ag39
aS'func_23'
p684
ag4
aS'variable_1'
p685
ag8
aS'variable_4'
p686
ag59
ag121
ag21
ag25
aS'func_24'
p687
ag4
aS'variable_26'
p688
ag8
aS'variable_33'
p689
ag8
aS'variable_1'
p690
ag8
aS'variable_4'
p691
ag59
ag121
ag8
ag121
ag8
aS'variable_32'
p692
ag6
ag121
ag21
ag25
aS'func_25'
p693
ag4
aS'variable_22'
p694
ag8
aS'variable_34'
p695
ag8
aS'variable_1'
p696
ag8
aS'variable_4'
p697
ag8
aS'variable_6'
p698
ag8
aS'variable_24'
p699
ag21
ag25
aS'variable_4'
p700
aS'+='
p701
aS'variable_6'
p702
ag25
aS'return'
p703
aS'variable_4'
p704
ag25
aaa(lp705
I0
aI0
aa(lp706
I496
aI445
aa(lp707
(lp708
S'main'
p709
aa(lp710
g709
aaa(lp711
S'91 ../data/NVD/CVE_2012_6062_VULN_dissect_rtcp_app.c packet_len = packet_len - item_len - 1 277'
p712
aS'92 ../data/NVD/CVE_2012_6062_VULN_dissect_rtcp_app.c packet_len = packet_len - item_len - 1 246'
p713
aa.