(lp0
(lp1
(lp2
S'func_0'
p3
aS'('
p4
aS'variable_0'
p5
aS'*'
p6
aS'variable_1'
p7
aS','
p8
aS'variable_2'
p9
ag6
aS'variable_3'
p10
ag8
aS'variable_4'
p11
ag6
aS'variable_5'
p12
ag8
aS'variable_6'
p13
ag6
aS'variable_7'
p14
ag8
aS'variable_6'
p15
ag6
aS'variable_8'
p16
ag8
aS'variable_9'
p17
ag6
aS'variable_10'
p18
aS')'
p19
aS'guint16'
p20
aS'variable_11'
p21
ag8
aS'variable_12'
p22
aS';'
p23
aS'gint'
p24
aS'variable_13'
p25
ag8
aS'variable_14'
p26
ag23
aS'variable_11'
p27
aS'='
p28
aS'func_1'
p29
ag4
aS'variable_3'
p30
ag8
aS'variable_15'
p31
ag19
ag23
aS'variable_14'
p32
ag28
aS'variable_16'
p33
aS'+'
p34
aS'variable_11'
p35
ag6
aS'variable_17'
p36
ag23
aS'func_2'
p37
ag4
aS'variable_5'
p38
ag8
aS'variable_18'
p39
ag8
aS'variable_3'
p40
ag8
aS'variable_14'
p41
ag8
aS'variable_19'
p42
ag8
aS'variable_20'
p43
ag19
ag23
aS'variable_14'
p44
aS'+='
p45
aS'variable_19'
p46
ag23
aa(lp47
S'func_0'
p48
ag4
aS'variable_0'
p49
ag6
aS'variable_1'
p50
ag8
aS'variable_2'
p51
ag6
aS'variable_3'
p52
ag8
aS'variable_4'
p53
ag6
aS'variable_5'
p54
ag8
aS'variable_6'
p55
ag6
aS'variable_7'
p56
ag8
aS'variable_6'
p57
ag6
aS'variable_8'
p58
ag8
aS'variable_9'
p59
ag6
aS'variable_10'
p60
ag19
aS'guint16'
p61
aS'variable_11'
p62
ag8
aS'variable_12'
p63
ag23
aS'guint16'
p64
aS'variable_13'
p65
ag8
aS'variable_14'
p66
ag8
aS'variable_15'
p67
ag8
aS'variable_16'
p68
ag23
aS'gint'
p69
aS'variable_17'
p70
ag8
aS'variable_18'
p71
ag23
aS'guint32'
p72
aS'variable_19'
p73
ag23
aS'variable_6'
p74
ag6
aS'variable_20'
p75
ag23
aS'variable_4'
p76
ag6
aS'variable_21'
p77
ag23
aS'variable_11'
p78
ag28
aS'func_1'
p79
ag4
aS'variable_3'
p80
ag8
aS'variable_22'
p81
ag19
ag23
aS'variable_17'
p82
ag28
aS'variable_23'
p83
ag23
aS'variable_19'
p84
ag28
aS'func_2'
p85
ag4
aS'variable_3'
p86
ag8
aS'variable_24'
p87
ag19
ag23
aS'for'
p88
ag4
aS'variable_13'
p89
ag28
aS'1'
p90
ag23
aS'variable_13'
p91
aS'<'
p92
ag28
aS'variable_11'
p93
ag23
aS'variable_13'
p94
aS'++'
p95
ag19
aS'variable_6'
p96
ag6
aS'variable_25'
p97
ag23
aS'variable_4'
p98
ag6
aS'variable_26'
p99
ag23
aS'variable_15'
p100
ag28
aS'func_3'
p101
ag4
aS'variable_3'
p102
ag8
aS'variable_17'
p103
ag19
ag23
aS'variable_16'
p104
ag28
aS'func_4'
p105
ag4
aS'variable_3'
p106
ag8
aS'variable_17'
p107
ag34
aS'variable_27'
p108
ag19
ag23
aS'variable_20'
p109
ag28
aS'func_5'
p110
ag4
aS'variable_5'
p111
ag8
aS'variable_3'
p112
ag8
aS'variable_17'
p113
ag8
aS'variable_28'
p114
ag8
aS'"'
p115
aS'Gap'
p116
aS'Acknowledgement'
p117
aS'for'
p118
aS'TSN'
p119
aS'%'
p120
aS'u'
p121
aS'to'
p122
ag120
ag121
ag115
ag8
aS'variable_19'
p123
ag34
aS'variable_15'
p124
ag8
aS'variable_19'
p125
ag34
aS'variable_16'
p126
ag19
ag23
aS'variable_21'
p127
ag28
aS'func_6'
p128
ag4
aS'variable_20'
p129
ag8
aS'variable_29'
p130
ag19
ag23
aS'variable_25'
p131
ag28
aS'func_7'
p132
ag4
aS'variable_21'
p133
ag8
aS'variable_30'
p134
ag8
aS'variable_3'
p135
ag8
aS'variable_17'
p136
ag8
aS'variable_27'
p137
ag8
aS'variable_31'
p138
ag19
ag23
aS'variable_26'
p139
ag28
aS'func_8'
p140
ag4
aS'variable_25'
p141
ag8
aS'variable_32'
p142
ag19
ag23
aS'variable_25'
p143
ag28
aS'func_9'
p144
ag4
aS'variable_26'
p145
ag8
aS'variable_33'
p146
ag8
aS'variable_3'
p147
ag8
aS'variable_17'
p148
ag8
aS'variable_27'
p149
ag8
aS'variable_19'
p150
ag34
aS'variable_15'
p151
ag19
ag23
aS'variable_25'
p152
ag28
aS'func_10'
p153
ag4
aS'variable_21'
p154
ag8
aS'variable_34'
p155
ag8
aS'variable_3'
p156
ag8
aS'variable_17'
p157
ag34
aS'variable_27'
p158
ag8
aS'variable_35'
p159
ag8
aS'variable_31'
p160
ag19
ag23
aS'variable_26'
p161
ag28
aS'func_11'
p162
ag4
aS'variable_25'
p163
ag8
aS'variable_36'
p164
ag19
ag23
aS'variable_25'
p165
ag28
aS'func_12'
p166
ag4
aS'variable_26'
p167
ag8
aS'variable_37'
p168
ag8
aS'variable_3'
p169
ag8
aS'variable_17'
p170
ag34
aS'variable_27'
p171
ag8
aS'variable_35'
p172
ag8
aS'variable_19'
p173
ag34
aS'variable_16'
p174
ag19
ag23
aS'func_13'
p175
ag4
aS'variable_25'
p176
ag19
ag23
aS'variable_17'
p177
aS'+='
p178
aS'variable_28'
p179
ag23
aS'func_14'
p180
ag4
aS'variable_1'
p181
ag8
aS'variable_25'
p182
ag8
aS'variable_38'
p183
ag8
aS'variable_39'
p184
ag8
ag115
aS'Malformed'
p185
aS'gap'
p186
aS'block'
p187
ag115
ag19
ag23
aS'func_15'
p188
ag4
aS'variable_1'
p189
ag8
aS'variable_25'
p190
ag8
aS'variable_38'
p191
ag8
aS'variable_40'
p192
ag8
ag115
aS'Gap'
p193
aS'blocks'
p194
aS'not'
p195
aS'in'
p196
aS'strict'
p197
aS'order'
p198
ag115
ag19
ag23
aS'func_16'
p199
ag4
aS'variable_25'
p200
ag19
ag23
aS'func_17'
p201
ag4
aS'variable_1'
p202
ag8
aS'variable_25'
p203
ag8
aS'variable_41'
p204
ag8
aS'variable_40'
p205
ag8
ag115
aS'More'
p206
aS'than'
p207
aS'100'
p208
aS'TSNs'
p209
aS'were'
p210
aS'gap'
p211
aS'-'
p212
aS'acknowledged'
p213
aS'in'
p214
aS'this'
p215
aS'SACK'
p216
ag115
ag19
ag23
aa(lp217
S'func_0'
p218
ag4
aS'variable_0'
p219
ag6
aS'variable_1'
p220
ag8
aS'variable_2'
p221
ag6
aS'variable_3'
p222
ag8
aS'variable_4'
p223
ag6
aS'variable_5'
p224
ag8
aS'variable_6'
p225
ag6
aS'variable_7'
p226
ag8
aS'variable_6'
p227
ag6
aS'variable_8'
p228
ag8
aS'variable_9'
p229
ag6
aS'variable_10'
p230
ag19
aS'guint16'
p231
aS'variable_11'
p232
ag8
aS'variable_12'
p233
ag23
aS'guint16'
p234
aS'variable_13'
p235
ag8
aS'variable_14'
p236
ag8
aS'variable_15'
p237
ag8
aS'variable_16'
p238
ag23
aS'gint'
p239
aS'variable_17'
p240
ag8
aS'variable_18'
p241
ag23
aS'guint32'
p242
aS'variable_19'
p243
ag23
aS'variable_6'
p244
ag6
aS'variable_20'
p245
ag23
aS'variable_4'
p246
ag6
aS'variable_21'
p247
ag23
aS'variable_11'
p248
ag28
aS'func_1'
p249
ag4
aS'variable_3'
p250
ag8
aS'variable_22'
p251
ag19
ag23
aS'variable_17'
p252
ag28
aS'variable_23'
p253
ag23
aS'variable_19'
p254
ag28
aS'func_2'
p255
ag4
aS'variable_3'
p256
ag8
aS'variable_24'
p257
ag19
ag23
aS'for'
p258
ag4
aS'variable_13'
p259
ag28
ag90
ag23
aS'variable_13'
p260
ag92
ag28
aS'variable_11'
p261
ag23
aS'variable_13'
p262
aS'++'
p263
ag19
aS'variable_6'
p264
ag6
aS'variable_25'
p265
ag23
aS'variable_15'
p266
ag28
aS'func_3'
p267
ag4
aS'variable_3'
p268
ag8
aS'variable_17'
p269
ag19
ag23
aS'variable_16'
p270
ag28
aS'func_4'
p271
ag4
aS'variable_3'
p272
ag8
aS'variable_17'
p273
ag34
aS'variable_26'
p274
ag19
ag23
aS'variable_20'
p275
ag28
aS'func_5'
p276
ag4
aS'variable_5'
p277
ag8
aS'variable_3'
p278
ag8
aS'variable_17'
p279
ag8
aS'variable_27'
p280
ag8
ag115
aS'Gap'
p281
aS'Acknowledgement'
p282
aS'for'
p283
aS'TSN'
p284
ag120
ag121
aS'to'
p285
ag120
ag121
ag115
ag8
aS'variable_19'
p286
ag34
aS'variable_15'
p287
ag8
aS'variable_19'
p288
ag34
aS'variable_16'
p289
ag19
ag23
aS'variable_21'
p290
ag28
aS'func_6'
p291
ag4
aS'variable_20'
p292
ag8
aS'variable_28'
p293
ag19
ag23
aS'variable_25'
p294
ag28
aS'func_7'
p295
ag4
aS'variable_21'
p296
ag8
aS'variable_29'
p297
ag8
aS'variable_3'
p298
ag8
aS'variable_17'
p299
ag34
aS'variable_26'
p300
ag8
aS'variable_30'
p301
ag8
aS'variable_31'
p302
ag19
ag23
aS'variable_32'
p303
ag28
aS'func_8'
p304
ag4
aS'variable_25'
p305
ag8
aS'variable_33'
p306
ag19
ag23
aS'variable_25'
p307
ag28
aS'func_9'
p308
ag4
aS'variable_32'
p309
ag8
aS'variable_34'
p310
ag8
aS'variable_3'
p311
ag8
aS'variable_17'
p312
ag34
aS'variable_26'
p313
ag8
aS'variable_30'
p314
ag8
aS'variable_19'
p315
ag34
aS'variable_16'
p316
ag19
ag23
aS'func_10'
p317
ag4
aS'variable_25'
p318
ag19
ag23
aS'variable_17'
p319
aS'+='
p320
aS'variable_27'
p321
ag23
aS'func_11'
p322
ag4
aS'variable_1'
p323
ag8
aS'variable_25'
p324
ag8
aS'variable_35'
p325
ag8
aS'variable_36'
p326
ag8
ag115
aS'Malformed'
p327
aS'gap'
p328
aS'block'
p329
ag115
ag19
ag23
aS'func_12'
p330
ag4
aS'variable_1'
p331
ag8
aS'variable_25'
p332
ag8
aS'variable_35'
p333
ag8
aS'variable_37'
p334
ag8
ag115
aS'Gap'
p335
aS'blocks'
p336
aS'not'
p337
aS'in'
p338
aS'strict'
p339
aS'order'
p340
ag115
ag19
ag23
aS'func_13'
p341
ag4
aS'variable_25'
p342
ag19
ag23
aS'func_14'
p343
ag4
aS'variable_1'
p344
ag8
aS'variable_25'
p345
ag8
aS'variable_38'
p346
ag8
aS'variable_37'
p347
ag8
ag115
aS'More'
p348
aS'than'
p349
aS'100'
p350
aS'TSNs'
p351
aS'were'
p352
aS'gap'
p353
ag212
aS'acknowledged'
p354
aS'in'
p355
aS'this'
p356
aS'SACK'
p357
ag115
ag19
ag23
aa(lp358
S'func_0'
p359
ag4
aS'variable_0'
p360
ag6
aS'variable_1'
p361
ag8
aS'variable_2'
p362
ag6
aS'variable_3'
p363
ag8
aS'variable_4'
p364
ag6
aS'variable_5'
p365
ag8
aS'variable_6'
p366
ag6
aS'variable_7'
p367
ag8
aS'variable_6'
p368
ag6
aS'variable_8'
p369
ag8
aS'variable_9'
p370
ag6
aS'variable_10'
p371
ag19
aS'guint16'
p372
aS'variable_11'
p373
ag8
aS'variable_12'
p374
ag23
aS'guint16'
p375
aS'variable_13'
p376
ag8
aS'variable_14'
p377
ag8
aS'variable_15'
p378
ag8
aS'variable_16'
p379
ag23
aS'gint'
p380
aS'variable_17'
p381
ag8
aS'variable_18'
p382
ag23
aS'guint32'
p383
aS'variable_19'
p384
ag23
aS'variable_6'
p385
ag6
aS'variable_20'
p386
ag23
aS'variable_4'
p387
ag6
aS'variable_21'
p388
ag23
aS'variable_11'
p389
ag28
aS'func_1'
p390
ag4
aS'variable_3'
p391
ag8
aS'variable_22'
p392
ag19
ag23
aS'variable_17'
p393
ag28
aS'variable_23'
p394
ag23
aS'variable_19'
p395
ag28
aS'func_2'
p396
ag4
aS'variable_3'
p397
ag8
aS'variable_24'
p398
ag19
ag23
aS'for'
p399
ag4
aS'variable_13'
p400
ag28
ag90
ag23
aS'variable_13'
p401
ag92
ag28
aS'variable_11'
p402
ag23
aS'variable_13'
p403
aS'++'
p404
ag19
aS'variable_6'
p405
ag6
aS'variable_25'
p406
ag23
aS'variable_4'
p407
ag6
aS'variable_26'
p408
ag23
aS'variable_15'
p409
ag28
aS'func_3'
p410
ag4
aS'variable_3'
p411
ag8
aS'variable_17'
p412
ag19
ag23
aS'variable_16'
p413
ag28
aS'func_4'
p414
ag4
aS'variable_3'
p415
ag8
aS'variable_17'
p416
ag34
aS'variable_27'
p417
ag19
ag23
aS'variable_20'
p418
ag28
aS'func_5'
p419
ag4
aS'variable_5'
p420
ag8
aS'variable_3'
p421
ag8
aS'variable_17'
p422
ag8
aS'variable_28'
p423
ag8
ag115
aS'Gap'
p424
aS'Acknowledgement'
p425
aS'for'
p426
aS'TSN'
p427
ag120
ag121
aS'to'
p428
ag120
ag121
ag115
ag8
aS'variable_19'
p429
ag34
aS'variable_15'
p430
ag8
aS'variable_19'
p431
ag34
aS'variable_16'
p432
ag19
ag23
aS'variable_21'
p433
ag28
aS'func_6'
p434
ag4
aS'variable_20'
p435
ag8
aS'variable_29'
p436
ag19
ag23
aS'variable_25'
p437
ag28
aS'func_7'
p438
ag4
aS'variable_21'
p439
ag8
aS'variable_30'
p440
ag8
aS'variable_3'
p441
ag8
aS'variable_17'
p442
ag8
aS'variable_27'
p443
ag8
aS'variable_31'
p444
ag19
ag23
aS'variable_26'
p445
ag28
aS'func_8'
p446
ag4
aS'variable_25'
p447
ag8
aS'variable_32'
p448
ag19
ag23
aS'variable_25'
p449
ag28
aS'func_9'
p450
ag4
aS'variable_26'
p451
ag8
aS'variable_33'
p452
ag8
aS'variable_3'
p453
ag8
aS'variable_17'
p454
ag8
aS'variable_27'
p455
ag8
aS'variable_19'
p456
ag34
aS'variable_15'
p457
ag19
ag23
aS'func_10'
p458
ag4
aS'variable_25'
p459
ag19
ag23
aS'variable_26'
p460
ag28
aS'func_11'
p461
ag4
aS'variable_25'
p462
ag8
aS'variable_34'
p463
ag19
ag23
aS'variable_25'
p464
ag28
aS'func_12'
p465
ag4
aS'variable_26'
p466
ag8
aS'variable_35'
p467
ag8
aS'variable_3'
p468
ag8
aS'variable_17'
p469
ag34
aS'variable_27'
p470
ag8
aS'variable_36'
p471
ag8
aS'variable_19'
p472
ag34
aS'variable_16'
p473
ag19
ag23
aS'func_13'
p474
ag4
aS'variable_25'
p475
ag19
ag23
aS'variable_17'
p476
aS'+='
p477
aS'variable_28'
p478
ag23
aS'func_14'
p479
ag4
aS'variable_1'
p480
ag8
aS'variable_25'
p481
ag8
aS'variable_37'
p482
ag8
aS'variable_38'
p483
ag8
ag115
aS'Malformed'
p484
aS'gap'
p485
aS'block'
p486
ag115
ag19
ag23
aS'func_15'
p487
ag4
aS'variable_1'
p488
ag8
aS'variable_25'
p489
ag8
aS'variable_37'
p490
ag8
aS'variable_39'
p491
ag8
ag115
aS'Gap'
p492
aS'blocks'
p493
aS'not'
p494
aS'in'
p495
aS'strict'
p496
aS'order'
p497
ag115
ag19
ag23
aS'func_16'
p498
ag4
aS'variable_25'
p499
ag19
ag23
aS'func_17'
p500
ag4
aS'variable_1'
p501
ag8
aS'variable_25'
p502
ag8
aS'variable_40'
p503
ag8
aS'variable_39'
p504
ag8
ag115
aS'More'
p505
aS'than'
p506
aS'100'
p507
aS'TSNs'
p508
aS'were'
p509
aS'gap'
p510
ag212
aS'acknowledged'
p511
aS'in'
p512
aS'this'
p513
aS'SACK'
p514
ag115
ag19
ag23
aa(lp515
S'func_0'
p516
ag4
aS'variable_0'
p517
ag6
aS'variable_1'
p518
ag8
aS'variable_2'
p519
ag6
aS'variable_3'
p520
ag8
aS'variable_4'
p521
ag6
aS'variable_5'
p522
ag8
aS'variable_6'
p523
ag6
aS'variable_7'
p524
ag8
aS'variable_6'
p525
ag6
aS'variable_8'
p526
ag8
aS'variable_9'
p527
ag6
aS'variable_10'
p528
ag19
aS'guint16'
p529
aS'variable_11'
p530
ag8
aS'variable_12'
p531
ag23
aS'guint16'
p532
aS'variable_13'
p533
ag8
aS'variable_14'
p534
ag8
aS'variable_15'
p535
ag8
aS'variable_16'
p536
ag23
aS'gint'
p537
aS'variable_17'
p538
ag8
aS'variable_18'
p539
ag23
aS'guint32'
p540
aS'variable_19'
p541
ag23
aS'variable_6'
p542
ag6
aS'variable_20'
p543
ag23
aS'variable_11'
p544
ag28
aS'func_1'
p545
ag4
aS'variable_3'
p546
ag8
aS'variable_21'
p547
ag19
ag23
aS'variable_17'
p548
ag28
aS'variable_22'
p549
ag23
aS'variable_19'
p550
ag28
aS'func_2'
p551
ag4
aS'variable_3'
p552
ag8
aS'variable_23'
p553
ag19
ag23
aS'for'
p554
ag4
aS'variable_13'
p555
ag28
ag90
ag23
aS'variable_13'
p556
ag92
ag28
aS'variable_11'
p557
ag23
aS'variable_13'
p558
aS'++'
p559
ag19
aS'variable_15'
p560
ag28
aS'func_3'
p561
ag4
aS'variable_3'
p562
ag8
aS'variable_17'
p563
ag19
ag23
aS'variable_16'
p564
ag28
aS'func_4'
p565
ag4
aS'variable_3'
p566
ag8
aS'variable_17'
p567
ag34
aS'variable_24'
p568
ag19
ag23
aS'variable_20'
p569
ag28
aS'func_5'
p570
ag4
aS'variable_5'
p571
ag8
aS'variable_3'
p572
ag8
aS'variable_17'
p573
ag8
aS'variable_25'
p574
ag8
ag115
aS'Gap'
p575
aS'Acknowledgement'
p576
aS'for'
p577
aS'TSN'
p578
ag120
ag121
aS'to'
p579
ag120
ag121
ag115
ag8
aS'variable_19'
p580
ag34
aS'variable_15'
p581
ag8
aS'variable_19'
p582
ag34
aS'variable_16'
p583
ag19
ag23
aS'variable_26'
p584
ag28
aS'func_6'
p585
ag4
aS'variable_20'
p586
ag8
aS'variable_27'
p587
ag19
ag23
aS'variable_28'
p588
ag28
aS'func_7'
p589
ag4
aS'variable_26'
p590
ag8
aS'variable_29'
p591
ag8
aS'variable_3'
p592
ag8
aS'variable_17'
p593
ag8
aS'variable_24'
p594
ag8
aS'variable_30'
p595
ag19
ag23
aS'variable_31'
p596
ag28
aS'func_8'
p597
ag4
aS'variable_28'
p598
ag8
aS'variable_32'
p599
ag19
ag23
aS'variable_28'
p600
ag28
aS'func_9'
p601
ag4
aS'variable_31'
p602
ag8
aS'variable_33'
p603
ag8
aS'variable_3'
p604
ag8
aS'variable_17'
p605
ag8
aS'variable_24'
p606
ag8
aS'variable_19'
p607
ag34
aS'variable_15'
p608
ag19
ag23
aS'func_10'
p609
ag4
aS'variable_28'
p610
ag19
ag23
aS'variable_28'
p611
ag28
aS'func_11'
p612
ag4
aS'variable_26'
p613
ag8
aS'variable_34'
p614
ag8
aS'variable_3'
p615
ag8
aS'variable_17'
p616
ag34
aS'variable_24'
p617
ag8
aS'variable_35'
p618
ag8
aS'variable_30'
p619
ag19
ag23
aS'variable_31'
p620
ag28
aS'func_12'
p621
ag4
aS'variable_28'
p622
ag8
aS'variable_36'
p623
ag19
ag23
aS'variable_28'
p624
ag28
aS'func_13'
p625
ag4
aS'variable_31'
p626
ag8
aS'variable_37'
p627
ag8
aS'variable_3'
p628
ag8
aS'variable_17'
p629
ag34
aS'variable_24'
p630
ag8
aS'variable_35'
p631
ag8
aS'variable_19'
p632
ag34
aS'variable_16'
p633
ag19
ag23
aS'func_14'
p634
ag4
aS'variable_28'
p635
ag19
ag23
aS'func_15'
p636
ag4
aS'variable_1'
p637
ag8
aS'variable_10'
p638
ag8
aS'variable_3'
p639
ag8
aS'variable_26'
p640
ag8
aS'&'
p641
aS'variable_38'
p642
ag8
aS'variable_19'
p643
ag34
aS'variable_16'
p644
ag19
ag23
aS'variable_17'
p645
aS'+='
p646
aS'variable_25'
p647
ag23
aS'func_16'
p648
ag4
aS'variable_1'
p649
ag8
aS'variable_28'
p650
ag8
aS'variable_39'
p651
ag8
aS'variable_40'
p652
ag8
ag115
aS'Malformed'
p653
aS'gap'
p654
aS'block'
p655
ag115
ag19
ag23
aS'func_17'
p656
ag4
aS'variable_1'
p657
ag8
aS'variable_28'
p658
ag8
aS'variable_39'
p659
ag8
aS'variable_41'
p660
ag8
ag115
aS'Gap'
p661
aS'blocks'
p662
aS'not'
p663
aS'in'
p664
aS'strict'
p665
aS'order'
p666
ag115
ag19
ag23
aS'func_18'
p667
ag4
aS'variable_28'
p668
ag19
ag23
aS'func_19'
p669
ag4
aS'variable_1'
p670
ag8
aS'variable_28'
p671
ag8
aS'variable_42'
p672
ag8
aS'variable_41'
p673
ag8
ag115
aS'More'
p674
aS'than'
p675
aS'100'
p676
aS'TSNs'
p677
aS'were'
p678
aS'gap'
p679
ag212
aS'acknowledged'
p680
aS'in'
p681
aS'this'
p682
aS'SACK'
p683
ag115
ag19
ag23
aa(lp684
S'func_0'
p685
ag4
aS'variable_0'
p686
ag6
aS'variable_1'
p687
ag8
aS'variable_2'
p688
ag6
aS'variable_3'
p689
ag8
aS'variable_4'
p690
ag6
aS'variable_5'
p691
ag8
aS'variable_6'
p692
ag6
aS'variable_7'
p693
ag8
aS'variable_6'
p694
ag6
aS'variable_8'
p695
ag8
aS'variable_9'
p696
ag6
aS'variable_10'
p697
ag19
aS'guint16'
p698
aS'variable_11'
p699
ag8
aS'variable_12'
p700
ag23
aS'guint16'
p701
aS'variable_13'
p702
ag8
aS'variable_14'
p703
ag8
aS'variable_15'
p704
ag8
aS'variable_16'
p705
ag23
aS'gint'
p706
aS'variable_17'
p707
ag8
aS'variable_18'
p708
ag23
aS'guint32'
p709
aS'variable_19'
p710
ag23
aS'variable_11'
p711
ag28
aS'func_1'
p712
ag4
aS'variable_3'
p713
ag8
aS'variable_20'
p714
ag19
ag23
aS'variable_17'
p715
ag28
aS'variable_21'
p716
ag23
aS'variable_19'
p717
ag28
aS'func_2'
p718
ag4
aS'variable_3'
p719
ag8
aS'variable_22'
p720
ag19
ag23
aS'for'
p721
ag4
aS'variable_13'
p722
ag28
ag90
ag23
aS'variable_13'
p723
ag92
ag28
aS'variable_11'
p724
ag23
aS'variable_13'
p725
aS'++'
p726
ag19
aS'guint32'
p727
aS'variable_23'
p728
ag23
aS'variable_15'
p729
ag28
aS'func_3'
p730
ag4
aS'variable_3'
p731
ag8
aS'variable_17'
p732
ag19
ag23
aS'variable_23'
p733
ag28
aS'variable_19'
p734
ag34
aS'variable_15'
p735
ag23
aS'func_4'
p736
ag4
aS'variable_1'
p737
ag8
aS'variable_10'
p738
ag8
aS'variable_3'
p739
ag8
aS'variable_24'
p740
ag8
ag641
aS'variable_23'
p741
ag8
aS'variable_19'
p742
ag34
aS'variable_16'
p743
ag19
ag23
aS'variable_17'
p744
aS'+='
p745
aS'variable_25'
p746
ag23
aa(lp747
S'func_0'
p748
ag4
aS'variable_0'
p749
ag6
aS'variable_1'
p750
ag8
aS'variable_2'
p751
ag6
aS'variable_3'
p752
ag8
aS'variable_4'
p753
ag6
aS'variable_5'
p754
ag8
aS'variable_6'
p755
ag6
aS'variable_7'
p756
ag8
aS'variable_6'
p757
ag6
aS'variable_8'
p758
ag8
aS'variable_9'
p759
ag6
aS'variable_10'
p760
ag19
aS'guint16'
p761
aS'variable_11'
p762
ag8
aS'variable_12'
p763
ag23
aS'guint16'
p764
aS'variable_13'
p765
ag8
aS'variable_14'
p766
ag8
aS'variable_15'
p767
ag8
aS'variable_16'
p768
ag23
aS'gint'
p769
aS'variable_17'
p770
ag8
aS'variable_18'
p771
ag23
aS'variable_11'
p772
ag28
aS'func_1'
p773
ag4
aS'variable_3'
p774
ag8
aS'variable_19'
p775
ag19
ag23
aS'variable_17'
p776
ag28
aS'variable_20'
p777
ag23
aS'for'
p778
ag4
aS'variable_13'
p779
ag28
ag90
ag23
aS'variable_13'
p780
ag92
ag28
aS'variable_11'
p781
ag23
aS'variable_13'
p782
aS'++'
p783
ag19
aS'variable_16'
p784
ag28
aS'func_2'
p785
ag4
aS'variable_3'
p786
ag8
aS'variable_17'
p787
ag34
aS'variable_21'
p788
ag19
ag23
aS'variable_22'
p789
ag28
aS'func_3'
p790
ag4
aS'variable_5'
p791
ag8
aS'variable_3'
p792
ag8
aS'variable_17'
p793
ag8
aS'variable_23'
p794
ag8
ag115
aS'Gap'
p795
aS'Acknowledgement'
p796
aS'for'
p797
aS'TSN'
p798
ag120
ag121
aS'to'
p799
ag120
ag121
ag115
ag8
aS'variable_24'
p800
ag34
aS'variable_15'
p801
ag8
aS'variable_24'
p802
ag34
aS'variable_16'
p803
ag19
ag23
aS'variable_25'
p804
ag28
aS'func_4'
p805
ag4
aS'variable_22'
p806
ag8
aS'variable_26'
p807
ag19
ag23
aS'variable_27'
p808
ag28
aS'func_5'
p809
ag4
aS'variable_25'
p810
ag8
aS'variable_28'
p811
ag8
aS'variable_3'
p812
ag8
aS'variable_17'
p813
ag8
aS'variable_21'
p814
ag8
aS'variable_29'
p815
ag19
ag23
aS'variable_30'
p816
ag28
aS'func_6'
p817
ag4
aS'variable_27'
p818
ag8
aS'variable_31'
p819
ag19
ag23
aS'variable_27'
p820
ag28
aS'func_7'
p821
ag4
aS'variable_30'
p822
ag8
aS'variable_32'
p823
ag8
aS'variable_3'
p824
ag8
aS'variable_17'
p825
ag8
aS'variable_21'
p826
ag8
aS'variable_24'
p827
ag34
aS'variable_15'
p828
ag19
ag23
aS'func_8'
p829
ag4
aS'variable_27'
p830
ag19
ag23
aS'variable_27'
p831
ag28
aS'func_9'
p832
ag4
aS'variable_25'
p833
ag8
aS'variable_33'
p834
ag8
aS'variable_3'
p835
ag8
aS'variable_17'
p836
ag34
aS'variable_21'
p837
ag8
aS'variable_34'
p838
ag8
aS'variable_29'
p839
ag19
ag23
aS'variable_30'
p840
ag28
aS'func_10'
p841
ag4
aS'variable_27'
p842
ag8
aS'variable_35'
p843
ag19
ag23
aS'variable_27'
p844
ag28
aS'func_11'
p845
ag4
aS'variable_30'
p846
ag8
aS'variable_36'
p847
ag8
aS'variable_3'
p848
ag8
aS'variable_17'
p849
ag34
aS'variable_21'
p850
ag8
aS'variable_34'
p851
ag8
aS'variable_24'
p852
ag34
aS'variable_16'
p853
ag19
ag23
aS'func_12'
p854
ag4
aS'variable_27'
p855
ag19
ag23
aS'func_13'
p856
ag4
aS'variable_1'
p857
ag8
aS'variable_10'
p858
ag8
aS'variable_3'
p859
ag8
aS'variable_25'
p860
ag8
ag641
aS'variable_37'
p861
ag8
aS'variable_24'
p862
ag34
aS'variable_16'
p863
ag19
ag23
aS'variable_17'
p864
aS'+='
p865
aS'variable_23'
p866
ag23
aS'variable_38'
p867
aS'+='
p868
ag4
aS'variable_16'
p869
ag34
ag90
ag212
aS'variable_15'
p870
ag19
ag23
aS'if'
p871
ag4
aS'variable_15'
p872
aS'>'
p873
aS'variable_16'
p874
ag19
aS'func_14'
p875
ag4
aS'variable_1'
p876
ag8
aS'variable_27'
p877
ag8
aS'variable_39'
p878
ag8
aS'variable_40'
p879
ag8
ag115
aS'Malformed'
p880
aS'gap'
p881
aS'block'
p882
ag115
ag19
ag23
aS'if'
p883
ag4
aS'variable_41'
p884
ag873
aS'variable_15'
p885
ag19
aS'func_15'
p886
ag4
aS'variable_1'
p887
ag8
aS'variable_27'
p888
ag8
aS'variable_39'
p889
ag8
aS'variable_42'
p890
ag8
ag115
aS'Gap'
p891
aS'blocks'
p892
aS'not'
p893
aS'in'
p894
aS'strict'
p895
aS'order'
p896
ag115
ag19
ag23
aS'variable_41'
p897
ag28
aS'variable_16'
p898
ag23
aS'if'
p899
ag4
aS'variable_38'
p900
ag19
aS'variable_27'
p901
ag28
aS'func_16'
p902
ag4
aS'variable_5'
p903
ag8
aS'variable_43'
p904
ag8
aS'variable_3'
p905
ag8
aS'0'
p906
ag8
ag906
ag8
aS'variable_38'
p907
ag19
ag23
aS'func_17'
p908
ag4
aS'variable_27'
p909
ag19
ag23
aS'if'
p910
ag4
aS'variable_38'
p911
ag873
aS'100'
p912
ag19
aS'func_18'
p913
ag4
aS'variable_1'
p914
ag8
aS'variable_27'
p915
ag8
aS'variable_44'
p916
ag8
aS'variable_42'
p917
ag8
ag115
aS'More'
p918
aS'than'
p919
aS'100'
p920
aS'TSNs'
p921
aS'were'
p922
aS'gap'
p923
ag212
aS'acknowledged'
p924
aS'in'
p925
aS'this'
p926
aS'SACK'
p927
ag115
ag19
ag23
aaa(lp928
I0
aI0
aI0
aI0
aI0
aI0
aI0
aa(lp929
I51
aI253
aI174
aI204
aI138
aI99
aI80
aa(lp930
(lp931
S'main'
p932
aa(lp933
g932
aa(lp934
g932
aa(lp935
g932
aa(lp936
g932
aa(lp937
g932
aa(lp938
g932
aaa(lp939
S'56 ../data/NVD/CVE_2012_6056_PATCHED_dissect_sack_chunk.c dup_tsn_offset = SACK_CHUNK_GAP_BLOCK_OFFSET + number_of_gap_blocks * SACK_CHUNK_GAP_BLOCK_LENGTH 95'
p940
aS'57 ../data/NVD/CVE_2012_6056_PATCHED_dissect_sack_chunk.c pi = proto_tree_add_uint ( pt , hf_sack_chunk_gap_block_end_tsn , chunk_tvb , gap_block_offset + SACK_CHUNK_GAP_BLOCK_START_LENGTH , SACK_CHUNK_GAP_BLOCK_END_LENGTH , cum_tsn_ack + end ) 59'
p941
aS'58 ../data/NVD/CVE_2012_6056_PATCHED_dissect_sack_chunk.c pi = proto_tree_add_item ( block_tree , hf_sack_chunk_gap_block_end , chunk_tvb , gap_block_offset + SACK_CHUNK_GAP_BLOCK_START_LENGTH , SACK_CHUNK_GAP_BLOCK_END_LENGTH , ENC_BIG_ENDIAN ) 57'
p942
aS'59 ../data/NVD/CVE_2012_6056_PATCHED_dissect_sack_chunk.c pi = proto_tree_add_uint ( pt , hf_sack_chunk_gap_block_start_tsn , chunk_tvb , gap_block_offset , SACK_CHUNK_GAP_BLOCK_START_LENGTH , cum_tsn_ack + start ) 53'
p943
aS'60 ../data/NVD/CVE_2012_6056_PATCHED_dissect_sack_chunk.c block_item = proto_tree_add_text ( chunk_tree , chunk_tvb , gap_block_offset , SACK_CHUNK_GAP_BLOCK_LENGTH , "Gap Acknowledgement for TSN %u to %u" , cum_tsn_ack + start , cum_tsn_ack + end ) 48'
p944
aS'61 ../data/NVD/CVE_2012_6056_PATCHED_dissect_sack_chunk.c tsn_start = cum_tsn_ack + start 46'
p945
aS'62 ../data/NVD/CVE_2012_6056_PATCHED_dissect_sack_chunk.c end = tvb_get_ntohs ( chunk_tvb , gap_block_offset + SACK_CHUNK_GAP_BLOCK_START_LENGTH ) 45'
p946
aa.