(lp0
(lp1
(lp2
S'static'
p3
aS'int'
p4
aS'func_0'
p5
aS'('
p6
aS'variable_0'
p7
aS'*'
p8
aS'variable_1'
p9
aS','
p10
aS'int'
p11
ag8
aS'variable_2'
p12
ag10
aS'variable_3'
p13
ag8
aS'variable_4'
p14
aS')'
p15
aS'int'
p16
aS'variable_5'
p17
aS'='
p18
aS'variable_4'
p19
aS'->'
p20
aS'variable_6'
p21
aS';'
p22
aS'variable_7'
p23
ag8
aS'variable_8'
p24
ag18
aS'variable_1'
p25
aS'->'
p26
aS'variable_9'
p27
ag22
aS'variable_10'
p28
ag8
aS'variable_11'
p29
ag22
aS'int'
p30
aS'variable_12'
p31
ag10
aS'variable_13'
p32
ag10
aS'variable_14'
p33
ag10
aS'variable_15'
p34
ag22
aS'short'
p35
ag8
aS'variable_16'
p36
ag22
aS'int'
p37
aS'variable_17'
p38
ag22
aS'int'
p39
aS'variable_18'
p40
ag10
aS'variable_19'
p41
ag10
aS'variable_20'
p42
ag22
aS'GetByteContext'
p43
aS'variable_21'
p44
ag22
aS'variable_18'
p45
ag18
aS'func_1'
p46
ag6
aS'variable_1'
p47
ag10
aS'&'
p48
aS'variable_21'
p49
ag10
aS'variable_5'
p50
ag10
ag48
aS'variable_19'
p51
ag15
ag22
aS'if'
p52
ag6
aS'variable_18'
p53
aS'<'
p54
ag18
aS'0'
p55
ag15
aS'variable_8'
p56
aS'->'
p57
aS'variable_22'
p58
aS'.'
p59
aS'variable_18'
p60
ag18
aS'variable_18'
p61
ag22
aS'if'
p62
ag6
ag6
aS'variable_20'
p63
ag18
aS'variable_1'
p64
aS'->'
p65
aS'func_2'
p66
ag6
aS'variable_1'
p67
ag10
ag48
aS'variable_8'
p68
aS'->'
p69
aS'variable_22'
p70
ag15
ag15
ag54
ag55
ag15
aS'variable_16'
p71
ag18
ag6
aS'short'
p72
ag8
ag15
aS'variable_8'
p73
aS'->'
p74
aS'variable_22'
p75
ag59
aS'variable_23'
p76
aS'['
p77
ag55
aS']'
p78
ag22
aS'if'
p79
ag6
aS'variable_19'
p80
ag15
aS'variable_8'
p81
aS'->'
p82
aS'variable_22'
p83
ag59
aS'variable_18'
p84
ag18
aS'variable_18'
p85
ag18
aS'variable_19'
p86
ag22
aS'variable_17'
p87
ag18
aS'variable_1'
p88
aS'->'
p89
aS'variable_24'
p90
aS'=='
p91
aS'2'
p92
aS'?'
p93
aS'1'
p94
aS':'
p95
ag55
ag22
aS'switch'
p96
ag6
aS'variable_1'
p97
aS'->'
p98
aS'variable_25'
p99
aS'->'
p100
aS'variable_26'
p101
ag15
aS'for'
p102
ag6
aS'variable_14'
p103
ag18
ag55
ag22
aS'variable_14'
p104
ag54
aS'variable_1'
p105
aS'->'
p106
aS'variable_24'
p107
ag22
aS'variable_14'
p108
aS'++'
p109
ag15
aS'int'
p110
aS'variable_27'
p111
ag22
aS'int'
p112
aS'variable_28'
p113
ag22
aS'variable_11'
p114
ag18
ag48
ag6
aS'variable_8'
p115
aS'->'
p116
aS'variable_29'
p117
ag77
aS'variable_14'
p118
ag78
ag15
ag22
aS'variable_27'
p119
ag18
aS'func_3'
p120
ag6
aS'func_4'
p121
ag6
ag48
aS'variable_21'
p122
ag15
ag10
aS'16'
p123
ag15
ag22
aS'variable_28'
p124
ag18
aS'variable_27'
p125
ag48
aS'0x7F'
p126
ag22
aS'variable_27'
p127
ag48
ag18
aS'~'
p128
aS'0x7F'
p129
ag22
aS'if'
p130
ag6
aS'variable_11'
p131
aS'->'
p132
aS'variable_28'
p133
aS'=='
p134
aS'variable_28'
p135
ag15
aS'int'
p136
aS'variable_30'
p137
ag18
aS'variable_27'
p138
aS'-'
p139
aS'variable_11'
p140
aS'->'
p141
aS'variable_27'
p142
ag22
aS'if'
p143
ag6
aS'variable_30'
p144
ag54
ag55
ag15
aS'variable_30'
p145
ag18
ag139
aS'variable_30'
p146
ag22
aS'if'
p147
ag6
aS'variable_30'
p148
aS'>'
p149
aS'0x7f'
p150
ag15
aS'variable_11'
p151
aS'->'
p152
aS'variable_28'
p153
ag18
aS'variable_28'
p154
ag22
aS'variable_11'
p155
aS'->'
p156
aS'variable_27'
p157
ag18
aS'variable_27'
p158
ag22
aS'if'
p159
ag6
aS'variable_11'
p160
aS'->'
p161
aS'variable_28'
p162
ag149
aS'88u'
p163
ag15
aS'variable_16'
p164
ag18
ag6
aS'short'
p165
ag8
ag15
aS'variable_8'
p166
aS'->'
p167
aS'variable_22'
p168
ag59
aS'variable_23'
p169
ag77
ag55
ag78
aS'+'
p170
aS'variable_14'
p171
ag22
aS'for'
p172
ag6
aS'variable_13'
p173
ag18
ag55
ag22
aS'variable_13'
p174
ag54
aS'32'
p175
ag22
aS'variable_13'
p176
aS'++'
p177
ag15
aS'int'
p178
aS'variable_31'
p179
ag18
aS'func_5'
p180
ag6
ag48
aS'variable_21'
p181
ag15
ag22
ag8
aS'variable_16'
p182
ag18
aS'func_6'
p183
ag6
aS'variable_11'
p184
ag10
aS'variable_31'
p185
ag48
aS'0x0F'
p186
ag10
aS'3'
p187
ag15
ag22
aS'variable_16'
p188
aS'+='
p189
aS'variable_1'
p190
aS'->'
p191
aS'variable_24'
p192
ag22
ag8
aS'variable_16'
p193
ag18
aS'func_7'
p194
ag6
aS'variable_11'
p195
ag10
aS'variable_31'
p196
aS'>>'
p197
aS'4'
p198
ag10
ag187
ag15
ag22
aS'variable_16'
p199
aS'+='
p200
aS'variable_1'
p201
aS'->'
p202
aS'variable_24'
p203
ag22
aS'for'
p204
ag6
aS'variable_15'
p205
ag18
ag55
ag22
aS'variable_15'
p206
ag54
aS'variable_1'
p207
aS'->'
p208
aS'variable_24'
p209
ag22
aS'variable_15'
p210
aS'++'
p211
ag15
aS'variable_11'
p212
ag18
ag48
ag6
aS'variable_8'
p213
aS'->'
p214
aS'variable_29'
p215
ag77
aS'variable_15'
p216
ag78
ag15
ag22
aS'variable_11'
p217
aS'->'
p218
aS'variable_27'
p219
ag18
ag8
aS'variable_16'
p220
aS'++'
p221
ag18
aS'func_8'
p222
ag6
aS'func_9'
p223
ag6
ag48
aS'variable_21'
p224
ag15
ag10
aS'16'
p225
ag15
ag22
aS'variable_11'
p226
aS'->'
p227
aS'variable_28'
p228
ag18
aS'func_10'
p229
ag6
aS'func_11'
p230
ag6
ag48
aS'variable_21'
p231
ag15
ag10
aS'16'
p232
ag15
ag22
aS'if'
p233
ag6
aS'variable_11'
p234
aS'->'
p235
aS'variable_28'
p236
ag149
aS'88u'
p237
ag15
aS'for'
p238
ag6
aS'variable_12'
p239
ag18
ag6
aS'variable_18'
p240
ag139
ag94
ag15
aS'/'
p241
aS'8'
p242
ag22
aS'variable_12'
p243
ag149
ag55
ag22
aS'variable_12'
p244
aS'--'
p245
ag15
aS'for'
p246
ag6
aS'variable_15'
p247
ag18
ag55
ag22
aS'variable_15'
p248
ag54
aS'variable_1'
p249
aS'->'
p250
aS'variable_24'
p251
ag22
aS'variable_15'
p252
aS'++'
p253
ag15
aS'variable_11'
p254
ag18
ag48
aS'variable_8'
p255
aS'->'
p256
aS'variable_29'
p257
ag77
aS'variable_15'
p258
ag78
ag22
aS'for'
p259
ag6
aS'variable_13'
p260
ag18
ag55
ag22
aS'variable_13'
p261
ag54
ag198
ag22
aS'variable_13'
p262
aS'++'
p263
ag15
aS'int'
p264
aS'variable_32'
p265
ag18
aS'func_12'
p266
ag6
ag48
aS'variable_21'
p267
ag15
ag22
ag8
aS'variable_16'
p268
ag18
aS'func_13'
p269
ag6
aS'variable_11'
p270
ag10
aS'variable_32'
p271
ag48
aS'0x0F'
p272
ag10
ag187
ag15
ag22
aS'variable_16'
p273
aS'+='
p274
aS'variable_1'
p275
aS'->'
p276
aS'variable_24'
p277
ag22
ag8
aS'variable_16'
p278
ag18
aS'func_14'
p279
ag6
aS'variable_11'
p280
ag10
aS'variable_32'
p281
aS'>>'
p282
ag198
ag10
ag187
ag15
ag22
aS'variable_16'
p283
aS'+='
p284
aS'variable_1'
p285
aS'->'
p286
aS'variable_24'
p287
ag22
aS'variable_16'
p288
aS'-='
p289
ag242
ag8
aS'variable_1'
p290
aS'->'
p291
aS'variable_24'
p292
ag139
ag94
ag22
aS'variable_16'
p293
aS'+='
p294
aS'7'
p295
ag8
aS'variable_1'
p296
aS'->'
p297
aS'variable_24'
p298
ag22
aS'for'
p299
ag6
aS'variable_15'
p300
ag18
ag55
ag22
aS'variable_15'
p301
ag54
aS'variable_1'
p302
aS'->'
p303
aS'variable_24'
p304
ag22
aS'variable_15'
p305
aS'++'
p306
ag15
aS'variable_8'
p307
aS'->'
p308
aS'variable_29'
p309
ag77
aS'variable_15'
p310
ag78
ag59
aS'variable_27'
p311
ag18
aS'func_15'
p312
ag6
aS'func_16'
p313
ag6
ag48
aS'variable_21'
p314
ag15
ag10
aS'16'
p315
ag15
ag22
aS'for'
p316
ag6
aS'variable_15'
p317
ag18
ag55
ag22
aS'variable_15'
p318
ag54
aS'variable_1'
p319
aS'->'
p320
aS'variable_24'
p321
ag22
aS'variable_15'
p322
aS'++'
p323
ag15
aS'variable_8'
p324
aS'->'
p325
aS'variable_29'
p326
ag77
aS'variable_15'
p327
ag78
ag59
aS'variable_28'
p328
ag18
aS'func_17'
p329
ag6
aS'func_18'
p330
ag6
ag48
aS'variable_21'
p331
ag15
ag10
aS'16'
p332
ag15
ag22
aS'if'
p333
ag6
aS'variable_8'
p334
aS'->'
p335
aS'variable_29'
p336
ag77
aS'variable_15'
p337
ag78
ag59
aS'variable_28'
p338
ag149
aS'88u'
p339
ag15
aS'for'
p340
ag6
aS'variable_15'
p341
ag18
ag55
ag22
aS'variable_15'
p342
ag54
aS'variable_1'
p343
aS'->'
p344
aS'variable_24'
p345
ag22
aS'variable_15'
p346
aS'++'
p347
ag15
aS'variable_16'
p348
ag18
ag6
aS'short'
p349
ag8
ag15
aS'variable_8'
p350
aS'->'
p351
aS'variable_22'
p352
ag59
aS'variable_23'
p353
ag77
ag55
ag78
ag170
aS'variable_15'
p354
ag22
aS'variable_11'
p355
ag18
ag48
aS'variable_8'
p356
aS'->'
p357
aS'variable_29'
p358
ag77
aS'variable_15'
p359
ag78
ag22
aS'for'
p360
ag6
aS'variable_12'
p361
ag18
aS'variable_18'
p362
aS'>>'
p363
ag94
ag22
aS'variable_12'
p364
ag149
ag55
ag22
aS'variable_12'
p365
aS'--'
p366
ag15
aS'int'
p367
aS'variable_32'
p368
ag18
aS'func_19'
p369
ag6
ag48
aS'variable_21'
p370
ag15
ag22
ag8
aS'variable_16'
p371
ag18
aS'func_20'
p372
ag6
aS'variable_11'
p373
ag10
aS'variable_32'
p374
ag48
aS'0x0F'
p375
ag10
ag198
ag15
ag22
aS'variable_16'
p376
aS'+='
p377
aS'variable_1'
p378
aS'->'
p379
aS'variable_24'
p380
ag22
ag8
aS'variable_16'
p381
ag18
aS'func_21'
p382
ag6
aS'variable_11'
p383
ag10
aS'variable_32'
p384
aS'>>'
p385
ag198
ag10
ag198
ag15
ag22
aS'variable_16'
p386
aS'+='
p387
aS'variable_1'
p388
aS'->'
p389
aS'variable_24'
p390
ag22
aS'int'
p391
aS'variable_33'
p392
ag22
aS'variable_33'
p393
ag18
aS'func_22'
p394
ag6
ag48
aS'variable_21'
p395
ag15
ag22
aS'if'
p396
ag6
aS'variable_33'
p397
ag149
aS'6'
p398
ag15
aS'variable_8'
p399
aS'->'
p400
aS'variable_29'
p401
ag77
ag55
ag78
ag59
aS'variable_34'
p402
ag18
aS'variable_35'
p403
ag77
aS'variable_33'
p404
ag78
ag22
aS'variable_8'
p405
aS'->'
p406
aS'variable_29'
p407
ag77
ag55
ag78
ag59
aS'variable_36'
p408
ag18
aS'variable_37'
p409
ag77
aS'variable_33'
p410
ag78
ag22
aS'if'
p411
ag6
aS'variable_17'
p412
ag15
aS'variable_33'
p413
ag18
aS'func_23'
p414
ag6
ag48
aS'variable_21'
p415
ag15
ag22
aS'if'
p416
ag6
aS'variable_33'
p417
ag149
ag398
ag15
aS'variable_8'
p418
aS'->'
p419
aS'variable_29'
p420
ag77
ag94
ag78
ag59
aS'variable_34'
p421
ag18
aS'variable_35'
p422
ag77
aS'variable_33'
p423
ag78
ag22
aS'variable_8'
p424
aS'->'
p425
aS'variable_29'
p426
ag77
ag94
ag78
ag59
aS'variable_36'
p427
ag18
aS'variable_37'
p428
ag77
aS'variable_33'
p429
ag78
ag22
aS'variable_8'
p430
aS'->'
p431
aS'variable_29'
p432
ag77
ag55
ag78
ag59
aS'variable_38'
p433
ag18
aS'func_24'
p434
ag6
aS'func_25'
p435
ag6
ag48
aS'variable_21'
p436
ag15
ag10
aS'16'
p437
ag15
ag22
aS'if'
p438
ag6
aS'variable_17'
p439
ag15
aS'variable_8'
p440
aS'->'
p441
aS'variable_29'
p442
ag77
ag94
ag78
ag59
aS'variable_38'
p443
ag18
aS'func_26'
p444
ag6
aS'func_27'
p445
ag6
ag48
aS'variable_21'
p446
ag15
ag10
aS'16'
p447
ag15
ag22
aS'variable_8'
p448
aS'->'
p449
aS'variable_29'
p450
ag77
ag55
ag78
ag59
aS'variable_39'
p451
ag18
aS'func_28'
p452
ag6
aS'func_29'
p453
ag6
ag48
aS'variable_21'
p454
ag15
ag10
aS'16'
p455
ag15
ag22
aS'if'
p456
ag6
aS'variable_17'
p457
ag15
aS'variable_8'
p458
aS'->'
p459
aS'variable_29'
p460
ag77
ag94
ag78
ag59
aS'variable_39'
p461
ag18
aS'func_30'
p462
ag6
aS'func_31'
p463
ag6
ag48
aS'variable_21'
p464
ag15
ag10
aS'16'
p465
ag15
ag22
aS'variable_8'
p466
aS'->'
p467
aS'variable_29'
p468
ag77
ag55
ag78
ag59
aS'variable_40'
p469
ag18
aS'func_32'
p470
ag6
aS'func_33'
p471
ag6
ag48
aS'variable_21'
p472
ag15
ag10
aS'16'
p473
ag15
ag22
aS'if'
p474
ag6
aS'variable_17'
p475
ag15
aS'variable_8'
p476
aS'->'
p477
aS'variable_29'
p478
ag77
ag94
ag78
ag59
aS'variable_40'
p479
ag18
aS'func_34'
p480
ag6
aS'func_35'
p481
ag6
ag48
aS'variable_21'
p482
ag15
ag10
aS'16'
p483
ag15
ag22
ag8
aS'variable_16'
p484
aS'++'
p485
ag18
aS'variable_8'
p486
aS'->'
p487
aS'variable_29'
p488
ag77
ag55
ag78
ag59
aS'variable_40'
p489
ag22
aS'if'
p490
ag6
aS'variable_17'
p491
ag15
ag8
aS'variable_16'
p492
aS'++'
p493
ag18
aS'variable_8'
p494
aS'->'
p495
aS'variable_29'
p496
ag77
ag94
ag78
ag59
aS'variable_40'
p497
ag22
ag8
aS'variable_16'
p498
aS'++'
p499
ag18
aS'variable_8'
p500
aS'->'
p501
aS'variable_29'
p502
ag77
ag55
ag78
ag59
aS'variable_39'
p503
ag22
aS'if'
p504
ag6
aS'variable_17'
p505
ag15
ag8
aS'variable_16'
p506
aS'++'
p507
ag18
aS'variable_8'
p508
aS'->'
p509
aS'variable_29'
p510
ag77
ag94
ag78
ag59
aS'variable_39'
p511
ag22
aS'for'
p512
ag6
aS'variable_12'
p513
ag18
ag6
aS'variable_18'
p514
ag139
ag92
ag15
aS'>>'
p515
ag6
ag94
ag139
aS'variable_17'
p516
ag15
ag22
aS'variable_12'
p517
ag149
ag55
ag22
aS'variable_12'
p518
aS'--'
p519
ag15
aS'int'
p520
aS'variable_31'
p521
ag18
aS'func_36'
p522
ag6
ag48
aS'variable_21'
p523
ag15
ag22
ag8
aS'variable_16'
p524
aS'++'
p525
ag18
aS'func_37'
p526
ag6
ag48
aS'variable_8'
p527
aS'->'
p528
aS'variable_29'
p529
ag77
ag55
ag78
ag10
aS'variable_31'
p530
aS'>>'
p531
ag198
ag15
ag22
ag8
aS'variable_16'
p532
aS'++'
p533
ag18
aS'func_38'
p534
ag6
ag48
aS'variable_8'
p535
aS'->'
p536
aS'variable_29'
p537
ag77
aS'variable_17'
p538
ag78
ag10
aS'variable_31'
p539
ag48
aS'0x0F'
p540
ag15
ag22
aS'for'
p541
ag6
aS'variable_14'
p542
ag18
ag55
ag22
aS'variable_14'
p543
ag54
aS'variable_1'
p544
aS'->'
p545
aS'variable_24'
p546
ag22
aS'variable_14'
p547
aS'++'
p548
ag15
aS'variable_11'
p549
ag18
ag48
aS'variable_8'
p550
aS'->'
p551
aS'variable_29'
p552
ag77
aS'variable_14'
p553
ag78
ag22
aS'variable_11'
p554
aS'->'
p555
aS'variable_27'
p556
ag18
ag8
aS'variable_16'
p557
aS'++'
p558
ag18
aS'func_39'
p559
ag6
aS'func_40'
p560
ag6
ag48
aS'variable_21'
p561
ag15
ag10
aS'16'
p562
ag15
ag22
aS'variable_11'
p563
aS'->'
p564
aS'variable_28'
p565
ag18
aS'func_41'
p566
ag6
aS'func_42'
p567
ag6
ag48
aS'variable_21'
p568
ag15
ag10
aS'16'
p569
ag15
ag22
aS'if'
p570
ag6
aS'variable_11'
p571
aS'->'
p572
aS'variable_28'
p573
ag149
aS'88u'
p574
ag15
aS'for'
p575
ag6
aS'variable_12'
p576
ag18
aS'variable_18'
p577
aS'>>'
p578
ag6
ag94
ag139
aS'variable_17'
p579
ag15
ag22
aS'variable_12'
p580
ag149
ag55
ag22
aS'variable_12'
p581
aS'--'
p582
ag15
aS'int'
p583
aS'variable_32'
p584
ag18
aS'func_43'
p585
ag6
ag48
aS'variable_21'
p586
ag15
ag22
ag8
aS'variable_16'
p587
aS'++'
p588
ag18
aS'func_44'
p589
ag6
ag48
aS'variable_8'
p590
aS'->'
p591
aS'variable_29'
p592
ag77
ag55
ag78
ag10
aS'variable_32'
p593
aS'>>'
p594
ag198
ag10
ag187
ag15
ag22
ag8
aS'variable_16'
p595
aS'++'
p596
ag18
aS'func_45'
p597
ag6
ag48
aS'variable_8'
p598
aS'->'
p599
aS'variable_29'
p600
ag77
aS'variable_17'
p601
ag78
ag10
aS'variable_32'
p602
ag48
aS'0x0F'
p603
ag10
ag187
ag15
ag22
aS'const'
p604
aS'int16_t'
p605
ag8
aS'variable_41'
p606
ag18
aS'variable_16'
p607
ag170
aS'variable_1'
p608
aS'->'
p609
aS'variable_24'
p610
ag8
aS'variable_18'
p611
ag22
aS'variable_8'
p612
aS'->'
p613
aS'variable_29'
p614
ag77
ag55
ag78
ag59
aS'variable_27'
p615
ag18
aS'func_46'
p616
ag6
aS'func_47'
p617
ag6
ag48
aS'variable_21'
p618
ag15
ag10
aS'16'
p619
ag15
ag22
aS'variable_8'
p620
aS'->'
p621
aS'variable_29'
p622
ag77
ag94
ag78
ag59
aS'variable_27'
p623
ag18
aS'func_48'
p624
ag6
aS'func_49'
p625
ag6
ag48
aS'variable_21'
p626
ag15
ag10
aS'16'
p627
ag15
ag22
aS'variable_8'
p628
aS'->'
p629
aS'variable_29'
p630
ag77
ag55
ag78
ag59
aS'variable_28'
p631
ag18
aS'func_50'
p632
ag6
ag48
aS'variable_21'
p633
ag15
ag22
aS'variable_8'
p634
aS'->'
p635
aS'variable_29'
p636
ag77
ag94
ag78
ag59
aS'variable_28'
p637
ag18
aS'func_51'
p638
ag6
ag48
aS'variable_21'
p639
ag15
ag22
aS'if'
p640
ag6
aS'variable_8'
p641
aS'->'
p642
aS'variable_29'
p643
ag77
ag55
ag78
ag59
aS'variable_28'
p644
ag149
aS'88u'
p645
aS'||'
p646
aS'variable_8'
p647
aS'->'
p648
aS'variable_29'
p649
ag77
ag94
ag78
ag59
aS'variable_28'
p650
ag149
aS'88u'
p651
ag15
aS'while'
p652
ag6
aS'variable_16'
p653
ag54
aS'variable_41'
p654
ag15
ag8
aS'variable_16'
p655
aS'++'
p656
ag18
aS'variable_8'
p657
aS'->'
p658
aS'variable_29'
p659
ag77
ag55
ag78
ag59
aS'variable_27'
p660
ag170
aS'variable_8'
p661
aS'->'
p662
aS'variable_29'
p663
ag77
ag94
ag78
ag59
aS'variable_27'
p664
ag22
ag8
aS'variable_16'
p665
aS'++'
p666
ag18
aS'variable_8'
p667
aS'->'
p668
aS'variable_29'
p669
ag77
ag55
ag78
ag59
aS'variable_27'
p670
ag139
aS'variable_8'
p671
aS'->'
p672
aS'variable_29'
p673
ag77
ag94
ag78
ag59
aS'variable_27'
p674
ag22
ag8
aS'variable_16'
p675
aS'++'
p676
ag18
aS'variable_8'
p677
aS'->'
p678
aS'variable_29'
p679
ag77
ag55
ag78
ag59
aS'variable_27'
p680
ag170
aS'variable_8'
p681
aS'->'
p682
aS'variable_29'
p683
ag77
ag94
ag78
ag59
aS'variable_27'
p684
ag22
ag8
aS'variable_16'
p685
aS'++'
p686
ag18
aS'variable_8'
p687
aS'->'
p688
aS'variable_29'
p689
ag77
ag55
ag78
ag59
aS'variable_27'
p690
ag139
aS'variable_8'
p691
aS'->'
p692
aS'variable_29'
p693
ag77
ag94
ag78
ag59
aS'variable_27'
p694
ag22
aS'for'
p695
ag6
aS'variable_14'
p696
ag18
ag55
ag22
aS'variable_14'
p697
ag54
aS'variable_1'
p698
aS'->'
p699
aS'variable_24'
p700
ag22
aS'variable_14'
p701
aS'++'
p702
ag15
aS'variable_11'
p703
ag18
ag48
aS'variable_8'
p704
aS'->'
p705
aS'variable_29'
p706
ag77
aS'variable_14'
p707
ag78
ag22
aS'variable_11'
p708
aS'->'
p709
aS'variable_27'
p710
ag18
aS'func_52'
p711
ag6
aS'func_53'
p712
ag6
ag48
aS'variable_21'
p713
ag15
ag10
aS'16'
p714
ag15
ag22
aS'variable_11'
p715
aS'->'
p716
aS'variable_28'
p717
ag18
aS'func_54'
p718
ag6
aS'func_55'
p719
ag6
ag48
aS'variable_21'
p720
ag15
ag10
aS'16'
p721
ag15
ag22
aS'if'
p722
ag6
aS'variable_11'
p723
aS'->'
p724
aS'variable_28'
p725
ag149
aS'88u'
p726
ag15
aS'for'
p727
ag6
aS'variable_12'
p728
ag18
aS'variable_18'
p729
aS'>>'
p730
ag6
ag94
ag139
aS'variable_17'
p731
ag15
ag22
aS'variable_12'
p732
ag149
ag55
ag22
aS'variable_12'
p733
aS'--'
p734
ag15
aS'int'
p735
aS'variable_42'
p736
ag10
aS'variable_43'
p737
ag22
aS'int'
p738
aS'variable_32'
p739
ag18
aS'func_56'
p740
ag6
ag48
aS'variable_21'
p741
ag15
ag22
aS'if'
p742
ag6
aS'variable_17'
p743
ag15
aS'variable_42'
p744
ag18
aS'variable_32'
p745
aS'>>'
p746
ag198
ag22
aS'variable_43'
p747
ag18
aS'variable_32'
p748
ag48
aS'0x0F'
p749
ag22
aS'variable_43'
p750
ag18
aS'variable_32'
p751
aS'>>'
p752
ag198
ag22
aS'variable_42'
p753
ag18
aS'variable_32'
p754
ag48
aS'0x0F'
p755
ag22
ag8
aS'variable_16'
p756
aS'++'
p757
ag18
aS'func_57'
p758
ag6
ag48
aS'variable_8'
p759
aS'->'
p760
aS'variable_29'
p761
ag77
ag55
ag78
ag10
aS'variable_42'
p762
ag10
ag187
ag15
ag22
ag8
aS'variable_16'
p763
aS'++'
p764
ag18
aS'func_58'
p765
ag6
ag48
aS'variable_8'
p766
aS'->'
p767
aS'variable_29'
p768
ag77
aS'variable_17'
p769
ag78
ag10
aS'variable_43'
p770
ag10
ag187
ag15
ag22
aS'while'
p771
ag6
aS'func_59'
p772
ag6
ag48
aS'variable_21'
p773
ag15
ag149
ag55
ag15
aS'int'
p774
aS'variable_32'
p775
ag18
aS'func_60'
p776
ag6
ag48
aS'variable_21'
p777
ag15
ag22
ag8
aS'variable_16'
p778
aS'++'
p779
ag18
aS'func_61'
p780
ag6
ag48
aS'variable_8'
p781
aS'->'
p782
aS'variable_29'
p783
ag77
ag55
ag78
ag10
aS'variable_32'
p784
aS'>>'
p785
ag198
ag10
ag187
ag15
ag22
ag8
aS'variable_16'
p786
aS'++'
p787
ag18
aS'func_62'
p788
ag6
ag48
aS'variable_8'
p789
aS'->'
p790
aS'variable_29'
p791
ag77
aS'variable_17'
p792
ag78
ag10
aS'variable_32'
p793
ag48
aS'0x0F'
p794
ag10
ag187
ag15
ag22
aS'if'
p795
ag6
aS'variable_8'
p796
aS'->'
p797
aS'variable_44'
p798
aS'=='
p799
ag187
ag15
aS'for'
p800
ag6
aS'variable_14'
p801
ag18
ag55
ag22
aS'variable_14'
p802
ag54
aS'variable_1'
p803
aS'->'
p804
aS'variable_24'
p805
ag22
aS'variable_14'
p806
aS'++'
p807
ag15
aS'variable_45'
p808
ag8
aS'variable_46'
p809
ag18
aS'variable_16'
p810
ag170
aS'variable_14'
p811
ag22
ag8
aS'variable_46'
p812
ag18
aS'func_63'
p813
ag6
ag48
aS'variable_8'
p814
aS'->'
p815
aS'variable_29'
p816
ag77
aS'variable_14'
p817
ag78
ag10
aS'variable_32'
p818
aS'>>'
p819
ag198
ag10
ag187
ag15
ag22
aS'variable_46'
p820
aS'+='
p821
aS'variable_1'
p822
aS'->'
p823
aS'variable_24'
p824
ag22
ag8
aS'variable_46'
p825
ag18
aS'func_64'
p826
ag6
ag48
aS'variable_8'
p827
aS'->'
p828
aS'variable_29'
p829
ag77
aS'variable_14'
p830
ag78
ag10
aS'variable_32'
p831
ag48
aS'0x0F'
p832
ag10
ag187
ag15
ag22
aS'variable_46'
p833
aS'+='
p834
aS'variable_1'
p835
aS'->'
p836
aS'variable_24'
p837
ag22
aa(lp838
S'static'
p839
aS'int'
p840
aS'func_0'
p841
ag6
aS'variable_0'
p842
ag8
aS'variable_1'
p843
ag10
aS'int'
p844
ag8
aS'variable_2'
p845
ag10
aS'variable_3'
p846
ag8
aS'variable_4'
p847
ag15
aS'int'
p848
aS'variable_5'
p849
ag18
aS'variable_4'
p850
aS'->'
p851
aS'variable_6'
p852
ag22
aS'variable_7'
p853
ag8
aS'variable_8'
p854
ag18
aS'variable_1'
p855
aS'->'
p856
aS'variable_9'
p857
ag22
aS'variable_10'
p858
ag8
aS'variable_11'
p859
ag22
aS'int'
p860
aS'variable_12'
p861
ag10
aS'variable_13'
p862
ag10
aS'variable_14'
p863
ag10
aS'variable_15'
p864
ag22
aS'short'
p865
ag8
aS'variable_16'
p866
ag22
aS'int'
p867
aS'variable_17'
p868
ag22
aS'int'
p869
aS'variable_18'
p870
ag10
aS'variable_19'
p871
ag10
aS'variable_20'
p872
ag22
aS'variable_18'
p873
ag18
aS'func_1'
p874
ag6
aS'variable_1'
p875
ag10
ag48
aS'variable_21'
p876
ag10
aS'variable_5'
p877
ag10
ag48
aS'variable_19'
p878
ag15
ag22
aS'if'
p879
ag6
aS'variable_18'
p880
ag54
ag18
ag55
ag15
aS'variable_8'
p881
aS'->'
p882
aS'variable_22'
p883
ag59
aS'variable_18'
p884
ag18
aS'variable_18'
p885
ag22
aS'if'
p886
ag6
ag6
aS'variable_20'
p887
ag18
aS'variable_1'
p888
aS'->'
p889
aS'func_2'
p890
ag6
aS'variable_1'
p891
ag10
ag48
aS'variable_8'
p892
aS'->'
p893
aS'variable_22'
p894
ag15
ag15
ag54
ag55
ag15
aS'variable_16'
p895
ag18
ag6
aS'short'
p896
ag8
ag15
aS'variable_8'
p897
aS'->'
p898
aS'variable_22'
p899
ag59
aS'variable_23'
p900
ag77
ag55
ag78
ag22
aS'if'
p901
ag6
aS'variable_19'
p902
ag15
aS'variable_8'
p903
aS'->'
p904
aS'variable_22'
p905
ag59
aS'variable_18'
p906
ag18
aS'variable_18'
p907
ag18
aS'variable_19'
p908
ag22
aS'variable_17'
p909
ag18
aS'variable_1'
p910
aS'->'
p911
aS'variable_24'
p912
aS'=='
p913
ag92
ag93
ag94
ag95
ag55
ag22
aS'switch'
p914
ag6
aS'variable_1'
p915
aS'->'
p916
aS'variable_25'
p917
aS'->'
p918
aS'variable_26'
p919
ag15
aS'for'
p920
ag6
aS'variable_14'
p921
ag18
ag55
ag22
aS'variable_14'
p922
ag54
aS'variable_1'
p923
aS'->'
p924
aS'variable_24'
p925
ag22
aS'variable_14'
p926
aS'++'
p927
ag15
aS'int'
p928
aS'variable_27'
p929
ag22
aS'int'
p930
aS'variable_28'
p931
ag22
aS'variable_11'
p932
ag18
ag48
ag6
aS'variable_8'
p933
aS'->'
p934
aS'variable_29'
p935
ag77
aS'variable_14'
p936
ag78
ag15
ag22
aS'variable_27'
p937
ag18
aS'func_3'
p938
ag6
aS'func_4'
p939
ag6
ag48
aS'variable_21'
p940
ag15
ag10
aS'16'
p941
ag15
ag22
aS'variable_28'
p942
ag18
aS'variable_27'
p943
ag48
aS'0x7F'
p944
ag22
aS'variable_27'
p945
ag48
ag18
ag128
aS'0x7F'
p946
ag22
aS'if'
p947
ag6
aS'variable_11'
p948
aS'->'
p949
aS'variable_28'
p950
aS'=='
p951
aS'variable_28'
p952
ag15
aS'int'
p953
aS'variable_30'
p954
ag18
aS'variable_27'
p955
ag139
aS'variable_11'
p956
aS'->'
p957
aS'variable_27'
p958
ag22
aS'if'
p959
ag6
aS'variable_30'
p960
ag54
ag55
ag15
aS'variable_30'
p961
ag18
ag139
aS'variable_30'
p962
ag22
aS'if'
p963
ag6
aS'variable_30'
p964
ag149
aS'0x7f'
p965
ag15
aS'variable_11'
p966
aS'->'
p967
aS'variable_28'
p968
ag18
aS'variable_28'
p969
ag22
aS'variable_11'
p970
aS'->'
p971
aS'variable_27'
p972
ag18
aS'variable_27'
p973
ag22
aS'if'
p974
ag6
aS'variable_11'
p975
aS'->'
p976
aS'variable_28'
p977
ag149
aS'88u'
p978
ag15
aS'variable_16'
p979
ag18
ag6
aS'short'
p980
ag8
ag15
aS'variable_8'
p981
aS'->'
p982
aS'variable_22'
p983
ag59
aS'variable_23'
p984
ag77
ag55
ag78
ag170
aS'variable_14'
p985
ag22
aS'for'
p986
ag6
aS'variable_13'
p987
ag18
ag55
ag22
aS'variable_13'
p988
ag54
aS'32'
p989
ag22
aS'variable_13'
p990
aS'++'
p991
ag15
aS'int'
p992
aS'variable_31'
p993
ag18
aS'func_5'
p994
ag6
ag48
aS'variable_21'
p995
ag15
ag22
ag8
aS'variable_16'
p996
ag18
aS'func_6'
p997
ag6
aS'variable_11'
p998
ag10
aS'variable_31'
p999
ag48
aS'0x0F'
p1000
ag10
ag187
ag15
ag22
aS'variable_16'
p1001
aS'+='
p1002
aS'variable_1'
p1003
aS'->'
p1004
aS'variable_24'
p1005
ag22
ag8
aS'variable_16'
p1006
ag18
aS'func_7'
p1007
ag6
aS'variable_11'
p1008
ag10
aS'variable_31'
p1009
aS'>>'
p1010
ag198
ag10
ag187
ag15
ag22
aS'variable_16'
p1011
aS'+='
p1012
aS'variable_1'
p1013
aS'->'
p1014
aS'variable_24'
p1015
ag22
aS'for'
p1016
ag6
aS'variable_15'
p1017
ag18
ag55
ag22
aS'variable_15'
p1018
ag54
aS'variable_1'
p1019
aS'->'
p1020
aS'variable_24'
p1021
ag22
aS'variable_15'
p1022
aS'++'
p1023
ag15
aS'variable_11'
p1024
ag18
ag48
ag6
aS'variable_8'
p1025
aS'->'
p1026
aS'variable_29'
p1027
ag77
aS'variable_15'
p1028
ag78
ag15
ag22
aS'variable_11'
p1029
aS'->'
p1030
aS'variable_27'
p1031
ag18
ag8
aS'variable_16'
p1032
aS'++'
p1033
ag18
aS'func_8'
p1034
ag6
aS'func_9'
p1035
ag6
ag48
aS'variable_21'
p1036
ag15
ag10
aS'16'
p1037
ag15
ag22
aS'variable_11'
p1038
aS'->'
p1039
aS'variable_28'
p1040
ag18
aS'func_10'
p1041
ag6
aS'func_11'
p1042
ag6
ag48
aS'variable_21'
p1043
ag15
ag10
aS'16'
p1044
ag15
ag22
aS'if'
p1045
ag6
aS'variable_11'
p1046
aS'->'
p1047
aS'variable_28'
p1048
ag149
aS'88u'
p1049
ag15
aS'for'
p1050
ag6
aS'variable_12'
p1051
ag18
ag6
aS'variable_18'
p1052
ag139
ag94
ag15
ag241
ag242
ag22
aS'variable_12'
p1053
ag149
ag55
ag22
aS'variable_12'
p1054
aS'--'
p1055
ag15
aS'for'
p1056
ag6
aS'variable_15'
p1057
ag18
ag55
ag22
aS'variable_15'
p1058
ag54
aS'variable_1'
p1059
aS'->'
p1060
aS'variable_24'
p1061
ag22
aS'variable_15'
p1062
aS'++'
p1063
ag15
aS'variable_11'
p1064
ag18
ag48
aS'variable_8'
p1065
aS'->'
p1066
aS'variable_29'
p1067
ag77
aS'variable_15'
p1068
ag78
ag22
aS'for'
p1069
ag6
aS'variable_13'
p1070
ag18
ag55
ag22
aS'variable_13'
p1071
ag54
ag198
ag22
aS'variable_13'
p1072
aS'++'
p1073
ag15
aS'int'
p1074
aS'variable_32'
p1075
ag18
aS'func_12'
p1076
ag6
ag48
aS'variable_21'
p1077
ag15
ag22
ag8
aS'variable_16'
p1078
ag18
aS'func_13'
p1079
ag6
aS'variable_11'
p1080
ag10
aS'variable_32'
p1081
ag48
aS'0x0F'
p1082
ag10
ag187
ag15
ag22
aS'variable_16'
p1083
aS'+='
p1084
aS'variable_1'
p1085
aS'->'
p1086
aS'variable_24'
p1087
ag22
ag8
aS'variable_16'
p1088
ag18
aS'func_14'
p1089
ag6
aS'variable_11'
p1090
ag10
aS'variable_32'
p1091
aS'>>'
p1092
ag198
ag10
ag187
ag15
ag22
aS'variable_16'
p1093
aS'+='
p1094
aS'variable_1'
p1095
aS'->'
p1096
aS'variable_24'
p1097
ag22
aS'variable_16'
p1098
aS'-='
p1099
ag242
ag8
aS'variable_1'
p1100
aS'->'
p1101
aS'variable_24'
p1102
ag139
ag94
ag22
aS'variable_16'
p1103
aS'+='
p1104
ag295
ag8
aS'variable_1'
p1105
aS'->'
p1106
aS'variable_24'
p1107
ag22
aS'for'
p1108
ag6
aS'variable_15'
p1109
ag18
ag55
ag22
aS'variable_15'
p1110
ag54
aS'variable_1'
p1111
aS'->'
p1112
aS'variable_24'
p1113
ag22
aS'variable_15'
p1114
aS'++'
p1115
ag15
aS'variable_8'
p1116
aS'->'
p1117
aS'variable_29'
p1118
ag77
aS'variable_15'
p1119
ag78
ag59
aS'variable_27'
p1120
ag18
aS'func_15'
p1121
ag6
aS'func_16'
p1122
ag6
ag48
aS'variable_21'
p1123
ag15
ag10
aS'16'
p1124
ag15
ag22
aS'for'
p1125
ag6
aS'variable_15'
p1126
ag18
ag55
ag22
aS'variable_15'
p1127
ag54
aS'variable_1'
p1128
aS'->'
p1129
aS'variable_24'
p1130
ag22
aS'variable_15'
p1131
aS'++'
p1132
ag15
aS'variable_8'
p1133
aS'->'
p1134
aS'variable_29'
p1135
ag77
aS'variable_15'
p1136
ag78
ag59
aS'variable_28'
p1137
ag18
aS'func_17'
p1138
ag6
aS'func_18'
p1139
ag6
ag48
aS'variable_21'
p1140
ag15
ag10
aS'16'
p1141
ag15
ag22
aS'if'
p1142
ag6
aS'variable_8'
p1143
aS'->'
p1144
aS'variable_29'
p1145
ag77
aS'variable_15'
p1146
ag78
ag59
aS'variable_28'
p1147
ag149
aS'88u'
p1148
ag15
aS'for'
p1149
ag6
aS'variable_15'
p1150
ag18
ag55
ag22
aS'variable_15'
p1151
ag54
aS'variable_1'
p1152
aS'->'
p1153
aS'variable_24'
p1154
ag22
aS'variable_15'
p1155
aS'++'
p1156
ag15
aS'variable_16'
p1157
ag18
ag6
aS'short'
p1158
ag8
ag15
aS'variable_8'
p1159
aS'->'
p1160
aS'variable_22'
p1161
ag59
aS'variable_23'
p1162
ag77
ag55
ag78
ag170
aS'variable_15'
p1163
ag22
aS'variable_11'
p1164
ag18
ag48
aS'variable_8'
p1165
aS'->'
p1166
aS'variable_29'
p1167
ag77
aS'variable_15'
p1168
ag78
ag22
aS'for'
p1169
ag6
aS'variable_12'
p1170
ag18
aS'variable_18'
p1171
aS'>>'
p1172
ag94
ag22
aS'variable_12'
p1173
ag149
ag55
ag22
aS'variable_12'
p1174
aS'--'
p1175
ag15
aS'int'
p1176
aS'variable_32'
p1177
ag18
aS'func_19'
p1178
ag6
ag48
aS'variable_21'
p1179
ag15
ag22
ag8
aS'variable_16'
p1180
ag18
aS'func_20'
p1181
ag6
aS'variable_11'
p1182
ag10
aS'variable_32'
p1183
ag48
aS'0x0F'
p1184
ag10
ag198
ag15
ag22
aS'variable_16'
p1185
aS'+='
p1186
aS'variable_1'
p1187
aS'->'
p1188
aS'variable_24'
p1189
ag22
ag8
aS'variable_16'
p1190
ag18
aS'func_21'
p1191
ag6
aS'variable_11'
p1192
ag10
aS'variable_32'
p1193
aS'>>'
p1194
ag198
ag10
ag198
ag15
ag22
aS'variable_16'
p1195
aS'+='
p1196
aS'variable_1'
p1197
aS'->'
p1198
aS'variable_24'
p1199
ag22
aS'int'
p1200
aS'variable_33'
p1201
ag22
aS'variable_33'
p1202
ag18
aS'func_22'
p1203
ag6
ag48
aS'variable_21'
p1204
ag15
ag22
aS'if'
p1205
ag6
aS'variable_33'
p1206
ag149
ag398
ag15
aS'variable_8'
p1207
aS'->'
p1208
aS'variable_29'
p1209
ag77
ag55
ag78
ag59
aS'variable_34'
p1210
ag18
aS'variable_35'
p1211
ag77
aS'variable_33'
p1212
ag78
ag22
aS'variable_8'
p1213
aS'->'
p1214
aS'variable_29'
p1215
ag77
ag55
ag78
ag59
aS'variable_36'
p1216
ag18
aS'variable_37'
p1217
ag77
aS'variable_33'
p1218
ag78
ag22
aS'if'
p1219
ag6
aS'variable_17'
p1220
ag15
aS'variable_33'
p1221
ag18
aS'func_23'
p1222
ag6
ag48
aS'variable_21'
p1223
ag15
ag22
aS'if'
p1224
ag6
aS'variable_33'
p1225
ag149
ag398
ag15
aS'variable_8'
p1226
aS'->'
p1227
aS'variable_29'
p1228
ag77
ag94
ag78
ag59
aS'variable_34'
p1229
ag18
aS'variable_35'
p1230
ag77
aS'variable_33'
p1231
ag78
ag22
aS'variable_8'
p1232
aS'->'
p1233
aS'variable_29'
p1234
ag77
ag94
ag78
ag59
aS'variable_36'
p1235
ag18
aS'variable_37'
p1236
ag77
aS'variable_33'
p1237
ag78
ag22
aS'variable_8'
p1238
aS'->'
p1239
aS'variable_29'
p1240
ag77
ag55
ag78
ag59
aS'variable_38'
p1241
ag18
aS'func_24'
p1242
ag6
aS'func_25'
p1243
ag6
ag48
aS'variable_21'
p1244
ag15
ag10
aS'16'
p1245
ag15
ag22
aS'if'
p1246
ag6
aS'variable_17'
p1247
ag15
aS'variable_8'
p1248
aS'->'
p1249
aS'variable_29'
p1250
ag77
ag94
ag78
ag59
aS'variable_38'
p1251
ag18
aS'func_26'
p1252
ag6
aS'func_27'
p1253
ag6
ag48
aS'variable_21'
p1254
ag15
ag10
aS'16'
p1255
ag15
ag22
aS'variable_8'
p1256
aS'->'
p1257
aS'variable_29'
p1258
ag77
ag55
ag78
ag59
aS'variable_39'
p1259
ag18
aS'func_28'
p1260
ag6
aS'func_29'
p1261
ag6
ag48
aS'variable_21'
p1262
ag15
ag10
aS'16'
p1263
ag15
ag22
aS'if'
p1264
ag6
aS'variable_17'
p1265
ag15
aS'variable_8'
p1266
aS'->'
p1267
aS'variable_29'
p1268
ag77
ag94
ag78
ag59
aS'variable_39'
p1269
ag18
aS'func_30'
p1270
ag6
aS'func_31'
p1271
ag6
ag48
aS'variable_21'
p1272
ag15
ag10
aS'16'
p1273
ag15
ag22
aS'variable_8'
p1274
aS'->'
p1275
aS'variable_29'
p1276
ag77
ag55
ag78
ag59
aS'variable_40'
p1277
ag18
aS'func_32'
p1278
ag6
aS'func_33'
p1279
ag6
ag48
aS'variable_21'
p1280
ag15
ag10
aS'16'
p1281
ag15
ag22
aS'if'
p1282
ag6
aS'variable_17'
p1283
ag15
aS'variable_8'
p1284
aS'->'
p1285
aS'variable_29'
p1286
ag77
ag94
ag78
ag59
aS'variable_40'
p1287
ag18
aS'func_34'
p1288
ag6
aS'func_35'
p1289
ag6
ag48
aS'variable_21'
p1290
ag15
ag10
aS'16'
p1291
ag15
ag22
ag8
aS'variable_16'
p1292
aS'++'
p1293
ag18
aS'variable_8'
p1294
aS'->'
p1295
aS'variable_29'
p1296
ag77
ag55
ag78
ag59
aS'variable_40'
p1297
ag22
aS'if'
p1298
ag6
aS'variable_17'
p1299
ag15
ag8
aS'variable_16'
p1300
aS'++'
p1301
ag18
aS'variable_8'
p1302
aS'->'
p1303
aS'variable_29'
p1304
ag77
ag94
ag78
ag59
aS'variable_40'
p1305
ag22
ag8
aS'variable_16'
p1306
aS'++'
p1307
ag18
aS'variable_8'
p1308
aS'->'
p1309
aS'variable_29'
p1310
ag77
ag55
ag78
ag59
aS'variable_39'
p1311
ag22
aS'if'
p1312
ag6
aS'variable_17'
p1313
ag15
ag8
aS'variable_16'
p1314
aS'++'
p1315
ag18
aS'variable_8'
p1316
aS'->'
p1317
aS'variable_29'
p1318
ag77
ag94
ag78
ag59
aS'variable_39'
p1319
ag22
aS'for'
p1320
ag6
aS'variable_12'
p1321
ag18
ag6
aS'variable_18'
p1322
ag139
ag92
ag15
aS'>>'
p1323
ag6
ag94
ag139
aS'variable_17'
p1324
ag15
ag22
aS'variable_12'
p1325
ag149
ag55
ag22
aS'variable_12'
p1326
aS'--'
p1327
ag15
aS'int'
p1328
aS'variable_31'
p1329
ag18
aS'func_36'
p1330
ag6
ag48
aS'variable_21'
p1331
ag15
ag22
ag8
aS'variable_16'
p1332
aS'++'
p1333
ag18
aS'func_37'
p1334
ag6
ag48
aS'variable_8'
p1335
aS'->'
p1336
aS'variable_29'
p1337
ag77
ag55
ag78
ag10
aS'variable_31'
p1338
aS'>>'
p1339
ag198
ag15
ag22
ag8
aS'variable_16'
p1340
aS'++'
p1341
ag18
aS'func_38'
p1342
ag6
ag48
aS'variable_8'
p1343
aS'->'
p1344
aS'variable_29'
p1345
ag77
aS'variable_17'
p1346
ag78
ag10
aS'variable_31'
p1347
ag48
aS'0x0F'
p1348
ag15
ag22
aS'for'
p1349
ag6
aS'variable_14'
p1350
ag18
ag55
ag22
aS'variable_14'
p1351
ag54
aS'variable_1'
p1352
aS'->'
p1353
aS'variable_24'
p1354
ag22
aS'variable_14'
p1355
aS'++'
p1356
ag15
aS'variable_11'
p1357
ag18
ag48
aS'variable_8'
p1358
aS'->'
p1359
aS'variable_29'
p1360
ag77
aS'variable_14'
p1361
ag78
ag22
aS'variable_11'
p1362
aS'->'
p1363
aS'variable_27'
p1364
ag18
ag8
aS'variable_16'
p1365
aS'++'
p1366
ag18
aS'func_39'
p1367
ag6
aS'func_40'
p1368
ag6
ag48
aS'variable_21'
p1369
ag15
ag10
aS'16'
p1370
ag15
ag22
aS'variable_11'
p1371
aS'->'
p1372
aS'variable_28'
p1373
ag18
aS'func_41'
p1374
ag6
aS'func_42'
p1375
ag6
ag48
aS'variable_21'
p1376
ag15
ag10
aS'16'
p1377
ag15
ag22
aS'if'
p1378
ag6
aS'variable_11'
p1379
aS'->'
p1380
aS'variable_28'
p1381
ag149
aS'88u'
p1382
ag15
aS'for'
p1383
ag6
aS'variable_12'
p1384
ag18
aS'variable_18'
p1385
aS'>>'
p1386
ag6
ag94
ag139
aS'variable_17'
p1387
ag15
ag22
aS'variable_12'
p1388
ag149
ag55
ag22
aS'variable_12'
p1389
aS'--'
p1390
ag15
aS'int'
p1391
aS'variable_32'
p1392
ag18
aS'func_43'
p1393
ag6
ag48
aS'variable_21'
p1394
ag15
ag22
ag8
aS'variable_16'
p1395
aS'++'
p1396
ag18
aS'func_44'
p1397
ag6
ag48
aS'variable_8'
p1398
aS'->'
p1399
aS'variable_29'
p1400
ag77
ag55
ag78
ag10
aS'variable_32'
p1401
aS'>>'
p1402
ag198
ag10
ag187
ag15
ag22
ag8
aS'variable_16'
p1403
aS'++'
p1404
ag18
aS'func_45'
p1405
ag6
ag48
aS'variable_8'
p1406
aS'->'
p1407
aS'variable_29'
p1408
ag77
aS'variable_17'
p1409
ag78
ag10
aS'variable_32'
p1410
ag48
aS'0x0F'
p1411
ag10
ag187
ag15
ag22
aS'const'
p1412
aS'int16_t'
p1413
ag8
aS'variable_41'
p1414
ag18
aS'variable_16'
p1415
ag170
aS'variable_1'
p1416
aS'->'
p1417
aS'variable_24'
p1418
ag8
aS'variable_18'
p1419
ag22
aS'while'
p1420
ag6
aS'variable_16'
p1421
ag54
aS'variable_41'
p1422
ag15
aaa(lp1423
I0
aI0
aa(lp1424
I1675
aI1230
aa(lp1425
(lp1426
S'main'
p1427
aa(lp1428
g1427
aaa(lp1429
S'225 ../data/NVD/CVE_2013_0844_VULN_adpcm_decode_frame.c int16_t * smp = samples + channel ; 295'
p1430
aS'226 ../data/NVD/CVE_2013_0844_VULN_adpcm_decode_frame.c const int16_t * samples_end = samples + avctx -> channels * nb_samples ; 203'
p1431
aa.