(lp0
(lp1
(lp2
S'func_0'
p3
aS'('
p4
aS'const'
p5
aS'char'
p6
aS'*'
p7
aS'variable_0'
p8
aS')'
p9
aS'FT_Pointer'
p10
aS'variable_1'
p11
aS'='
p12
aS'NULL'
p13
aS';'
p14
aS'if'
p15
ag4
aS'variable_2'
p16
ag9
aS'if'
p17
ag4
aS'variable_2'
p18
aS'->'
p19
aS'variable_3'
p20
aS'->'
p21
aS'variable_4'
p22
ag9
aS'variable_1'
p23
ag12
aS'variable_2'
p24
aS'->'
p25
aS'variable_3'
p26
aS'->'
p27
aS'func_1'
p28
ag4
aS'variable_2'
p29
aS','
p30
aS'variable_0'
p31
ag9
ag14
aS'if'
p32
ag4
aS'variable_1'
p33
aS'=='
p34
aS'NULL'
p35
ag9
aS'FT_Library'
p36
aS'variable_5'
p37
ag12
aS'variable_2'
p38
aS'->'
p39
aS'variable_5'
p40
ag14
aS'variable_6'
p41
ag7
aS'variable_7'
p42
ag12
aS'variable_5'
p43
aS'->'
p44
aS'variable_8'
p45
ag14
aS'variable_6'
p46
ag7
aS'variable_9'
p47
ag12
aS'variable_7'
p48
aS'+'
p49
aS'variable_5'
p50
aS'->'
p51
aS'variable_10'
p52
ag14
aS'for'
p53
ag4
ag14
aS'variable_7'
p54
aS'<'
p55
aS'variable_9'
p56
ag14
aS'variable_7'
p57
aS'++'
p58
ag9
aaa(lp59
I0
aa(lp60
I67
aa(lp61
(lp62
S'main'
p63
aaa(lp64
S'196 ../data/NVD/CVE_2012_4190_PATCHED_ft_module_get_service.c FT_Module * limit = cur + library -> num_modules ; 21'
p65
aa.