(lp0
(lp1
(lp2
S'int'
p3
aS'func_0'
p4
aS'('
p5
aS'void'
p6
aS')'
p7
aS'int'
p8
aS'variable_0'
p9
aS','
p10
aS'variable_1'
p11
ag10
aS'variable_2'
p12
aS';'
p13
aS'struct'
p14
aS'variable_3'
p15
aS'*'
p16
aS'variable_4'
p17
ag13
aS'variable_0'
p18
aS'='
p19
aS'func_1'
p20
ag5
aS'variable_5'
p21
ag10
aS'variable_6'
p22
ag10
aS'variable_7'
p23
ag7
ag13
aS'variable_8'
p24
aS'.'
p25
aS'variable_9'
p26
ag19
aS'variable_5'
p27
ag13
aS'variable_8'
p28
ag25
aS'variable_10'
p29
ag19
aS'0'
p30
ag13
aS'variable_8'
p31
ag25
aS'variable_11'
p32
ag19
ag30
ag13
aS'variable_8'
p33
ag25
aS'variable_12'
p34
ag19
aS'variable_13'
p35
ag13
aS'variable_4'
p36
ag19
ag5
aS'struct'
p37
aS'cn_msg'
p38
ag16
ag7
aS'variable_14'
p39
ag13
aS'variable_4'
p40
aS'->'
p41
aS'variable_15'
p42
ag25
aS'variable_16'
p43
ag19
aS'variable_13'
p44
ag13
aS'variable_4'
p45
aS'->'
p46
aS'variable_15'
p47
ag25
aS'variable_17'
p48
ag19
aS'variable_18'
p49
ag13
aS'variable_4'
p50
aS'->'
p51
aS'variable_19'
p52
ag19
ag30
ag13
aS'variable_4'
p53
aS'->'
p54
aS'variable_1'
p55
ag19
aS'sizeof'
p56
ag5
aS'struct'
p57
aS'variable_20'
p58
ag7
ag13
aS'variable_1'
p59
ag19
aS'func_2'
p60
ag5
aS'variable_0'
p61
ag10
aS'variable_4'
p62
ag7
ag13
aS'while'
p63
ag5
aS'1'
p64
ag7
aS'struct'
p65
aS'variable_21'
p66
ag16
aS'variable_22'
p67
ag19
ag5
aS'struct'
p68
aS'sockaddr'
p69
ag16
ag7
aS'&'
p70
aS'variable_8'
p71
ag13
aS'variable_1'
p72
ag19
aS'recvfrom'
p73
ag5
aS'variable_0'
p74
ag10
aS'variable_23'
p75
ag10
aS'sizeof'
p76
ag5
aS'variable_23'
p77
ag7
ag10
ag30
ag10
aS'variable_22'
p78
ag10
ag70
aS'variable_24'
p79
ag7
ag13
aS'if'
p80
ag5
aS'variable_1'
p81
aS'<'
p82
ag30
ag7
aS'if'
p83
ag5
aS'variable_1'
p84
ag82
ag30
ag7
aS'syslog'
p85
ag5
aS'variable_25'
p86
ag10
aS'"'
p87
aS'net_link'
p88
aS'send'
p89
aS'failed'
p90
ag13
aS'error'
p91
aS':'
p92
aS'%'
p93
aS'd'
p94
ag87
ag10
aS'variable_1'
p95
ag7
ag13
aaa(lp96
I0
aa(lp97
I121
aa(lp98
(lp99
S'main'
p100
aaa(lp101
S'199 ../data/NVD/CVE_2012_5532_PATCHED_main.c recvfrom 78'
p102
aa.