(lp0
(lp1
(lp2
S'variable_0'
p3
aS':'
p4
ag4
aS'func_0'
p5
aS'('
p6
aS'variable_1'
p7
aS'*'
p8
aS'variable_2'
p9
aS'&'
p10
aS'variable_3'
p11
ag8
aS'const'
p12
aS'variable_4'
p13
ag10
aS'const'
p14
aS'variable_4'
p15
ag10
aS'variable_5'
p16
aS')'
p17
aS'const'
p18
aS'nsStyleBorder'
p19
ag8
aS'variable_6'
p20
aS'='
p21
aS'variable_7'
p22
aS'->'
p23
aS'func_1'
p24
ag6
ag17
aS';'
p25
aS'variable_8'
p26
ag8
aS'variable_9'
p27
ag21
aS'variable_6'
p28
aS'->'
p29
aS'variable_10'
p30
ag25
aS'if'
p31
ag6
aS'!'
p32
aS'variable_9'
p33
ag17
aS'nscoord'
p34
aS'variable_11'
p35
ag21
aS'variable_12'
p36
aS'->'
p37
aS'func_2'
p38
ag6
aS'1'
p39
ag17
ag25
aS'bool'
p40
aS'variable_13'
p41
ag25
aS'bool'
p42
aS'variable_14'
p43
ag25
aS'const'
p44
aS'nsStyleDisplay'
p45
ag8
aS'variable_15'
p46
ag21
aS'variable_7'
p47
aS'->'
p48
aS'func_3'
p49
ag6
ag17
ag25
aS'variable_16'
p50
ag4
ag4
aS'Transparency'
p51
aS'variable_17'
p52
ag25
aS'if'
p53
ag6
aS'variable_7'
p54
aS'->'
p55
aS'func_4'
p56
ag6
aS'variable_15'
p57
aS','
p58
ag10
aS'variable_17'
p59
ag17
ag17
aS'variable_13'
p60
ag21
aS'false'
p61
ag25
aS'variable_14'
p62
ag21
aS'variable_17'
p63
aS'!='
p64
aS'variable_16'
p65
ag4
ag4
aS'variable_18'
p66
ag25
aS'variable_14'
p67
ag21
aS'false'
p68
ag25
aS'nscoord'
p69
aS'variable_19'
p70
aS'['
p71
aS'8'
p72
aS']'
p73
ag25
aS'variable_13'
p74
ag21
aS'variable_7'
p75
aS'->'
p76
aS'func_5'
p77
ag6
aS'variable_19'
p78
ag17
ag25
aS'nsRect'
p79
aS'variable_20'
p80
ag21
aS'variable_14'
p81
aS'?'
p82
aS'variable_7'
p83
aS'->'
p84
aS'func_6'
p85
ag6
ag17
aS'+'
p86
aS'variable_21'
p87
aS'.'
p88
aS'func_7'
p89
ag6
ag17
ag4
aS'variable_21'
p90
ag25
aS'bool'
p91
aS'variable_22'
p92
ag21
aS'true'
p93
ag25
aS'if'
p94
ag6
aS'variable_14'
p95
ag17
aS'variable_22'
p96
ag21
ag32
aS'variable_7'
p97
aS'->'
p98
aS'func_8'
p99
ag6
ag17
ag25
aS'nsRect'
p100
aS'variable_23'
p101
ag21
aS'variable_7'
p102
aS'->'
p103
aS'func_9'
p104
ag6
ag17
aS'-'
p105
aS'variable_7'
p106
aS'->'
p107
aS'func_10'
p108
ag6
ag17
ag86
aS'variable_21'
p109
ag88
aS'func_11'
p110
ag6
ag17
ag25
aS'variable_24'
p111
ag21
aS'variable_25'
p112
ag4
ag4
aS'func_12'
p113
ag6
aS'variable_23'
p114
ag58
aS'variable_11'
p115
ag17
ag25
aS'for'
p116
ag6
aS'uint32_t'
p117
aS'variable_26'
p118
ag21
aS'variable_9'
p119
aS'->'
p120
aS'func_13'
p121
ag6
ag17
ag25
aS'variable_26'
p122
aS'>'
p123
aS'0'
p124
ag25
aS'--'
p125
aS'variable_26'
p126
ag17
aS'variable_27'
p127
ag8
aS'variable_28'
p128
ag21
aS'variable_9'
p129
aS'->'
p130
aS'func_14'
p131
ag6
aS'variable_26'
p132
ag105
ag39
ag17
ag25
aS'if'
p133
ag6
aS'variable_28'
p134
aS'->'
p135
aS'variable_29'
p136
ag17
aS'nsRect'
p137
aS'variable_30'
p138
ag21
aS'variable_20'
p139
ag25
aS'nscoord'
p140
aS'variable_31'
p141
ag25
aS'if'
p142
ag6
aS'variable_14'
p143
ag17
aS'variable_31'
p144
ag21
aS'variable_28'
p145
aS'->'
p146
aS'variable_32'
p147
ag25
aS'variable_31'
p148
ag21
ag124
ag25
aS'nscoord'
p149
aS'variable_33'
p150
ag21
aS'variable_28'
p151
aS'->'
p152
aS'variable_34'
p153
ag25
aS'variable_35'
p154
ag8
aS'variable_36'
p155
ag21
aS'variable_37'
p156
ag88
aS'func_15'
p157
ag6
ag17
ag25
aS'nsContextBoxBlur'
p158
aS'variable_38'
p159
ag25
aS'variable_35'
p160
ag8
aS'variable_39'
p161
ag21
aS'variable_38'
p162
ag88
aS'func_16'
p163
ag6
aS'variable_30'
p164
ag58
aS'variable_31'
p165
ag58
aS'variable_33'
p166
ag58
aS'variable_11'
p167
ag58
aS'variable_36'
p168
ag58
aS'variable_5'
p169
ag58
aS'variable_22'
p170
ag82
ag10
aS'variable_24'
p171
ag4
aS'variable_40'
p172
ag58
aS'variable_14'
p173
ag82
aS'variable_41'
p174
ag4
ag4
aS'variable_42'
p175
ag4
ag124
ag17
ag25
aS'if'
p176
ag6
ag32
aS'variable_39'
p177
ag17
aS'if'
p178
ag6
aS'variable_14'
p179
ag17
aS'if'
p180
ag6
aS'variable_13'
p181
ag17
aS'gfxFloat'
p182
aS'variable_43'
p183
ag21
aS'variable_28'
p184
aS'->'
p185
aS'variable_32'
p186
aS'/'
p187
aS'variable_11'
p188
ag25
aS'variable_44'
p189
ag71
aS'variable_45'
p190
ag73
ag21
aS'variable_43'
p191
ag25
aS'variable_44'
p192
ag71
aS'variable_46'
p193
ag73
ag21
aS'variable_43'
p194
ag25
aS'variable_44'
p195
ag71
aS'variable_47'
p196
ag73
ag21
aS'variable_43'
p197
ag25
aS'variable_44'
p198
ag71
aS'variable_48'
p199
ag73
ag21
aS'variable_43'
p200
ag25
aS'variable_49'
p201
ag4
ag4
aS'func_17'
p202
ag6
aS'variable_50'
p203
ag58
aS'variable_44'
p204
ag58
ag10
aS'variable_51'
p205
ag17
ag25
aaa(lp206
I0
aa(lp207
I327
aa(lp208
(lp209
S'main'
p210
aaa(lp211
S'217 ../data/NVD/CVE_2013_0777_PATCHED_nsCSSRendering__PaintBoxShadowOuter.c gfxFloat spreadDistance = shadowItem -> mSpread / twipsPerPixel ; 157'
p212
aa.