(lp0
(lp1
(lp2
S'func_0'
p3
aS'('
p4
aS'LPCWSTR'
p5
aS'variable_0'
p6
aS','
p7
aS'variable_1'
p8
aS'&'
p9
aS'variable_2'
p10
aS')'
p11
aS'WCHAR'
p12
aS'variable_3'
p13
aS'['
p14
aS'variable_4'
p15
aS'+'
p16
aS'1'
p17
aS']'
p18
aS';'
p19
aS'wcscpy'
p20
ag4
aS'variable_3'
p21
ag7
aS'variable_0'
p22
ag11
ag19
aS'if'
p23
ag4
aS'!'
p24
aS'func_1'
p25
ag4
aS'variable_3'
p26
ag7
aS'variable_5'
p27
aS'"'
p28
aS'update'
p29
aS'.'
p30
aS'status'
p31
ag28
ag11
ag11
aS'nsAutoHandle'
p32
aS'func_2'
p33
ag4
aS'func_3'
p34
ag4
aS'variable_3'
p35
ag7
aS'variable_6'
p36
ag7
aS'variable_7'
p37
aS'|'
p38
aS'variable_8'
p39
ag38
aS'variable_9'
p40
ag7
aS'NULL'
p41
ag7
aS'variable_10'
p42
ag7
aS'0'
p43
ag7
aS'NULL'
p44
ag11
ag11
ag19
aS'if'
p45
ag4
aS'variable_11'
p46
aS'=='
p47
aS'variable_12'
p48
ag11
aS'if'
p49
ag4
ag24
aS'ReadFile'
p50
ag4
aS'variable_12'
p51
ag7
aS'variable_13'
p52
ag7
aS'sizeof'
p53
ag4
aS'variable_13'
p54
ag11
ag7
ag9
aS'variable_14'
p55
ag7
aS'NULL'
p56
ag11
ag11
aaa(lp57
I0
aa(lp58
I17
aa(lp59
(lp60
S'main'
p61
aaa(lp62
S'77 ../data/NVD/CVE_2013_0799_VULN_IsStatusApplying.c wcscpy 6'
p63
aa.