(lp0
(lp1
(lp2
S'int'
p3
aS'func_0'
p4
aS'('
p5
aS'struct'
p6
aS'variable_0'
p7
aS'*'
p8
aS'variable_1'
p9
aS','
p10
aS'int'
p11
aS'variable_2'
p12
ag10
aS'char'
p13
aS'variable_3'
p14
ag8
aS'variable_4'
p15
ag10
aS'unsigned'
p16
aS'int'
p17
aS'variable_5'
p18
aS')'
p19
aS'struct'
p20
aS'variable_1'
p21
ag8
aS'variable_6'
p22
aS'='
p23
aS'variable_1'
p24
aS'->'
p25
aS'variable_6'
p26
aS';'
p27
aS'int'
p28
aS'variable_7'
p29
ag27
aS'struct'
p30
aS'linger'
p31
aS'variable_8'
p32
ag27
aS'if'
p33
ag5
aS'variable_9'
p34
aS'=='
p35
aS'variable_10'
p36
ag19
aS'if'
p37
ag5
aS'variable_5'
p38
aS'<'
p39
aS'sizeof'
p40
ag5
aS'int'
p41
ag19
ag19
aS'if'
p42
ag5
aS'func_1'
p43
ag5
aS'variable_7'
p44
ag10
ag5
aS'int'
p45
aS'__user'
p46
ag8
ag19
aS'variable_4'
p47
ag19
ag19
aS'switch'
p48
ag5
aS'variable_9'
p49
ag19
aS'if'
p50
ag5
aS'variable_5'
p51
ag39
aS'sizeof'
p52
ag5
aS'variable_8'
p53
ag19
ag19
aS'if'
p54
ag5
aS'func_2'
p55
ag5
aS'&'
p56
aS'variable_8'
p57
ag10
aS'variable_4'
p58
ag10
aS'sizeof'
p59
ag5
aS'variable_8'
p60
ag19
ag19
ag19
aS'if'
p61
ag5
aS'!'
p62
aS'variable_8'
p63
aS'.'
p64
aS'variable_11'
p65
ag19
aS'if'
p66
ag5
ag5
aS'unsigned'
p67
aS'int'
p68
ag19
aS'variable_8'
p69
ag64
aS'variable_12'
p70
aS'>'
p71
ag23
aS'variable_13'
p72
aS'/'
p73
aS'variable_14'
p74
ag19
aS'variable_6'
p75
aS'->'
p76
aS'variable_15'
p77
ag23
ag5
aS'unsigned'
p78
aS'int'
p79
ag19
aS'variable_8'
p80
ag64
aS'variable_12'
p81
ag8
aS'variable_14'
p82
ag27
aS'func_3'
p83
ag5
aS'variable_6'
p84
ag10
aS'variable_16'
p85
ag19
ag27
aaa(lp86
I0
aa(lp87
I126
aa(lp88
(lp89
S'main'
p90
aaa(lp91
S'98 ../data/NVD/CVE_2012_6657_PATCHED_sock_setsockopt.c sk -> sk_lingertime = ( unsigned int ) ling . l_linger * HZ 157'
p92
aa.