(lp0
(lp1
(lp2
S'func_0'
p3
aS'('
p4
aS'variable_0'
p5
aS'*'
p6
aS'variable_1'
p7
aS','
p8
aS'unsigned'
p9
aS'variable_2'
p10
ag8
aS'variable_3'
p11
ag6
aS'variable_4'
p12
aS')'
p13
aS'CallArgs'
p14
aS'variable_5'
p15
aS'='
p16
aS'func_1'
p17
ag4
aS'variable_2'
p18
ag8
aS'variable_4'
p19
ag13
aS';'
p20
aS'bool'
p21
aS'variable_6'
p22
ag16
aS'false'
p23
ag20
aS'const'
p24
aS'jschar'
p25
ag6
aS'variable_7'
p26
ag20
aS'size_t'
p27
aS'variable_8'
p28
ag20
aS'variable_3'
p29
ag6
aS'variable_9'
p30
ag20
aS'variable_10'
p31
ag6
aS'variable_11'
p32
aS'['
p33
aS'2'
p34
aS']'
p35
ag20
aS'Value'
p36
aS'variable_12'
p37
ag33
aS'4'
p38
ag35
ag20
aS'bool'
p39
aS'variable_13'
p40
ag16
ag4
aS'variable_1'
p41
aS'->'
p42
aS'variable_14'
p43
aS'.'
p44
aS'variable_15'
p45
aS'=='
p46
aS'0'
p47
ag13
ag20
aS'RootedObject'
p48
aS'func_2'
p49
ag4
aS'variable_1'
p50
ag8
aS'func_3'
p51
ag4
aS'variable_1'
p52
ag8
aS'variable_5'
p53
ag44
aS'func_4'
p54
ag4
ag13
ag13
ag13
ag20
aS'if'
p55
ag4
aS'!'
p56
aS'variable_16'
p57
ag13
aS'variable_17'
p58
ag6
aS'variable_18'
p59
ag20
aS'if'
p60
ag4
ag56
aS'func_5'
p61
ag4
aS'variable_1'
p62
ag8
aS'variable_16'
p63
ag8
aS'&'
p64
aS'variable_18'
p65
ag8
ag64
aS'variable_19'
p66
ag8
ag64
aS'variable_20'
p67
ag13
ag13
aS'if'
p68
ag4
ag56
aS'variable_18'
p69
ag13
aS'StringBuffer'
p70
aS'func_6'
p71
ag4
aS'variable_1'
p72
ag13
ag20
aS'if'
p73
ag4
aS'variable_13'
p74
aS'&&'
p75
ag56
aS'variable_21'
p76
ag44
aS'func_7'
p77
ag4
aS"'"
p78
ag4
ag78
ag13
ag13
aS'if'
p79
ag4
ag56
aS'variable_21'
p80
ag44
aS'func_8'
p81
ag4
ag78
aS'{'
p82
ag78
ag13
ag13
aS'variable_9'
p83
ag16
aS'variable_12'
p84
aS'+'
p85
ag34
ag20
aS'RootedId'
p86
aS'func_9'
p87
ag4
aS'variable_1'
p88
ag13
ag20
aS'for'
p89
ag4
aS'int'
p90
aS'variable_22'
p91
ag16
ag47
ag20
aS'variable_22'
p92
aS'<'
p93
aS'variable_18'
p94
aS'->'
p95
aS'variable_23'
p96
ag20
aS'variable_22'
p97
aS'++'
p98
ag13
aS'variable_24'
p99
ag16
aS'variable_18'
p100
aS'->'
p101
aS'variable_25'
p102
ag33
aS'variable_22'
p103
ag35
ag20
aS'variable_26'
p104
ag93
aS'variable_27'
p105
ag6
aS'>'
p106
aS'func_10'
p107
ag4
aS'variable_1'
p108
ag13
ag20
aS'RootedObject'
p109
aS'func_11'
p110
ag4
aS'variable_1'
p111
ag13
ag20
aS'RootedShape'
p112
aS'func_12'
p113
ag4
aS'variable_1'
p114
ag13
ag20
aS'if'
p115
ag4
ag56
aS'variable_28'
p116
aS':'
p117
ag117
aS'func_13'
p118
ag4
aS'variable_1'
p119
ag8
aS'variable_16'
p120
ag8
aS'variable_24'
p121
ag8
ag64
aS'variable_29'
p122
ag8
ag64
aS'variable_30'
p123
ag13
ag13
aS'variable_10'
p124
ag6
aS'variable_31'
p125
ag16
aS'func_14'
p126
ag4
aS'variable_1'
p127
ag8
aS'func_15'
p128
ag4
aS'variable_24'
p129
ag13
ag13
ag20
aS'if'
p130
ag4
ag56
aS'variable_31'
p131
aS'||'
p132
ag56
ag4
aS'variable_32'
p133
ag16
aS'variable_31'
p134
aS'->'
p135
aS'func_16'
p136
ag4
aS'variable_1'
p137
ag13
ag13
ag13
aS'int'
p138
aS'variable_33'
p139
ag16
ag47
ag20
aS'if'
p140
ag4
aS'variable_30'
p141
ag13
aS'bool'
p142
aS'variable_34'
p143
ag16
aS'true'
p144
ag20
aS'if'
p145
ag4
aS'variable_29'
p146
aS'->'
p147
aS'func_17'
p148
ag4
ag13
ag13
aS'variable_35'
p149
ag6
aS'variable_36'
p150
ag16
ag4
aS'Shape'
p151
ag6
ag13
aS'variable_30'
p152
ag20
aS'unsigned'
p153
aS'variable_37'
p154
ag16
aS'variable_36'
p155
aS'->'
p156
aS'func_18'
p157
ag4
ag13
ag20
aS'if'
p158
ag4
aS'variable_37'
p159
ag64
aS'variable_38'
p160
ag13
aS'variable_34'
p161
ag16
aS'false'
p162
ag20
aS'variable_9'
p163
ag33
aS'variable_33'
p164
ag35
ag16
aS'variable_36'
p165
aS'->'
p166
aS'func_19'
p167
ag4
ag13
ag20
aS'variable_11'
p168
ag33
aS'variable_33'
p169
ag35
ag16
aS'variable_1'
p170
aS'->'
p171
aS'variable_39'
p172
aS'->'
p173
aS'variable_40'
p174
ag44
aS'variable_41'
p175
ag20
aS'variable_33'
p176
aS'++'
p177
ag20
aS'if'
p178
ag4
aS'variable_37'
p179
ag64
aS'variable_42'
p180
ag13
aS'variable_34'
p181
ag16
aS'false'
p182
ag20
aS'variable_9'
p183
ag33
aS'variable_33'
p184
ag35
ag16
aS'variable_36'
p185
aS'->'
p186
aS'func_20'
p187
ag4
ag13
ag20
aS'variable_11'
p188
ag33
aS'variable_33'
p189
ag35
ag16
aS'variable_1'
p190
aS'->'
p191
aS'variable_39'
p192
aS'->'
p193
aS'variable_40'
p194
ag44
aS'variable_43'
p195
ag20
aS'variable_33'
p196
aS'++'
p197
ag20
aS'if'
p198
ag4
aS'variable_34'
p199
ag13
aS'variable_33'
p200
ag16
aS'1'
p201
ag20
aS'variable_11'
p202
ag33
ag47
ag35
ag16
aS'NULL'
p203
ag20
aS'MutableHandleValue'
p204
aS'variable_4'
p205
ag16
aS'variable_44'
p206
ag117
ag117
aS'func_21'
p207
ag4
ag64
aS'variable_9'
p208
ag33
ag47
ag35
ag13
ag20
aS'if'
p209
ag4
ag56
aS'variable_28'
p210
ag117
ag117
aS'func_22'
p211
ag4
aS'variable_1'
p212
ag8
aS'variable_16'
p213
ag8
aS'variable_16'
p214
ag8
aS'variable_24'
p215
ag8
aS'variable_4'
p216
ag13
ag13
aS'if'
p217
ag4
aS'func_23'
p218
ag4
aS'variable_24'
p219
ag13
aS'?'
p220
ag56
aS'func_24'
p221
ag4
aS'variable_32'
p222
ag13
ag117
ag4
ag56
aS'func_25'
p223
ag4
aS'variable_24'
p224
ag13
aS'||'
p225
aS'func_26'
p226
ag4
aS'variable_24'
p227
ag13
ag93
ag47
ag13
ag13
aS'variable_31'
p228
ag16
aS'func_27'
p229
ag4
aS'variable_1'
p230
ag8
aS'variable_32'
p231
ag8
aS'func_28'
p232
ag4
ag78
aS'\\'
p233
ag78
aS'if'
p234
ag4
ag56
aS'variable_31'
p235
aS'||'
p236
ag56
ag4
aS'variable_32'
p237
ag16
aS'variable_31'
p238
aS'->'
p239
aS'func_29'
p240
ag4
aS'variable_1'
p241
ag13
ag13
ag13
aS'for'
p242
ag4
aS'int'
p243
aS'variable_45'
p244
ag16
ag47
ag20
aS'variable_45'
p245
ag93
aS'variable_33'
p246
ag20
aS'variable_45'
p247
aS'++'
p248
ag13
aS'if'
p249
ag4
aS'variable_11'
p250
ag33
aS'variable_45'
p251
ag35
aS'&&'
p252
aS'variable_9'
p253
ag33
aS'variable_45'
p254
ag35
ag44
aS'func_30'
p255
ag4
ag13
ag13
aS'variable_10'
p256
ag6
aS'variable_46'
p257
ag16
aS'func_31'
p258
ag4
aS'variable_1'
p259
ag8
aS'variable_9'
p260
ag33
aS'variable_45'
p261
ag35
ag13
ag20
aS'if'
p262
ag4
ag56
aS'variable_46'
p263
ag13
aS'variable_7'
p264
ag16
aS'variable_46'
p265
aS'->'
p266
aS'func_32'
p267
ag4
aS'variable_1'
p268
ag13
ag20
aS'if'
p269
ag4
ag56
aS'variable_7'
p270
ag13
aS'variable_8'
p271
ag16
aS'variable_46'
p272
aS'->'
p273
aS'func_33'
p274
ag4
ag13
ag20
aS'if'
p275
ag4
aS'variable_11'
p276
ag33
aS'variable_45'
p277
ag35
aS'&&'
p278
aS'func_34'
p279
ag4
aS'variable_9'
p280
ag33
aS'variable_45'
p281
ag35
ag13
ag13
aS'const'
p282
aS'jschar'
p283
ag6
aS'variable_47'
p284
ag16
aS'variable_7'
p285
ag20
aS'const'
p286
aS'jschar'
p287
ag6
aS'variable_48'
p288
ag16
aS'variable_7'
p289
ag85
aS'variable_8'
p290
ag20
aS'uint8_t'
p291
aS'variable_49'
p292
ag16
ag47
ag20
aS'if'
p293
ag4
aS'variable_7'
p294
ag33
ag47
ag35
aS'=='
p295
ag78
ag4
ag78
ag13
aS'variable_7'
p296
aS'++'
p297
ag20
aS'variable_49'
p298
ag16
ag201
ag20
aS'if'
p299
ag4
aS'variable_7'
p300
ag13
aS'variable_7'
p301
ag16
aS'func_35'
p302
ag4
aS'variable_7'
p303
ag8
ag78
ag78
ag8
aS'variable_48'
p304
ag13
ag20
aS'if'
p305
ag4
aS'variable_7'
p306
ag13
aS'variable_7'
p307
ag16
aS'func_36'
p308
ag4
aS'variable_7'
p309
ag8
ag78
ag4
ag78
ag8
aS'variable_48'
p310
ag13
ag20
aS'if'
p311
ag4
aS'variable_7'
p312
ag13
aS'if'
p313
ag4
ag6
aS'variable_7'
p314
aS'=='
p315
ag78
ag78
ag13
aS'variable_7'
p316
aS'++'
p317
ag20
aS'variable_8'
p318
ag16
aS'variable_48'
p319
aS'-'
p320
aS'variable_7'
p321
ag320
aS'variable_49'
p322
ag20
aS'variable_11'
p323
ag33
aS'variable_45'
p324
ag35
ag16
aS'NULL'
p325
ag20
aS'variable_7'
p326
ag16
aS'variable_47'
p327
ag20
aS'if'
p328
ag4
aS'variable_6'
p329
aS'&&'
p330
ag56
aS'variable_21'
p331
ag44
aS'func_37'
p332
ag4
aS'"'
p333
ag8
ag333
ag13
ag13
aS'variable_6'
p334
ag16
aS'true'
p335
ag20
aS'if'
p336
ag4
aS'variable_11'
p337
ag33
aS'variable_45'
p338
ag35
ag13
aS'if'
p339
ag4
ag56
aS'variable_21'
p340
ag44
aS'func_38'
p341
ag4
aS'variable_11'
p342
ag33
aS'variable_45'
p343
ag35
ag13
aS'||'
p344
ag56
aS'variable_21'
p345
ag44
aS'func_39'
p346
ag4
ag78
ag78
ag13
ag13
aS'if'
p347
ag4
ag56
aS'variable_21'
p348
ag44
aS'func_40'
p349
ag4
aS'variable_32'
p350
ag13
ag13
aS'if'
p351
ag4
ag56
aS'variable_21'
p352
ag44
aS'func_41'
p353
ag4
aS'variable_11'
p354
ag33
aS'variable_45'
p355
ag35
ag220
ag78
ag78
ag117
ag78
ag117
ag78
ag13
ag13
aS'if'
p356
ag4
ag56
aS'variable_21'
p357
ag44
aS'func_42'
p358
ag4
aS'variable_7'
p359
ag8
aS'variable_8'
p360
ag13
ag13
aaa(lp361
I0
aa(lp362
I664
aa(lp363
(lp364
S'main'
p365
aaa(lp366
S'112 ../data/NVD/CVE_2013_0756_VULN_obj_toSource.c vlength = end - vchars - parenChomp 182'
p367
aa.