(lp0
(lp1
(lp2
S'static'
p3
aS'int'
p4
aS'func_0'
p5
aS'('
p6
aS'struct'
p7
aS'variable_0'
p8
aS'*'
p9
aS'variable_1'
p10
aS','
p11
aS'u64'
p12
aS'variable_2'
p13
ag11
aS'struct'
p14
aS'iovec'
p15
aS'variable_3'
p16
aS'['
p17
aS']'
p18
ag11
aS'int'
p19
aS'variable_4'
p20
aS')'
p21
aS'const'
p22
aS'struct'
p23
aS'variable_5'
p24
ag9
aS'variable_6'
p25
aS';'
p26
aS'struct'
p27
aS'variable_7'
p28
ag9
aS'variable_8'
p29
ag26
aS'struct'
p30
aS'variable_9'
p31
ag9
aS'variable_10'
p32
ag26
aS'u64'
p33
aS'variable_11'
p34
aS'='
p35
aS'0'
p36
ag26
aS'int'
p37
aS'variable_12'
p38
ag35
ag36
ag26
aS'variable_8'
p39
ag35
aS'func_1'
p40
ag6
aS'variable_1'
p41
aS'->'
p42
aS'variable_13'
p43
ag21
ag26
aS'while'
p44
ag6
ag6
aS'variable_14'
p45
ag21
aS'variable_15'
p46
aS'>'
p47
aS'variable_11'
p48
ag21
aS'u64'
p49
aS'variable_16'
p50
ag26
aS'if'
p51
ag6
aS'func_2'
p52
ag6
aS'variable_12'
p53
ag47
ag35
aS'variable_4'
p54
ag21
ag21
aS'variable_6'
p55
ag35
aS'func_3'
p56
ag6
aS'variable_8'
p57
ag11
aS'variable_2'
p58
ag11
aS'variable_15'
p59
ag21
ag26
aS'if'
p60
ag6
aS'func_4'
p61
ag6
aS'!'
p62
aS'variable_6'
p63
ag21
ag21
aS'variable_10'
p64
ag35
aS'variable_3'
p65
aS'+'
p66
aS'variable_12'
p67
ag26
aS'variable_16'
p68
ag35
aS'variable_6'
p69
aS'->'
p70
aS'variable_17'
p71
aS'-'
p72
aS'variable_2'
p73
ag66
aS'variable_6'
p74
aS'->'
p75
aS'variable_18'
p76
ag26
aS'variable_10'
p77
aS'->'
p78
aS'variable_19'
p79
ag35
aS'min'
p80
ag6
ag6
aS'variable_14'
p81
ag21
aS'variable_15'
p82
ag72
aS'variable_11'
p83
ag11
aS'variable_16'
p84
ag21
ag26
aS'variable_10'
p85
aS'->'
p86
aS'variable_20'
p87
ag35
ag6
aS'void'
p88
aS'__user'
p89
ag9
ag21
ag6
aS'unsigned'
p90
aS'long'
p91
ag21
ag6
aS'variable_6'
p92
aS'->'
p93
aS'variable_21'
p94
ag66
aS'variable_2'
p95
ag72
aS'variable_6'
p96
aS'->'
p97
aS'variable_18'
p98
ag21
ag26
aS'variable_11'
p99
aS'+='
p100
aS'variable_16'
p101
ag26
aS'variable_2'
p102
aS'+='
p103
aS'variable_16'
p104
ag26
aa(lp105
S'static'
p106
aS'int'
p107
aS'func_0'
p108
ag6
aS'struct'
p109
aS'variable_0'
p110
ag9
aS'variable_1'
p111
ag11
aS'u64'
p112
aS'variable_2'
p113
ag11
aS'struct'
p114
aS'iovec'
p115
aS'variable_3'
p116
ag17
ag18
ag11
aS'int'
p117
aS'variable_4'
p118
ag21
aS'const'
p119
aS'struct'
p120
aS'variable_5'
p121
ag9
aS'variable_6'
p122
ag26
aS'struct'
p123
aS'variable_7'
p124
ag9
aS'variable_8'
p125
ag26
aS'u64'
p126
aS'variable_9'
p127
ag35
ag36
ag26
aS'int'
p128
aS'variable_10'
p129
ag35
ag36
ag26
aS'variable_8'
p130
ag35
aS'func_1'
p131
ag6
aS'variable_1'
p132
aS'->'
p133
aS'variable_11'
p134
ag21
ag26
aS'while'
p135
ag6
ag6
aS'variable_12'
p136
ag21
aS'variable_13'
p137
ag47
aS'variable_9'
p138
ag21
aS'u64'
p139
aS'variable_14'
p140
ag26
aS'if'
p141
ag6
aS'func_2'
p142
ag6
aS'variable_10'
p143
ag47
ag35
aS'variable_4'
p144
ag21
ag21
aS'variable_6'
p145
ag35
aS'func_3'
p146
ag6
aS'variable_8'
p147
ag11
aS'variable_2'
p148
ag11
aS'variable_13'
p149
ag21
ag26
aS'if'
p150
ag6
aS'func_4'
p151
ag6
ag62
aS'variable_6'
p152
ag21
ag21
aS'variable_14'
p153
ag35
aS'variable_6'
p154
aS'->'
p155
aS'variable_15'
p156
ag72
aS'variable_2'
p157
ag66
aS'variable_6'
p158
aS'->'
p159
aS'variable_16'
p160
ag26
aS'variable_17'
p161
aS'->'
p162
aS'variable_18'
p163
ag35
aS'min'
p164
ag6
ag6
aS'variable_12'
p165
ag21
aS'variable_13'
p166
ag72
aS'variable_9'
p167
ag11
aS'variable_14'
p168
ag21
ag26
aS'variable_17'
p169
aS'->'
p170
aS'variable_19'
p171
ag35
ag6
aS'void'
p172
aS'__user'
p173
ag9
ag21
ag6
aS'unsigned'
p174
aS'long'
p175
ag21
ag6
aS'variable_6'
p176
aS'->'
p177
aS'variable_20'
p178
ag66
aS'variable_2'
p179
ag72
aS'variable_6'
p180
aS'->'
p181
aS'variable_16'
p182
ag21
ag26
aS'variable_9'
p183
aS'+='
p184
aS'variable_14'
p185
ag26
aS'variable_2'
p186
aS'+='
p187
aS'variable_14'
p188
ag26
aaa(lp189
I0
aI0
aa(lp190
I138
aI101
aa(lp191
(lp192
S'main'
p193
aa(lp194
g193
aaa(lp195
S'104 ../data/NVD/CVE_2013_0311_PATCHED_translate_desc.c _iov -> iov_base = ( void __user * ) ( unsigned long ) ( reg -> userspace_addr + addr - reg -> guest_phys_addr ) 27'
p196
aS'106 ../data/NVD/CVE_2013_0311_PATCHED_translate_desc.c size = reg -> memory_size - addr + reg -> guest_phys_addr 25'
p197
aa.