(lp0
(lp1
(lp2
S'func_0'
p3
aS'('
p4
aS'char'
p5
aS'*'
p6
aS'void'
p7
ag6
aS'void'
p8
ag6
aS'variable_0'
p9
aS')'
p10
aS'variable_1'
p11
ag6
aS'variable_2'
p12
aS';'
p13
aS'variable_3'
p14
ag6
aS'variable_4'
p15
ag13
aS'variable_5'
p16
ag6
aS'variable_6'
p17
ag13
aS'variable_2'
p18
aS'='
p19
ag4
aS'_bdf_parse_t'
p20
ag6
ag10
aS'variable_0'
p21
ag13
aS'variable_6'
p22
ag19
aS'variable_2'
p23
aS'->'
p24
aS'variable_6'
p25
ag13
aS'if'
p26
ag4
aS'func_1'
p27
ag4
aS'variable_7'
p28
aS','
p29
aS'"'
p30
aS'COMMENT'
p31
ag30
ag29
aS'7'
p32
ag10
aS'=='
p33
aS'0'
p34
ag10
aS'if'
p35
ag4
aS'!'
p36
ag4
aS'variable_2'
p37
aS'->'
p38
aS'variable_8'
p39
aS'&'
p40
aS'variable_9'
p41
ag10
ag10
aS'if'
p42
ag4
aS'func_2'
p43
ag4
aS'variable_7'
p44
ag29
ag30
aS'ENDFONT'
p45
ag30
ag29
ag32
ag10
aS'=='
p46
ag34
ag10
aS'if'
p47
ag4
aS'func_3'
p48
ag4
aS'variable_7'
p49
ag29
ag30
aS'ENDCHAR'
p50
ag30
ag29
ag32
ag10
aS'=='
p51
ag34
ag10
aS'if'
p52
ag4
ag4
aS'variable_2'
p53
aS'->'
p54
aS'variable_8'
p55
ag40
aS'variable_10'
p56
ag10
aS'&&'
p57
aS'variable_2'
p58
aS'->'
p59
aS'variable_11'
p60
aS'=='
p61
aS'-'
p62
aS'1'
p63
aS'&&'
p64
aS'variable_2'
p65
aS'->'
p66
aS'variable_12'
p67
aS'->'
p68
aS'variable_13'
p69
aS'=='
p70
ag34
ag10
aS'if'
p71
ag4
aS'func_4'
p72
ag4
aS'variable_7'
p73
ag29
ag30
aS'STARTCHAR'
p74
ag30
ag29
aS'9'
p75
ag10
aS'=='
p76
ag34
ag10
aS'if'
p77
ag4
aS'func_5'
p78
ag4
aS'variable_7'
p79
ag29
ag30
aS'ENCODING'
p80
ag30
ag29
aS'8'
p81
ag10
aS'=='
p82
ag34
ag10
aS'if'
p83
ag4
aS'variable_2'
p84
aS'->'
p85
aS'variable_11'
p86
aS'=='
p87
ag62
ag63
ag10
aS'variable_4'
p88
ag19
aS'variable_6'
p89
aS'->'
p90
aS'variable_14'
p91
aS'+'
p92
ag4
aS'variable_6'
p93
aS'->'
p94
aS'variable_15'
p95
ag62
ag63
ag10
ag13
aS'variable_4'
p96
ag19
aS'variable_6'
p97
aS'->'
p98
aS'variable_16'
p99
ag92
ag4
aS'variable_6'
p100
aS'->'
p101
aS'variable_17'
p102
ag62
ag63
ag10
ag13
aS'if'
p103
ag4
aS'variable_2'
p104
aS'->'
p105
aS'variable_8'
p106
ag40
aS'variable_18'
p107
ag10
aS'if'
p108
ag4
aS'func_6'
p109
ag4
aS'variable_7'
p110
ag29
ag30
aS'SWIDTH'
p111
ag30
ag29
aS'6'
p112
ag10
aS'=='
p113
ag34
ag10
aS'if'
p114
ag4
aS'func_7'
p115
ag4
aS'variable_7'
p116
ag29
ag30
aS'DWIDTH'
p117
ag30
ag29
ag112
ag10
aS'=='
p118
ag34
ag10
aS'if'
p119
ag4
aS'func_8'
p120
ag4
aS'variable_7'
p121
ag29
ag30
aS'BBX'
p122
ag30
ag29
aS'3'
p123
ag10
aS'=='
p124
ag34
ag10
aS'if'
p125
ag4
ag36
ag4
aS'variable_2'
p126
aS'->'
p127
aS'variable_8'
p128
ag40
aS'variable_19'
p129
ag10
ag10
aS'variable_20'
p130
ag19
aS'func_9'
p131
ag4
ag40
aS'variable_2'
p132
aS'->'
p133
aS'variable_21'
p134
ag29
ag4
aS'char'
p135
ag6
ag10
ag30
ag92
ag30
ag29
aS'variable_7'
p136
ag29
aS'variable_22'
p137
ag10
ag13
aS'if'
p138
ag4
aS'variable_20'
p139
ag10
aS'variable_4'
p140
aS'->'
p141
aS'variable_23'
p142
aS'.'
p143
aS'variable_24'
p144
ag19
aS'func_10'
p145
ag4
aS'variable_2'
p146
aS'->'
p147
aS'variable_21'
p148
ag143
aS'variable_25'
p149
aS'['
p150
ag63
aS']'
p151
ag29
ag34
ag29
aS'10'
p152
ag10
ag13
aS'variable_4'
p153
aS'->'
p154
aS'variable_23'
p155
ag143
aS'variable_26'
p156
ag19
aS'func_11'
p157
ag4
aS'variable_2'
p158
aS'->'
p159
aS'variable_21'
p160
ag143
aS'variable_25'
p161
ag150
aS'2'
p162
ag151
ag29
ag34
ag29
aS'10'
p163
ag10
ag13
aS'variable_4'
p164
aS'->'
p165
aS'variable_23'
p166
ag143
aS'variable_27'
p167
ag19
aS'func_12'
p168
ag4
aS'variable_2'
p169
aS'->'
p170
aS'variable_21'
p171
ag143
aS'variable_25'
p172
ag150
ag123
ag151
ag29
ag34
ag29
aS'10'
p173
ag10
ag13
aS'variable_4'
p174
aS'->'
p175
aS'variable_23'
p176
ag143
aS'variable_28'
p177
ag19
aS'func_13'
p178
ag4
aS'variable_2'
p179
aS'->'
p180
aS'variable_21'
p181
ag143
aS'variable_25'
p182
ag150
aS'4'
p183
ag151
ag29
ag34
ag29
aS'10'
p184
ag10
ag13
aS'variable_4'
p185
aS'->'
p186
aS'variable_23'
p187
ag143
aS'variable_29'
p188
ag19
ag4
aS'short'
p189
ag10
ag4
aS'variable_4'
p190
aS'->'
p191
aS'variable_23'
p192
ag143
aS'variable_26'
p193
ag92
aS'variable_4'
p194
aS'->'
p195
aS'variable_23'
p196
ag143
aS'variable_28'
p197
ag10
ag13
aS'variable_4'
p198
aS'->'
p199
aS'variable_23'
p200
ag143
aS'variable_30'
p201
ag19
ag4
aS'short'
p202
ag10
ag4
ag62
aS'variable_4'
p203
aS'->'
p204
aS'variable_23'
p205
ag143
aS'variable_28'
p206
ag10
ag13
aS'variable_2'
p207
aS'->'
p208
aS'variable_31'
p209
ag19
ag4
aS'short'
p210
ag10
aS'func_14'
p211
ag4
aS'variable_4'
p212
aS'->'
p213
aS'variable_23'
p214
ag143
aS'variable_29'
p215
ag29
aS'variable_2'
p216
aS'->'
p217
aS'variable_31'
p218
ag10
ag13
aS'variable_2'
p219
aS'->'
p220
aS'variable_32'
p221
ag19
ag4
aS'short'
p222
ag10
aS'func_15'
p223
ag4
aS'variable_4'
p224
aS'->'
p225
aS'variable_23'
p226
ag143
aS'variable_30'
p227
ag29
aS'variable_2'
p228
aS'->'
p229
aS'variable_32'
p230
ag10
ag13
aS'variable_2'
p231
aS'->'
p232
aS'variable_33'
p233
ag19
ag4
aS'short'
p234
ag10
ag4
aS'variable_4'
p235
aS'->'
p236
aS'variable_23'
p237
ag143
aS'variable_24'
p238
ag92
aS'variable_4'
p239
aS'->'
p240
aS'variable_23'
p241
ag143
aS'variable_27'
p242
ag10
ag13
aS'variable_2'
p243
aS'->'
p244
aS'variable_34'
p245
ag19
ag4
aS'short'
p246
ag10
aS'func_16'
p247
ag4
aS'variable_2'
p248
aS'->'
p249
aS'variable_33'
p250
ag29
aS'variable_2'
p251
aS'->'
p252
aS'variable_34'
p253
ag10
ag13
aS'variable_2'
p254
aS'->'
p255
aS'variable_35'
p256
ag19
ag4
aS'short'
p257
ag10
aS'func_17'
p258
ag4
aS'variable_4'
p259
aS'->'
p260
aS'variable_23'
p261
ag143
aS'variable_27'
p262
ag29
aS'variable_2'
p263
aS'->'
p264
aS'variable_35'
p265
ag10
ag13
aS'variable_2'
p266
aS'->'
p267
aS'variable_36'
p268
ag19
ag4
aS'short'
p269
ag10
aS'func_18'
p270
ag4
aS'variable_4'
p271
aS'->'
p272
aS'variable_23'
p273
ag143
aS'variable_27'
p274
ag29
aS'variable_2'
p275
aS'->'
p276
aS'variable_36'
p277
ag10
ag13
aS'if'
p278
ag4
ag36
ag4
aS'variable_2'
p279
aS'->'
p280
aS'variable_8'
p281
ag40
aS'variable_37'
p282
ag10
ag10
aS'variable_4'
p283
aS'->'
p284
aS'variable_38'
p285
ag19
aS'variable_4'
p286
aS'->'
p287
aS'variable_23'
p288
ag143
aS'variable_24'
p289
ag13
aS'if'
p290
ag4
aS'variable_2'
p291
aS'->'
p292
aS'variable_12'
p293
aS'->'
p294
aS'variable_39'
p295
aS'!='
p296
ag34
ag10
aS'unsigned'
p297
aS'short'
p298
aS'variable_40'
p299
ag19
ag4
aS'unsigned'
p300
aS'short'
p301
ag10
aS'func_19'
p302
ag4
aS'variable_4'
p303
aS'->'
p304
aS'variable_38'
p305
ag29
aS'72000L'
p306
ag29
ag4
aS'variable_41'
p307
ag10
ag4
aS'variable_6'
p308
aS'->'
p309
aS'variable_42'
p310
ag6
aS'variable_6'
p311
aS'->'
p312
aS'variable_43'
p313
ag10
ag10
ag13
aS'if'
p314
ag4
aS'variable_40'
p315
aS'!='
p316
aS'variable_4'
p317
aS'->'
p318
aS'variable_44'
p319
ag10
aS'variable_4'
p320
aS'->'
p321
aS'variable_44'
p322
ag19
aS'variable_40'
p323
ag13
aS'func_20'
p324
ag4
aS'variable_6'
p325
aS'->'
p326
aS'variable_45'
p327
ag29
aS'variable_4'
p328
aS'->'
p329
aS'variable_46'
p330
ag10
ag13
aaa(lp331
I0
aa(lp332
I584
aa(lp333
(lp334
S'main'
p335
aaa(lp336
S'198 ../data/NVD/CVE_2012_5669_PATCHED__bdf_parse_glyphs.c unsigned short sw = ( unsigned short ) FT_MulDiv ( glyph -> dwidth , 72000L , ( FT_Long ) ( font -> point_size * font -> resolution_x ) ) ; 414'
p337
aa.