(lp0
(lp1
(lp2
S'static'
p3
aS'int'
p4
aS'func_0'
p5
aS'('
p6
aS'variable_0'
p7
aS'*'
p8
aS'variable_1'
p9
aS','
p10
aS'variable_0'
p11
ag8
aS'variable_2'
p12
aS')'
p13
aS'MpegEncContext'
p14
ag8
aS'const'
p15
aS'variable_3'
p16
aS'='
p17
aS'&'
p18
aS'variable_1'
p19
aS'->'
p20
aS'MpegEncContext'
p21
ag8
aS'const'
p22
aS'variable_4'
p23
ag17
ag18
aS'variable_2'
p24
aS'->'
p25
aS'unsigned'
p26
aS'int'
p27
aS'variable_5'
p28
aS';'
p29
aS'unsigned'
p30
aS'int'
p31
aS'variable_6'
p32
ag29
aS'unsigned'
p33
aS'int'
p34
aS'variable_7'
p35
ag10
aS'variable_8'
p36
ag10
aS'variable_9'
p37
ag10
aS'variable_10'
p38
ag29
aS'int'
p39
aS'variable_11'
p40
ag10
aS'variable_12'
p41
ag29
aS'int'
p42
aS'variable_13'
p43
ag29
aS'if'
p44
ag6
ag6
aS'variable_3'
p45
aS'->'
p46
aS'variable_14'
p47
aS'->'
p48
aS'variable_15'
p49
ag18
aS'variable_16'
p50
ag13
aS'&&'
p51
aS'!'
p52
aS'variable_1'
p53
aS'->'
p54
aS'variable_17'
p55
aS'&&'
p56
ag52
aS'variable_1'
p57
aS'->'
p58
aS'variable_18'
p59
ag13
aS'variable_3'
p60
aS'->'
p61
aS'variable_19'
p62
aS'.'
p63
aS'variable_20'
p64
ag17
aS'variable_3'
p65
aS'->'
p66
aS'variable_21'
p67
ag63
aS'variable_22'
p68
ag29
aS'variable_3'
p69
aS'->'
p70
aS'variable_19'
p71
ag63
aS'variable_23'
p72
ag17
aS'variable_3'
p73
aS'->'
p74
aS'variable_21'
p75
ag63
aS'variable_24'
p76
ag29
aS'variable_5'
p77
ag17
aS'func_1'
p78
ag6
ag18
aS'variable_3'
p79
aS'->'
p80
aS'variable_25'
p81
ag13
ag29
aS'if'
p82
ag6
aS'variable_5'
p83
aS'=='
p84
aS'0'
p85
ag13
aS'variable_2'
p86
aS'->'
p87
aS'variable_26'
p88
ag17
ag85
ag29
aS'if'
p89
ag6
ag52
aS'variable_4'
p90
aS'->'
p91
aS'variable_27'
p92
ag13
aS'variable_3'
p93
aS'->'
p94
aS'variable_28'
p95
ag17
aS'NULL'
p96
ag29
aS'variable_7'
p97
ag17
aS'func_2'
p98
ag6
ag18
aS'variable_3'
p99
aS'->'
p100
aS'variable_25'
p101
ag13
ag29
aS'if'
p102
ag6
aS'variable_7'
p103
aS'>'
p104
aS'9'
p105
ag13
aS'if'
p106
ag6
aS'variable_7'
p107
ag104
aS'4'
p108
ag13
aS'variable_7'
p109
aS'-='
p110
aS'5'
p111
ag29
aS'variable_1'
p112
aS'->'
p113
aS'variable_29'
p114
ag17
ag85
ag29
aS'variable_7'
p115
ag17
aS'variable_30'
p116
aS'['
p117
aS'variable_7'
p118
aS']'
p119
ag29
aS'variable_1'
p120
aS'->'
p121
aS'variable_7'
p122
ag17
aS'variable_7'
p123
ag29
aS'variable_1'
p124
aS'->'
p125
aS'variable_31'
p126
ag17
aS'variable_7'
p127
ag18
aS'3'
p128
ag29
aS'variable_3'
p129
aS'->'
p130
aS'variable_32'
p131
ag17
aS'variable_1'
p132
aS'->'
p133
aS'variable_7'
p134
ag29
aS'variable_6'
p135
ag17
aS'func_3'
p136
ag6
ag18
aS'variable_3'
p137
aS'->'
p138
aS'variable_25'
p139
ag13
ag29
aS'if'
p140
ag6
aS'variable_6'
p141
ag104
ag17
aS'variable_33'
p142
ag13
aS'if'
p143
ag6
ag52
aS'variable_2'
p144
aS'->'
p145
aS'variable_34'
p146
ag117
aS'variable_6'
p147
ag119
ag13
aS'variable_1'
p148
aS'->'
p149
aS'variable_35'
p150
ag17
ag8
aS'variable_2'
p151
aS'->'
p152
aS'variable_34'
p153
ag117
aS'variable_6'
p154
ag119
ag29
aS'if'
p155
ag6
ag52
aS'variable_2'
p156
aS'->'
p157
aS'variable_36'
p158
ag117
aS'variable_1'
p159
aS'->'
p160
aS'variable_35'
p161
ag63
aS'variable_37'
p162
ag119
ag13
aS'variable_1'
p163
aS'->'
p164
aS'variable_38'
p165
ag17
ag8
aS'variable_2'
p166
aS'->'
p167
aS'variable_36'
p168
ag117
aS'variable_1'
p169
aS'->'
p170
aS'variable_35'
p171
ag63
aS'variable_37'
p172
ag119
ag29
aS'variable_3'
p173
aS'->'
p174
aS'variable_14'
p175
aS'->'
p176
aS'variable_39'
p177
ag17
aS'func_4'
p178
ag6
ag18
aS'variable_1'
p179
aS'->'
p180
aS'variable_38'
p181
ag13
ag29
aS'variable_3'
p182
aS'->'
p183
aS'variable_14'
p184
aS'->'
p185
aS'variable_40'
p186
ag17
aS'variable_1'
p187
aS'->'
p188
aS'variable_38'
p189
ag63
aS'variable_41'
p190
ag29
aS'variable_3'
p191
aS'->'
p192
aS'variable_14'
p193
aS'->'
p194
aS'variable_42'
p195
ag17
aS'variable_1'
p196
aS'->'
p197
aS'variable_38'
p198
ag63
aS'variable_43'
p199
ag29
aS'variable_13'
p200
ag17
ag6
aS'variable_3'
p201
aS'->'
p202
aS'variable_44'
p203
aS'&&'
p204
ag6
aS'16'
p205
ag8
aS'variable_1'
p206
aS'->'
p207
aS'variable_38'
p208
ag63
aS'variable_45'
p209
aS'!='
p210
aS'variable_3'
p211
aS'->'
p212
aS'variable_14'
p213
aS'->'
p214
aS'variable_46'
p215
aS'||'
p216
aS'16'
p217
ag8
aS'variable_1'
p218
aS'->'
p219
aS'variable_38'
p220
ag63
aS'variable_47'
p221
ag8
ag6
aS'2'
p222
aS'-'
p223
aS'variable_1'
p224
aS'->'
p225
aS'variable_38'
p226
ag63
aS'variable_48'
p227
ag13
aS'!='
p228
aS'variable_3'
p229
aS'->'
p230
aS'variable_14'
p231
aS'->'
p232
aS'variable_49'
p233
aS'||'
p234
aS'variable_3'
p235
aS'->'
p236
aS'variable_14'
p237
aS'->'
p238
aS'variable_50'
p239
aS'!='
p240
aS'variable_1'
p241
aS'->'
p242
aS'variable_38'
p243
ag63
aS'variable_51'
p244
aS'||'
p245
aS'variable_1'
p246
aS'->'
p247
aS'variable_52'
p248
aS'!='
p249
aS'variable_1'
p250
aS'->'
p251
aS'variable_38'
p252
ag63
aS'variable_53'
p253
aS'||'
p254
aS'func_5'
p255
ag6
aS'variable_1'
p256
aS'->'
p257
aS'variable_38'
p258
ag63
aS'variable_54'
p259
ag10
aS'variable_3'
p260
aS'->'
p261
aS'variable_14'
p262
aS'->'
p263
aS'variable_55'
p264
ag13
ag13
ag13
ag29
aS'if'
p265
ag6
aS'variable_13'
p266
aS'&&'
p267
ag6
aS'variable_1'
p268
aS'!='
p269
aS'variable_2'
p270
aS'||'
p271
ag6
aS'variable_3'
p272
aS'->'
p273
aS'variable_14'
p274
aS'->'
p275
aS'variable_56'
p276
ag18
aS'variable_57'
p277
ag13
ag13
ag13
aS'variable_3'
p278
aS'->'
p279
aS'variable_45'
p280
ag17
aS'variable_1'
p281
aS'->'
p282
aS'variable_38'
p283
ag63
aS'variable_45'
p284
ag29
aS'variable_3'
p285
aS'->'
p286
aS'variable_47'
p287
ag17
aS'variable_1'
p288
aS'->'
p289
aS'variable_38'
p290
ag63
aS'variable_47'
p291
ag8
ag6
ag222
ag223
aS'variable_1'
p292
aS'->'
p293
aS'variable_38'
p294
ag63
aS'variable_48'
p295
ag13
ag29
aS'variable_1'
p296
aS'->'
p297
aS'variable_58'
p298
ag17
aS'variable_3'
p299
aS'->'
p300
aS'variable_45'
p301
ag8
ag108
ag29
aS'variable_3'
p302
aS'->'
p303
aS'variable_59'
p304
ag17
aS'variable_1'
p305
aS'->'
p306
aS'variable_38'
p307
ag63
aS'variable_53'
p308
aS'<'
p309
ag17
aS'1'
p310
ag29
aS'variable_3'
p311
aS'->'
p312
aS'variable_60'
p313
ag17
aS'16'
p314
ag8
aS'variable_3'
p315
aS'->'
p316
aS'variable_45'
p317
ag29
aS'variable_3'
p318
aS'->'
p319
aS'variable_61'
p320
ag17
aS'16'
p321
ag8
aS'variable_3'
p322
aS'->'
p323
aS'variable_47'
p324
ag29
aS'if'
p325
ag6
aS'variable_13'
p326
ag13
aS'variable_1'
p327
aS'->'
p328
aS'variable_62'
p329
ag17
ag85
ag29
aS'variable_1'
p330
aS'->'
p331
aS'variable_26'
p332
ag17
ag85
ag29
aS'if'
p333
ag6
ag52
aS'variable_3'
p334
aS'->'
p335
aS'variable_44'
p336
ag13
aS'if'
p337
ag6
aS'variable_1'
p338
aS'!='
p339
aS'variable_2'
p340
ag13
aS'if'
p341
ag6
aS'func_6'
p342
ag6
aS'variable_3'
p343
aS'->'
p344
aS'variable_14'
p345
aS'->'
p346
aS'variable_60'
p347
ag10
aS'16'
p348
ag13
aS'=='
p349
aS'variable_3'
p350
aS'->'
p351
aS'variable_60'
p352
aS'&&'
p353
aS'func_7'
p354
ag6
aS'variable_3'
p355
aS'->'
p356
aS'variable_14'
p357
aS'->'
p358
aS'variable_61'
p359
ag10
aS'16'
p360
ag8
ag6
ag222
ag223
aS'variable_1'
p361
aS'->'
p362
aS'variable_38'
p363
ag63
aS'variable_48'
p364
ag13
ag13
aS'=='
p365
aS'variable_3'
p366
aS'->'
p367
aS'variable_61'
p368
aS'&&'
p369
ag52
aS'variable_1'
p370
aS'->'
p371
aS'variable_38'
p372
ag63
aS'variable_63'
p373
aS'&&'
p374
ag52
aS'variable_1'
p375
aS'->'
p376
aS'variable_38'
p377
ag63
aS'variable_64'
p378
aS'&&'
p379
ag6
aS'variable_3'
p380
aS'->'
p381
aS'variable_14'
p382
aS'->'
p383
aS'variable_60'
p384
aS'!='
p385
aS'variable_3'
p386
aS'->'
p387
aS'variable_60'
p388
aS'||'
p389
aS'variable_3'
p390
aS'->'
p391
aS'variable_14'
p392
aS'->'
p393
aS'variable_61'
p394
aS'&&'
p395
aS'variable_3'
p396
aS'->'
p397
aS'variable_61'
p398
ag13
ag13
aS'variable_3'
p399
aS'->'
p400
aS'variable_14'
p401
aS'->'
p402
aS'variable_60'
p403
aS'-='
p404
ag6
ag222
aS'>>'
p405
aS'variable_65'
p406
ag13
ag8
aS'func_8'
p407
ag6
aS'variable_1'
p408
aS'->'
p409
aS'variable_38'
p410
ag63
aS'variable_63'
p411
ag10
ag6
aS'8'
p412
aS'<<'
p413
aS'variable_65'
p414
ag13
ag223
ag310
ag13
ag29
aS'variable_3'
p415
aS'->'
p416
aS'variable_14'
p417
aS'->'
p418
aS'variable_61'
p419
aS'-='
p420
ag6
ag310
aS'<<'
p421
aS'variable_3'
p422
aS'->'
p423
aS'variable_59'
p424
ag13
ag8
aS'func_9'
p425
ag6
aS'variable_1'
p426
aS'->'
p427
aS'variable_38'
p428
ag63
aS'variable_64'
p429
ag10
ag6
aS'16'
p430
aS'>>'
p431
aS'variable_3'
p432
aS'->'
p433
aS'variable_59'
p434
ag13
ag223
ag310
ag13
ag8
ag6
ag222
ag223
aS'variable_1'
p435
aS'->'
p436
aS'variable_38'
p437
ag63
aS'variable_48'
p438
ag13
ag29
aS'variable_3'
p439
aS'->'
p440
aS'variable_14'
p441
aS'->'
p442
aS'variable_55'
p443
ag17
aS'variable_1'
p444
aS'->'
p445
aS'variable_38'
p446
ag63
aS'variable_54'
p447
ag29
aS'if'
p448
ag6
aS'variable_3'
p449
aS'->'
p450
aS'variable_14'
p451
aS'->'
p452
aS'variable_66'
p453
aS'->'
p454
aS'variable_67'
p455
ag18
aS'variable_68'
p456
aS'&&'
p457
ag6
aS'variable_1'
p458
aS'->'
p459
aS'variable_38'
p460
ag63
aS'variable_51'
p461
aS'!='
p462
ag412
aS'||'
p463
aS'variable_1'
p464
aS'->'
p465
aS'variable_38'
p466
ag63
aS'variable_53'
p467
ag104
ag310
ag13
ag13
aS'if'
p468
ag6
aS'variable_3'
p469
aS'->'
p470
aS'variable_14'
p471
aS'->'
p472
aS'variable_50'
p473
aS'!='
p474
aS'variable_1'
p475
aS'->'
p476
aS'variable_38'
p477
ag63
aS'variable_51'
p478
aS'||'
p479
aS'variable_1'
p480
aS'->'
p481
aS'variable_52'
p482
aS'!='
p483
aS'variable_1'
p484
aS'->'
p485
aS'variable_38'
p486
ag63
aS'variable_53'
p487
ag13
aS'if'
p488
ag6
aS'variable_1'
p489
aS'->'
p490
aS'variable_38'
p491
ag63
aS'variable_51'
p492
ag104
ag17
ag412
aS'&&'
p493
aS'variable_1'
p494
aS'->'
p495
aS'variable_38'
p496
ag63
aS'variable_51'
p497
ag309
ag17
aS'14'
p498
aS'&&'
p499
aS'variable_1'
p500
aS'->'
p501
aS'variable_38'
p502
ag63
aS'variable_51'
p503
aS'!='
p504
aS'11'
p505
aS'&&'
p506
aS'variable_1'
p507
aS'->'
p508
aS'variable_38'
p509
ag63
aS'variable_51'
p510
aS'!='
p511
aS'13'
p512
aS'&&'
p513
ag6
aS'variable_1'
p514
aS'->'
p515
aS'variable_38'
p516
ag63
aS'variable_51'
p517
aS'!='
p518
ag105
aS'||'
p519
ag52
aS'variable_69'
p520
ag13
ag13
aS'variable_3'
p521
aS'->'
p522
aS'variable_14'
p523
aS'->'
p524
aS'variable_50'
p525
ag17
aS'variable_1'
p526
aS'->'
p527
aS'variable_38'
p528
ag63
aS'variable_51'
p529
ag29
aS'variable_1'
p530
aS'->'
p531
aS'variable_52'
p532
ag17
aS'variable_1'
p533
aS'->'
p534
aS'variable_38'
p535
ag63
aS'variable_53'
p536
ag29
aS'variable_1'
p537
aS'->'
p538
aS'variable_18'
p539
ag17
aS'variable_1'
p540
aS'->'
p541
aS'variable_38'
p542
ag63
aS'variable_51'
p543
ag104
ag412
ag29
aS'variable_3'
p544
aS'->'
p545
aS'variable_21'
p546
ag63
aS'variable_70'
p547
ag17
aS'variable_1'
p548
aS'->'
p549
aS'variable_38'
p550
ag63
aS'variable_51'
p551
ag104
ag412
aS'?'
p552
aS'32'
p553
aS':'
p554
aS'16'
p555
ag29
aS'if'
p556
ag6
aS'variable_1'
p557
aS'->'
p558
aS'variable_38'
p559
ag63
aS'variable_71'
p560
ag13
aS'variable_3'
p561
aS'->'
p562
aS'variable_14'
p563
aS'->'
p564
aS'variable_72'
p565
ag17
aS'variable_1'
p566
aS'->'
p567
aS'variable_38'
p568
ag63
aS'variable_73'
p569
ag104
ag85
ag552
aS'variable_74'
p570
ag554
aS'variable_75'
p571
ag29
aS'if'
p572
ag6
aS'variable_1'
p573
aS'->'
p574
aS'variable_38'
p575
ag63
aS'variable_76'
p576
ag13
aS'variable_3'
p577
aS'->'
p578
aS'variable_14'
p579
aS'->'
p580
aS'variable_77'
p581
ag17
aS'variable_1'
p582
aS'->'
p583
aS'variable_38'
p584
ag63
aS'variable_77'
p585
ag29
aS'variable_3'
p586
aS'->'
p587
aS'variable_14'
p588
aS'->'
p589
aS'variable_78'
p590
ag17
aS'variable_1'
p591
aS'->'
p592
aS'variable_38'
p593
ag63
aS'variable_78'
p594
ag29
aS'variable_3'
p595
aS'->'
p596
aS'variable_14'
p597
aS'->'
p598
aS'variable_79'
p599
ag17
aS'variable_1'
p600
aS'->'
p601
aS'variable_38'
p602
ag63
aS'variable_79'
p603
ag29
aS'switch'
p604
ag6
aS'variable_1'
p605
aS'->'
p606
aS'variable_38'
p607
ag63
aS'variable_51'
p608
ag13
aS'if'
p609
ag6
aS'variable_65'
p610
ag13
aS'if'
p611
ag6
aS'variable_3'
p612
aS'->'
p613
aS'variable_14'
p614
aS'->'
p615
aS'variable_79'
p616
aS'=='
p617
aS'variable_80'
p618
ag13
aS'variable_3'
p619
aS'->'
p620
aS'variable_14'
p621
aS'->'
p622
aS'variable_81'
p623
ag17
aS'variable_82'
p624
ag29
aS'variable_3'
p625
aS'->'
p626
aS'variable_14'
p627
aS'->'
p628
aS'variable_81'
p629
ag17
aS'variable_83'
p630
ag29
aS'if'
p631
ag6
aS'variable_69'
p632
ag13
aS'variable_3'
p633
aS'->'
p634
aS'variable_14'
p635
aS'->'
p636
aS'variable_81'
p637
ag17
aS'variable_84'
p638
ag29
aS'variable_3'
p639
aS'->'
p640
aS'variable_14'
p641
aS'->'
p642
aS'variable_81'
p643
ag17
aS'variable_85'
p644
ag29
aS'if'
p645
ag6
aS'variable_65'
p646
ag13
aS'if'
p647
ag6
aS'variable_3'
p648
aS'->'
p649
aS'variable_14'
p650
aS'->'
p651
aS'variable_79'
p652
aS'=='
p653
aS'variable_80'
p654
ag13
aS'variable_3'
p655
aS'->'
p656
aS'variable_14'
p657
aS'->'
p658
aS'variable_81'
p659
ag17
aS'variable_86'
p660
ag29
aS'variable_3'
p661
aS'->'
p662
aS'variable_14'
p663
aS'->'
p664
aS'variable_81'
p665
ag17
aS'variable_87'
p666
ag29
aS'if'
p667
ag6
aS'variable_69'
p668
ag13
aS'variable_3'
p669
aS'->'
p670
aS'variable_14'
p671
aS'->'
p672
aS'variable_81'
p673
ag17
aS'variable_88'
p674
ag29
aS'variable_3'
p675
aS'->'
p676
aS'variable_14'
p677
aS'->'
p678
aS'variable_81'
p679
ag17
aS'variable_89'
p680
ag29
aS'if'
p681
ag6
aS'variable_65'
p682
ag13
aS'if'
p683
ag6
aS'variable_3'
p684
aS'->'
p685
aS'variable_14'
p686
aS'->'
p687
aS'variable_79'
p688
aS'=='
p689
aS'variable_80'
p690
ag13
aS'variable_3'
p691
aS'->'
p692
aS'variable_14'
p693
aS'->'
p694
aS'variable_81'
p695
ag17
aS'variable_90'
p696
ag29
aS'variable_3'
p697
aS'->'
p698
aS'variable_14'
p699
aS'->'
p700
aS'variable_81'
p701
ag17
aS'variable_91'
p702
ag29
aS'if'
p703
ag6
aS'variable_69'
p704
ag13
aS'variable_3'
p705
aS'->'
p706
aS'variable_14'
p707
aS'->'
p708
aS'variable_81'
p709
ag17
aS'variable_92'
p710
ag29
aS'variable_3'
p711
aS'->'
p712
aS'variable_14'
p713
aS'->'
p714
aS'variable_81'
p715
ag17
aS'variable_93'
p716
ag29
aS'if'
p717
ag6
aS'variable_65'
p718
ag13
aS'if'
p719
ag6
aS'variable_3'
p720
aS'->'
p721
aS'variable_14'
p722
aS'->'
p723
aS'variable_79'
p724
aS'=='
p725
aS'variable_80'
p726
ag13
aS'variable_3'
p727
aS'->'
p728
aS'variable_14'
p729
aS'->'
p730
aS'variable_81'
p731
ag17
aS'variable_94'
p732
ag29
aS'variable_3'
p733
aS'->'
p734
aS'variable_14'
p735
aS'->'
p736
aS'variable_81'
p737
ag17
aS'variable_95'
p738
ag29
aS'if'
p739
ag6
aS'variable_69'
p740
ag13
aS'variable_3'
p741
aS'->'
p742
aS'variable_14'
p743
aS'->'
p744
aS'variable_81'
p745
ag17
aS'variable_96'
p746
ag29
aS'variable_3'
p747
aS'->'
p748
aS'variable_14'
p749
aS'->'
p750
aS'variable_81'
p751
ag17
aS'variable_97'
p752
ag29
aS'if'
p753
ag6
aS'variable_65'
p754
ag13
aS'variable_3'
p755
aS'->'
p756
aS'variable_14'
p757
aS'->'
p758
aS'variable_81'
p759
ag17
aS'variable_3'
p760
aS'->'
p761
aS'variable_14'
p762
aS'->'
p763
aS'variable_72'
p764
aS'=='
p765
aS'variable_74'
p766
ag552
aS'variable_98'
p767
ag554
aS'variable_99'
p768
ag29
aS'if'
p769
ag6
aS'variable_3'
p770
aS'->'
p771
aS'variable_14'
p772
aS'->'
p773
aS'variable_79'
p774
aS'=='
p775
aS'variable_80'
p776
ag13
aS'variable_3'
p777
aS'->'
p778
aS'variable_14'
p779
aS'->'
p780
aS'variable_81'
p781
ag17
aS'variable_100'
p782
ag29
aS'if'
p783
ag6
aS'variable_69'
p784
ag13
aS'variable_3'
p785
aS'->'
p786
aS'variable_14'
p787
aS'->'
p788
aS'variable_81'
p789
ag17
aS'variable_3'
p790
aS'->'
p791
aS'variable_14'
p792
aS'->'
p793
aS'variable_72'
p794
aS'=='
p795
aS'variable_74'
p796
ag552
aS'variable_101'
p797
ag554
aS'variable_102'
p798
ag29
aS'variable_3'
p799
aS'->'
p800
aS'variable_14'
p801
aS'->'
p802
aS'variable_81'
p803
ag17
aS'variable_3'
p804
aS'->'
p805
aS'variable_14'
p806
aS'->'
p807
aS'func_10'
p808
ag6
aS'variable_3'
p809
aS'->'
p810
aS'variable_14'
p811
ag10
aS'variable_3'
p812
aS'->'
p813
aS'variable_14'
p814
aS'->'
p815
aS'variable_66'
p816
aS'->'
p817
aS'variable_103'
p818
ag552
aS'variable_3'
p819
aS'->'
p820
aS'variable_14'
p821
aS'->'
p822
aS'variable_66'
p823
aS'->'
p824
aS'variable_103'
p825
ag554
aS'variable_3'
p826
aS'->'
p827
aS'variable_14'
p828
aS'->'
p829
aS'variable_72'
p830
aS'=='
p831
aS'variable_74'
p832
ag552
aS'variable_104'
p833
ag554
aS'variable_105'
p834
ag13
ag29
aS'variable_3'
p835
aS'->'
p836
aS'variable_14'
p837
aS'->'
p838
aS'variable_106'
p839
ag17
aS'func_11'
p840
ag6
aS'variable_3'
p841
aS'->'
p842
aS'variable_14'
p843
aS'->'
p844
aS'variable_66'
p845
aS'->'
p846
aS'variable_107'
p847
ag10
aS'variable_3'
p848
aS'->'
p849
aS'variable_14'
p850
aS'->'
p851
aS'variable_81'
p852
ag13
ag29
aS'if'
p853
ag6
aS'func_12'
p854
ag6
aS'variable_3'
p855
ag13
ag309
ag85
ag13
aS'variable_3'
p856
aS'->'
p857
aS'variable_27'
p858
ag17
ag85
ag29
aS'variable_1'
p859
aS'->'
p860
aS'variable_108'
p861
ag17
ag310
ag29
aS'if'
p862
ag6
aS'func_13'
p863
ag6
aS'variable_1'
p864
ag13
ag309
ag85
ag13
aS'if'
p865
ag6
ag52
aS'variable_109'
p866
aS'||'
p867
ag52
ag6
aS'variable_3'
p868
aS'->'
p869
aS'variable_14'
p870
aS'->'
p871
aS'variable_56'
p872
ag18
aS'variable_110'
p873
ag13
ag13
aS'if'
p874
ag6
aS'func_14'
p875
ag6
aS'variable_1'
p876
ag13
ag309
ag85
ag13
aS'for'
p877
ag6
aS'variable_9'
p878
ag17
ag310
ag29
aS'variable_9'
p879
ag309
aS'variable_3'
p880
aS'->'
p881
aS'variable_111'
p882
ag29
aS'variable_9'
p883
aS'++'
p884
ag13
aS'variable_0'
p885
ag8
aS'variable_112'
p886
ag29
aS'variable_112'
p887
ag17
aS'variable_1'
p888
aS'->'
p889
aS'variable_113'
p890
ag117
aS'variable_9'
p891
ag119
ag17
aS'func_15'
p892
ag6
aS'sizeof'
p893
ag6
aS'variable_0'
p894
ag13
ag13
ag29
aS'for'
p895
ag6
aS'variable_9'
p896
ag17
ag85
ag29
aS'variable_9'
p897
ag309
aS'variable_3'
p898
aS'->'
p899
aS'variable_111'
p900
ag29
aS'variable_9'
p901
aS'++'
p902
ag13
aS'if'
p903
ag6
aS'func_16'
p904
ag6
aS'variable_1'
p905
aS'->'
p906
aS'variable_113'
p907
ag117
aS'variable_9'
p908
ag119
ag13
ag309
ag85
ag13
aS'if'
p909
ag6
aS'variable_1'
p910
aS'=='
p911
aS'variable_2'
p912
aS'&&'
p913
aS'variable_1'
p914
aS'->'
p915
aS'variable_114'
p916
aS'!='
p917
aS'variable_6'
p918
ag13
aS'variable_1'
p919
aS'->'
p920
aS'variable_114'
p921
ag17
aS'variable_6'
p922
ag29
aS'variable_1'
p923
aS'->'
p924
aS'variable_115'
p925
ag17
aS'func_17'
p926
ag6
ag18
aS'variable_3'
p927
aS'->'
p928
aS'variable_25'
p929
ag10
aS'variable_1'
p930
aS'->'
p931
aS'variable_38'
p932
ag63
aS'variable_116'
p933
ag13
ag29
aS'variable_1'
p934
aS'->'
p935
aS'variable_117'
p936
ag17
ag85
ag29
aS'variable_1'
p937
aS'->'
p938
aS'variable_118'
p939
ag17
ag85
ag29
aS'variable_11'
p940
ag17
aS'variable_4'
p941
aS'->'
p942
aS'variable_119'
p943
ag29
aS'variable_12'
p944
ag17
aS'variable_3'
p945
aS'->'
p946
aS'variable_120'
p947
ag29
aS'variable_3'
p948
aS'->'
p949
aS'variable_120'
p950
ag17
aS'variable_1'
p951
aS'->'
p952
aS'variable_17'
p953
aS'=='
p954
ag85
ag29
aS'if'
p955
ag6
aS'variable_1'
p956
aS'->'
p957
aS'variable_38'
p958
ag63
aS'variable_48'
p959
ag13
aS'variable_3'
p960
aS'->'
p961
aS'variable_119'
p962
ag17
aS'variable_121'
p963
ag29
aS'if'
p964
ag6
ag52
aS'variable_1'
p965
aS'->'
p966
aS'variable_38'
p967
ag63
aS'variable_122'
p968
aS'&&'
p969
aS'variable_7'
p970
aS'=='
p971
aS'variable_123'
p972
ag13
aS'if'
p973
ag6
aS'func_18'
p974
ag6
ag18
aS'variable_3'
p975
aS'->'
p976
aS'variable_25'
p977
ag13
ag13
aS'variable_3'
p978
aS'->'
p979
aS'variable_119'
p980
ag17
aS'variable_124'
p981
aS'+'
p982
aS'func_19'
p983
ag6
ag18
aS'variable_3'
p984
aS'->'
p985
aS'variable_25'
p986
ag13
ag29
aS'variable_3'
p987
aS'->'
p988
aS'variable_119'
p989
ag17
aS'variable_121'
p990
ag29
aS'variable_1'
p991
aS'->'
p992
aS'variable_118'
p993
ag17
aS'variable_1'
p994
aS'->'
p995
aS'variable_38'
p996
ag63
aS'variable_125'
p997
ag29
aS'variable_1'
p998
aS'->'
p999
aS'variable_126'
p1000
ag17
aS'variable_3'
p1001
aS'->'
p1002
aS'variable_119'
p1003
aS'!='
p1004
aS'variable_121'
p1005
ag29
aS'if'
p1006
ag6
aS'variable_2'
p1007
aS'->'
p1008
aS'variable_26'
p1009
aS'!='
p1010
ag85
ag13
aS'if'
p1011
ag6
aS'variable_11'
p1012
aS'!='
p1013
aS'variable_3'
p1014
aS'->'
p1015
aS'variable_119'
p1016
aS'||'
p1017
aS'variable_12'
p1018
aS'!='
p1019
aS'variable_3'
p1020
aS'->'
p1021
aS'variable_120'
p1022
ag13
aS'if'
p1023
ag6
aS'variable_1'
p1024
aS'->'
p1025
aS'variable_115'
p1026
aS'!='
p1027
aS'variable_1'
p1028
aS'->'
p1029
aS'variable_127'
p1030
aS'&&'
p1031
aS'variable_1'
p1032
aS'->'
p1033
aS'variable_127'
p1034
ag104
ag17
ag85
ag13
aS'int'
p1035
aS'variable_128'
p1036
ag17
aS'variable_1'
p1037
aS'->'
p1038
aS'variable_127'
p1039
ag29
aS'int'
p1040
aS'variable_129'
p1041
ag17
ag310
aS'<<'
p1042
aS'variable_1'
p1043
aS'->'
p1044
aS'variable_38'
p1045
ag63
aS'variable_116'
p1046
ag29
aS'if'
p1047
ag6
aS'variable_128'
p1048
ag104
aS'variable_1'
p1049
aS'->'
p1050
aS'variable_115'
p1051
ag13
aS'variable_128'
p1052
aS'-='
p1053
aS'variable_129'
p1054
ag29
aS'if'
p1055
ag6
ag6
aS'variable_1'
p1056
aS'->'
p1057
aS'variable_115'
p1058
ag223
aS'variable_128'
p1059
ag13
ag104
aS'variable_1'
p1060
aS'->'
p1061
aS'variable_38'
p1062
ag63
aS'variable_43'
p1063
ag13
aS'variable_128'
p1064
ag17
ag6
aS'variable_1'
p1065
aS'->'
p1066
aS'variable_115'
p1067
ag223
aS'variable_1'
p1068
aS'->'
p1069
aS'variable_38'
p1070
ag63
aS'variable_43'
p1071
ag13
ag223
ag310
ag29
aS'if'
p1072
ag6
aS'variable_128'
p1073
ag309
ag85
ag13
aS'variable_128'
p1074
aS'+='
p1075
aS'variable_129'
p1076
ag29
aS'variable_1'
p1077
aS'->'
p1078
aS'variable_127'
p1079
ag17
aS'variable_128'
p1080
ag29
aS'if'
p1081
ag6
aS'variable_4'
p1082
aS'->'
p1083
aS'variable_27'
p1084
ag13
aS'if'
p1085
ag6
ag52
aS'variable_130'
p1086
aS'||'
p1087
aS'variable_3'
p1088
aS'->'
p1089
aS'variable_119'
p1090
aS'=='
p1091
aS'variable_11'
p1092
ag13
aS'if'
p1093
ag6
aS'variable_4'
p1094
aS'->'
p1095
aS'variable_28'
p1096
aS'->'
p1097
aS'variable_115'
p1098
aS'!='
p1099
aS'variable_1'
p1100
aS'->'
p1101
aS'variable_115'
p1102
ag13
aS'if'
p1103
ag6
ag52
ag6
ag6
aS'variable_11'
p1104
aS'=='
p1105
aS'variable_124'
p1106
aS'&&'
p1107
aS'variable_3'
p1108
aS'->'
p1109
aS'variable_119'
p1110
aS'=='
p1111
aS'variable_131'
p1112
ag13
aS'||'
p1113
ag6
aS'variable_11'
p1114
aS'=='
p1115
aS'variable_131'
p1116
aS'&&'
p1117
aS'variable_3'
p1118
aS'->'
p1119
aS'variable_119'
p1120
aS'=='
p1121
aS'variable_124'
p1122
ag13
ag13
ag13
aS'if'
p1123
ag6
aS'variable_12'
p1124
aS'!='
p1125
aS'variable_3'
p1126
aS'->'
p1127
aS'variable_120'
p1128
ag13
aS'variable_3'
p1129
aS'->'
p1130
aS'variable_119'
p1131
ag17
aS'variable_11'
p1132
ag29
aS'variable_3'
p1133
aS'->'
p1134
aS'variable_120'
p1135
ag17
aS'variable_12'
p1136
ag29
aS'variable_4'
p1137
aS'->'
p1138
aS'variable_28'
p1139
aS'->'
p1140
aS'variable_132'
p1141
ag17
aS'variable_4'
p1142
ag29
aS'while'
p1143
ag6
aS'variable_1'
p1144
aS'->'
p1145
aS'variable_115'
p1146
aS'!='
p1147
aS'variable_1'
p1148
aS'->'
p1149
aS'variable_127'
p1150
aS'&&'
p1151
aS'variable_1'
p1152
aS'->'
p1153
aS'variable_127'
p1154
ag104
ag17
ag85
aS'&&'
p1155
aS'variable_1'
p1156
aS'->'
p1157
aS'variable_115'
p1158
aS'!='
p1159
ag6
aS'variable_1'
p1160
aS'->'
p1161
aS'variable_127'
p1162
ag982
ag310
ag13
aS'%'
p1163
ag6
ag310
aS'<<'
p1164
aS'variable_1'
p1165
aS'->'
p1166
aS'variable_38'
p1167
ag63
aS'variable_116'
p1168
ag13
ag13
aS'variable_133'
p1169
ag8
aS'variable_134'
p1170
ag17
aS'variable_1'
p1171
aS'->'
p1172
aS'variable_135'
p1173
ag552
aS'variable_1'
p1174
aS'->'
p1175
aS'variable_136'
p1176
ag117
ag85
ag119
ag554
aS'NULL'
p1177
ag29
aS'if'
p1178
ag6
aS'func_20'
p1179
ag6
aS'variable_1'
p1180
ag13
ag309
ag85
ag13
aS'variable_1'
p1181
aS'->'
p1182
aS'variable_127'
p1183
aS'++'
p1184
ag29
aS'variable_1'
p1185
aS'->'
p1186
aS'variable_127'
p1187
ag1163
ag17
ag310
aS'<<'
p1188
aS'variable_1'
p1189
aS'->'
p1190
aS'variable_38'
p1191
ag63
aS'variable_116'
p1192
ag29
aS'variable_3'
p1193
aS'->'
p1194
aS'variable_28'
p1195
aS'->'
p1196
aS'variable_115'
p1197
ag17
aS'variable_1'
p1198
aS'->'
p1199
aS'variable_127'
p1200
ag29
aS'if'
p1201
ag6
aS'func_21'
p1202
ag6
aS'variable_1'
p1203
ag10
aS'variable_1'
p1204
aS'->'
p1205
aS'variable_137'
p1206
ag10
aS'variable_1'
p1207
aS'->'
p1208
aS'variable_138'
p1209
ag13
ag309
ag85
aS'&&'
p1210
ag6
aS'variable_3'
p1211
aS'->'
p1212
aS'variable_14'
p1213
aS'->'
p1214
aS'variable_139'
p1215
ag18
aS'variable_140'
p1216
ag13
ag13
aS'if'
p1217
ag6
aS'variable_1'
p1218
aS'->'
p1219
aS'variable_135'
p1220
ag13
aS'if'
p1221
ag6
aS'variable_134'
p1222
ag13
aS'variable_1'
p1223
aS'->'
p1224
aS'variable_136'
p1225
ag117
ag85
ag119
aS'->'
p1226
aS'variable_141'
p1227
ag17
aS'variable_134'
p1228
aS'->'
p1229
aS'variable_141'
p1230
ag982
ag222
ag29
aS'variable_1'
p1231
aS'->'
p1232
aS'variable_136'
p1233
ag117
ag85
ag119
aS'->'
p1234
aS'variable_115'
p1235
ag17
aS'variable_1'
p1236
aS'->'
p1237
aS'variable_127'
p1238
ag29
aS'if'
p1239
ag6
aS'variable_4'
p1240
aS'->'
p1241
aS'variable_27'
p1242
ag13
aS'if'
p1243
ag6
ag52
aS'variable_130'
p1244
aS'||'
p1245
aS'variable_3'
p1246
aS'->'
p1247
aS'variable_119'
p1248
aS'=='
p1249
aS'variable_11'
p1250
ag13
aS'variable_4'
p1251
aS'->'
p1252
aS'variable_28'
p1253
ag17
aS'NULL'
p1254
ag29
aS'variable_4'
p1255
aS'->'
p1256
aS'variable_27'
p1257
ag17
aS'variable_130'
p1258
ag29
aS'if'
p1259
ag6
aS'variable_4'
p1260
aS'->'
p1261
aS'variable_28'
p1262
aS'->'
p1263
aS'variable_115'
p1264
aS'!='
p1265
aS'variable_1'
p1266
aS'->'
p1267
aS'variable_115'
p1268
ag13
aS'variable_4'
p1269
aS'->'
p1270
aS'variable_27'
p1271
ag17
ag310
ag29
aS'variable_4'
p1272
aS'->'
p1273
aS'variable_28'
p1274
ag17
aS'NULL'
p1275
ag29
aS'variable_4'
p1276
aS'->'
p1277
aS'variable_27'
p1278
ag17
ag85
ag29
aS'variable_4'
p1279
aS'->'
p1280
aS'variable_27'
p1281
ag17
aS'variable_130'
p1282
ag29
aS'if'
p1283
ag6
ag52
aS'variable_130'
p1284
aS'||'
p1285
aS'variable_4'
p1286
aS'->'
p1287
aS'variable_27'
p1288
ag13
aS'if'
p1289
ag6
aS'func_22'
p1290
ag6
aS'variable_1'
p1291
ag13
ag309
ag85
ag13
aS'variable_3'
p1292
aS'->'
p1293
aS'variable_28'
p1294
aS'->'
p1295
aS'variable_115'
p1296
ag17
aS'variable_1'
p1297
aS'->'
p1298
aS'variable_115'
p1299
ag29
aS'if'
p1300
ag6
aS'variable_5'
p1301
aS'<<'
p1302
aS'variable_142'
p1303
ag104
ag17
aS'variable_3'
p1304
aS'->'
p1305
aS'variable_143'
p1306
aS'||'
p1307
aS'variable_5'
p1308
ag104
ag17
aS'variable_3'
p1309
aS'->'
p1310
aS'variable_143'
p1311
ag13
aS'variable_3'
p1312
aS'->'
p1313
aS'variable_144'
p1314
ag17
aS'variable_3'
p1315
aS'->'
p1316
aS'variable_145'
p1317
ag17
aS'variable_5'
p1318
ag1163
aS'variable_3'
p1319
aS'->'
p1320
aS'variable_45'
p1321
ag29
aS'variable_3'
p1322
aS'->'
p1323
aS'variable_146'
p1324
ag17
aS'variable_3'
p1325
aS'->'
p1326
aS'variable_147'
p1327
ag17
ag6
aS'variable_5'
p1328
aS'/'
p1329
aS'variable_3'
p1330
aS'->'
p1331
aS'variable_45'
p1332
ag13
aS'<<'
p1333
aS'variable_142'
p1334
ag29
aS'if'
p1335
ag6
aS'variable_3'
p1336
aS'->'
p1337
aS'variable_119'
p1338
aS'=='
p1339
aS'variable_131'
p1340
ag13
aS'variable_3'
p1341
aS'->'
p1342
aS'variable_146'
p1343
ag17
aS'variable_3'
p1344
aS'->'
p1345
aS'variable_147'
p1346
ag17
aS'variable_3'
p1347
aS'->'
p1348
aS'variable_147'
p1349
ag982
ag310
ag29
aS'assert'
p1350
ag6
aS'variable_3'
p1351
aS'->'
p1352
aS'variable_147'
p1353
ag309
aS'variable_3'
p1354
aS'->'
p1355
aS'variable_47'
p1356
ag13
ag29
aa(lp1357
S'static'
p1358
aS'int'
p1359
aS'func_0'
p1360
ag6
aS'variable_0'
p1361
ag8
aS'variable_1'
p1362
ag10
aS'variable_0'
p1363
ag8
aS'variable_2'
p1364
ag13
aS'MpegEncContext'
p1365
ag8
aS'const'
p1366
aS'variable_3'
p1367
ag17
ag18
aS'variable_1'
p1368
aS'->'
p1369
aS'MpegEncContext'
p1370
ag8
aS'const'
p1371
aS'variable_4'
p1372
ag17
ag18
aS'variable_2'
p1373
aS'->'
p1374
aS'unsigned'
p1375
aS'int'
p1376
aS'variable_5'
p1377
ag29
aS'unsigned'
p1378
aS'int'
p1379
aS'variable_6'
p1380
ag29
aS'unsigned'
p1381
aS'int'
p1382
aS'variable_7'
p1383
ag10
aS'variable_8'
p1384
ag10
aS'variable_9'
p1385
ag10
aS'variable_10'
p1386
ag29
aS'int'
p1387
aS'variable_11'
p1388
ag10
aS'variable_12'
p1389
ag29
aS'int'
p1390
aS'variable_13'
p1391
ag29
aS'if'
p1392
ag6
ag6
aS'variable_3'
p1393
aS'->'
p1394
aS'variable_14'
p1395
aS'->'
p1396
aS'variable_15'
p1397
ag18
aS'variable_16'
p1398
ag13
aS'&&'
p1399
ag52
aS'variable_1'
p1400
aS'->'
p1401
aS'variable_17'
p1402
aS'&&'
p1403
ag52
aS'variable_1'
p1404
aS'->'
p1405
aS'variable_18'
p1406
ag13
aS'variable_3'
p1407
aS'->'
p1408
aS'variable_19'
p1409
ag63
aS'variable_20'
p1410
ag17
aS'variable_3'
p1411
aS'->'
p1412
aS'variable_21'
p1413
ag63
aS'variable_22'
p1414
ag29
aS'variable_3'
p1415
aS'->'
p1416
aS'variable_19'
p1417
ag63
aS'variable_23'
p1418
ag17
aS'variable_3'
p1419
aS'->'
p1420
aS'variable_21'
p1421
ag63
aS'variable_24'
p1422
ag29
aS'variable_5'
p1423
ag17
aS'func_1'
p1424
ag6
ag18
aS'variable_3'
p1425
aS'->'
p1426
aS'variable_25'
p1427
ag13
ag29
aS'if'
p1428
ag6
aS'variable_5'
p1429
aS'=='
p1430
ag85
ag13
aS'variable_2'
p1431
aS'->'
p1432
aS'variable_26'
p1433
ag17
ag85
ag29
aS'if'
p1434
ag6
ag52
aS'variable_4'
p1435
aS'->'
p1436
aS'variable_27'
p1437
ag13
aS'variable_3'
p1438
aS'->'
p1439
aS'variable_28'
p1440
ag17
aS'NULL'
p1441
ag29
aS'variable_7'
p1442
ag17
aS'func_2'
p1443
ag6
ag18
aS'variable_3'
p1444
aS'->'
p1445
aS'variable_25'
p1446
ag13
ag29
aS'if'
p1447
ag6
aS'variable_7'
p1448
ag104
ag105
ag13
aS'if'
p1449
ag6
aS'variable_7'
p1450
ag104
ag108
ag13
aS'variable_7'
p1451
aS'-='
p1452
ag111
ag29
aS'variable_1'
p1453
aS'->'
p1454
aS'variable_29'
p1455
ag17
ag85
ag29
aS'variable_7'
p1456
ag17
aS'variable_30'
p1457
ag117
aS'variable_7'
p1458
ag119
ag29
aS'variable_1'
p1459
aS'->'
p1460
aS'variable_7'
p1461
ag17
aS'variable_7'
p1462
ag29
aS'variable_1'
p1463
aS'->'
p1464
aS'variable_31'
p1465
ag17
aS'variable_7'
p1466
ag18
ag128
ag29
aS'variable_3'
p1467
aS'->'
p1468
aS'variable_32'
p1469
ag17
aS'variable_1'
p1470
aS'->'
p1471
aS'variable_7'
p1472
ag29
aS'variable_6'
p1473
ag17
aS'func_3'
p1474
ag6
ag18
aS'variable_3'
p1475
aS'->'
p1476
aS'variable_25'
p1477
ag13
ag29
aS'if'
p1478
ag6
aS'variable_6'
p1479
ag104
ag17
aS'variable_33'
p1480
ag13
aS'if'
p1481
ag6
ag52
aS'variable_2'
p1482
aS'->'
p1483
aS'variable_34'
p1484
ag117
aS'variable_6'
p1485
ag119
ag13
aS'variable_1'
p1486
aS'->'
p1487
aS'variable_35'
p1488
ag17
ag8
aS'variable_2'
p1489
aS'->'
p1490
aS'variable_34'
p1491
ag117
aS'variable_6'
p1492
ag119
ag29
aS'if'
p1493
ag6
ag52
aS'variable_2'
p1494
aS'->'
p1495
aS'variable_36'
p1496
ag117
aS'variable_1'
p1497
aS'->'
p1498
aS'variable_35'
p1499
ag63
aS'variable_37'
p1500
ag119
ag13
aS'variable_1'
p1501
aS'->'
p1502
aS'variable_38'
p1503
ag17
ag8
aS'variable_2'
p1504
aS'->'
p1505
aS'variable_36'
p1506
ag117
aS'variable_1'
p1507
aS'->'
p1508
aS'variable_35'
p1509
ag63
aS'variable_37'
p1510
ag119
ag29
aS'variable_3'
p1511
aS'->'
p1512
aS'variable_14'
p1513
aS'->'
p1514
aS'variable_39'
p1515
ag17
aS'func_4'
p1516
ag6
ag18
aS'variable_1'
p1517
aS'->'
p1518
aS'variable_38'
p1519
ag13
ag29
aS'variable_3'
p1520
aS'->'
p1521
aS'variable_14'
p1522
aS'->'
p1523
aS'variable_40'
p1524
ag17
aS'variable_1'
p1525
aS'->'
p1526
aS'variable_38'
p1527
ag63
aS'variable_41'
p1528
ag29
aS'variable_3'
p1529
aS'->'
p1530
aS'variable_14'
p1531
aS'->'
p1532
aS'variable_42'
p1533
ag17
aS'variable_1'
p1534
aS'->'
p1535
aS'variable_38'
p1536
ag63
aS'variable_43'
p1537
ag29
aS'variable_13'
p1538
ag17
ag6
aS'variable_3'
p1539
aS'->'
p1540
aS'variable_44'
p1541
aS'&&'
p1542
ag6
aS'16'
p1543
ag8
aS'variable_1'
p1544
aS'->'
p1545
aS'variable_38'
p1546
ag63
aS'variable_45'
p1547
aS'!='
p1548
aS'variable_3'
p1549
aS'->'
p1550
aS'variable_14'
p1551
aS'->'
p1552
aS'variable_46'
p1553
aS'||'
p1554
aS'16'
p1555
ag8
aS'variable_1'
p1556
aS'->'
p1557
aS'variable_38'
p1558
ag63
aS'variable_47'
p1559
ag8
ag6
ag222
ag223
aS'variable_1'
p1560
aS'->'
p1561
aS'variable_38'
p1562
ag63
aS'variable_48'
p1563
ag13
aS'!='
p1564
aS'variable_3'
p1565
aS'->'
p1566
aS'variable_14'
p1567
aS'->'
p1568
aS'variable_49'
p1569
aS'||'
p1570
aS'variable_3'
p1571
aS'->'
p1572
aS'variable_14'
p1573
aS'->'
p1574
aS'variable_50'
p1575
aS'!='
p1576
aS'variable_1'
p1577
aS'->'
p1578
aS'variable_38'
p1579
ag63
aS'variable_51'
p1580
aS'||'
p1581
aS'variable_1'
p1582
aS'->'
p1583
aS'variable_52'
p1584
aS'!='
p1585
aS'variable_1'
p1586
aS'->'
p1587
aS'variable_38'
p1588
ag63
aS'variable_53'
p1589
aS'||'
p1590
aS'func_5'
p1591
ag6
aS'variable_1'
p1592
aS'->'
p1593
aS'variable_38'
p1594
ag63
aS'variable_54'
p1595
ag10
aS'variable_3'
p1596
aS'->'
p1597
aS'variable_14'
p1598
aS'->'
p1599
aS'variable_55'
p1600
ag13
ag13
ag13
ag29
aS'if'
p1601
ag6
aS'variable_13'
p1602
aS'&&'
p1603
ag6
aS'variable_1'
p1604
aS'!='
p1605
aS'variable_2'
p1606
aS'||'
p1607
ag6
aS'variable_3'
p1608
aS'->'
p1609
aS'variable_14'
p1610
aS'->'
p1611
aS'variable_56'
p1612
ag18
aS'variable_57'
p1613
ag13
ag13
ag13
aS'variable_3'
p1614
aS'->'
p1615
aS'variable_45'
p1616
ag17
aS'variable_1'
p1617
aS'->'
p1618
aS'variable_38'
p1619
ag63
aS'variable_45'
p1620
ag29
aS'variable_3'
p1621
aS'->'
p1622
aS'variable_47'
p1623
ag17
aS'variable_1'
p1624
aS'->'
p1625
aS'variable_38'
p1626
ag63
aS'variable_47'
p1627
ag8
ag6
ag222
ag223
aS'variable_1'
p1628
aS'->'
p1629
aS'variable_38'
p1630
ag63
aS'variable_48'
p1631
ag13
ag29
aS'variable_1'
p1632
aS'->'
p1633
aS'variable_58'
p1634
ag17
aS'variable_3'
p1635
aS'->'
p1636
aS'variable_45'
p1637
ag8
ag108
ag29
aS'variable_3'
p1638
aS'->'
p1639
aS'variable_59'
p1640
ag17
aS'variable_1'
p1641
aS'->'
p1642
aS'variable_38'
p1643
ag63
aS'variable_53'
p1644
ag309
ag17
ag310
ag29
aS'variable_3'
p1645
aS'->'
p1646
aS'variable_60'
p1647
ag17
aS'16'
p1648
ag8
aS'variable_3'
p1649
aS'->'
p1650
aS'variable_45'
p1651
ag29
aS'variable_3'
p1652
aS'->'
p1653
aS'variable_61'
p1654
ag17
aS'16'
p1655
ag8
aS'variable_3'
p1656
aS'->'
p1657
aS'variable_47'
p1658
ag29
aS'if'
p1659
ag6
aS'variable_13'
p1660
ag13
aS'variable_1'
p1661
aS'->'
p1662
aS'variable_62'
p1663
ag17
ag85
ag29
aS'variable_1'
p1664
aS'->'
p1665
aS'variable_26'
p1666
ag17
ag85
ag29
aS'if'
p1667
ag6
ag52
aS'variable_3'
p1668
aS'->'
p1669
aS'variable_44'
p1670
ag13
aS'if'
p1671
ag6
aS'variable_1'
p1672
aS'!='
p1673
aS'variable_2'
p1674
ag13
aS'if'
p1675
ag6
aS'func_6'
p1676
ag6
aS'variable_3'
p1677
aS'->'
p1678
aS'variable_14'
p1679
aS'->'
p1680
aS'variable_60'
p1681
ag10
aS'16'
p1682
ag13
aS'=='
p1683
aS'variable_3'
p1684
aS'->'
p1685
aS'variable_60'
p1686
aS'&&'
p1687
aS'func_7'
p1688
ag6
aS'variable_3'
p1689
aS'->'
p1690
aS'variable_14'
p1691
aS'->'
p1692
aS'variable_61'
p1693
ag10
aS'16'
p1694
ag8
ag6
ag222
ag223
aS'variable_1'
p1695
aS'->'
p1696
aS'variable_38'
p1697
ag63
aS'variable_48'
p1698
ag13
ag13
aS'=='
p1699
aS'variable_3'
p1700
aS'->'
p1701
aS'variable_61'
p1702
aS'&&'
p1703
ag52
aS'variable_1'
p1704
aS'->'
p1705
aS'variable_38'
p1706
ag63
aS'variable_63'
p1707
aS'&&'
p1708
ag52
aS'variable_1'
p1709
aS'->'
p1710
aS'variable_38'
p1711
ag63
aS'variable_64'
p1712
aS'&&'
p1713
ag6
aS'variable_3'
p1714
aS'->'
p1715
aS'variable_14'
p1716
aS'->'
p1717
aS'variable_60'
p1718
aS'!='
p1719
aS'variable_3'
p1720
aS'->'
p1721
aS'variable_60'
p1722
aS'||'
p1723
aS'variable_3'
p1724
aS'->'
p1725
aS'variable_14'
p1726
aS'->'
p1727
aS'variable_61'
p1728
aS'&&'
p1729
aS'variable_3'
p1730
aS'->'
p1731
aS'variable_61'
p1732
ag13
ag13
aS'variable_3'
p1733
aS'->'
p1734
aS'variable_14'
p1735
aS'->'
p1736
aS'variable_60'
p1737
aS'-='
p1738
ag6
ag222
aS'>>'
p1739
aS'variable_65'
p1740
ag13
ag8
aS'func_8'
p1741
ag6
aS'variable_1'
p1742
aS'->'
p1743
aS'variable_38'
p1744
ag63
aS'variable_63'
p1745
ag10
ag6
ag412
aS'<<'
p1746
aS'variable_65'
p1747
ag13
ag223
ag310
ag13
ag29
aS'variable_3'
p1748
aS'->'
p1749
aS'variable_14'
p1750
aS'->'
p1751
aS'variable_61'
p1752
aS'-='
p1753
ag6
ag310
aS'<<'
p1754
aS'variable_3'
p1755
aS'->'
p1756
aS'variable_59'
p1757
ag13
ag8
aS'func_9'
p1758
ag6
aS'variable_1'
p1759
aS'->'
p1760
aS'variable_38'
p1761
ag63
aS'variable_64'
p1762
ag10
ag6
aS'16'
p1763
aS'>>'
p1764
aS'variable_3'
p1765
aS'->'
p1766
aS'variable_59'
p1767
ag13
ag223
ag310
ag13
ag8
ag6
ag222
ag223
aS'variable_1'
p1768
aS'->'
p1769
aS'variable_38'
p1770
ag63
aS'variable_48'
p1771
ag13
ag29
aS'variable_3'
p1772
aS'->'
p1773
aS'variable_14'
p1774
aS'->'
p1775
aS'variable_55'
p1776
ag17
aS'variable_1'
p1777
aS'->'
p1778
aS'variable_38'
p1779
ag63
aS'variable_54'
p1780
ag29
aS'if'
p1781
ag6
aS'variable_3'
p1782
aS'->'
p1783
aS'variable_14'
p1784
aS'->'
p1785
aS'variable_66'
p1786
aS'->'
p1787
aS'variable_67'
p1788
ag18
aS'variable_68'
p1789
aS'&&'
p1790
ag6
aS'variable_1'
p1791
aS'->'
p1792
aS'variable_38'
p1793
ag63
aS'variable_51'
p1794
aS'!='
p1795
ag412
aS'||'
p1796
aS'variable_1'
p1797
aS'->'
p1798
aS'variable_38'
p1799
ag63
aS'variable_53'
p1800
ag104
ag310
ag13
ag13
aS'if'
p1801
ag6
aS'variable_3'
p1802
aS'->'
p1803
aS'variable_14'
p1804
aS'->'
p1805
aS'variable_50'
p1806
aS'!='
p1807
aS'variable_1'
p1808
aS'->'
p1809
aS'variable_38'
p1810
ag63
aS'variable_51'
p1811
aS'||'
p1812
aS'variable_1'
p1813
aS'->'
p1814
aS'variable_52'
p1815
aS'!='
p1816
aS'variable_1'
p1817
aS'->'
p1818
aS'variable_38'
p1819
ag63
aS'variable_53'
p1820
ag13
aS'if'
p1821
ag6
aS'variable_1'
p1822
aS'->'
p1823
aS'variable_38'
p1824
ag63
aS'variable_51'
p1825
ag104
ag17
ag412
aS'&&'
p1826
aS'variable_1'
p1827
aS'->'
p1828
aS'variable_38'
p1829
ag63
aS'variable_51'
p1830
ag309
ag17
aS'14'
p1831
aS'&&'
p1832
aS'variable_1'
p1833
aS'->'
p1834
aS'variable_38'
p1835
ag63
aS'variable_51'
p1836
aS'!='
p1837
aS'11'
p1838
aS'&&'
p1839
aS'variable_1'
p1840
aS'->'
p1841
aS'variable_38'
p1842
ag63
aS'variable_51'
p1843
aS'!='
p1844
aS'13'
p1845
aS'&&'
p1846
ag6
aS'variable_1'
p1847
aS'->'
p1848
aS'variable_38'
p1849
ag63
aS'variable_51'
p1850
aS'!='
p1851
ag105
aS'||'
p1852
ag52
aS'variable_69'
p1853
ag13
ag13
aS'variable_3'
p1854
aS'->'
p1855
aS'variable_14'
p1856
aS'->'
p1857
aS'variable_50'
p1858
ag17
aS'variable_1'
p1859
aS'->'
p1860
aS'variable_38'
p1861
ag63
aS'variable_51'
p1862
ag29
aS'variable_1'
p1863
aS'->'
p1864
aS'variable_52'
p1865
ag17
aS'variable_1'
p1866
aS'->'
p1867
aS'variable_38'
p1868
ag63
aS'variable_53'
p1869
ag29
aS'variable_1'
p1870
aS'->'
p1871
aS'variable_18'
p1872
ag17
aS'variable_1'
p1873
aS'->'
p1874
aS'variable_38'
p1875
ag63
aS'variable_51'
p1876
ag104
ag412
ag29
aS'variable_3'
p1877
aS'->'
p1878
aS'variable_21'
p1879
ag63
aS'variable_70'
p1880
ag17
aS'variable_1'
p1881
aS'->'
p1882
aS'variable_38'
p1883
ag63
aS'variable_51'
p1884
ag104
ag412
ag552
aS'32'
p1885
ag554
aS'16'
p1886
ag29
aS'if'
p1887
ag6
aS'variable_1'
p1888
aS'->'
p1889
aS'variable_38'
p1890
ag63
aS'variable_71'
p1891
ag13
aS'variable_3'
p1892
aS'->'
p1893
aS'variable_14'
p1894
aS'->'
p1895
aS'variable_72'
p1896
ag17
aS'variable_1'
p1897
aS'->'
p1898
aS'variable_38'
p1899
ag63
aS'variable_73'
p1900
ag104
ag85
ag552
aS'variable_74'
p1901
ag554
aS'variable_75'
p1902
ag29
aS'if'
p1903
ag6
aS'variable_1'
p1904
aS'->'
p1905
aS'variable_38'
p1906
ag63
aS'variable_76'
p1907
ag13
aS'variable_3'
p1908
aS'->'
p1909
aS'variable_14'
p1910
aS'->'
p1911
aS'variable_77'
p1912
ag17
aS'variable_1'
p1913
aS'->'
p1914
aS'variable_38'
p1915
ag63
aS'variable_77'
p1916
ag29
aS'variable_3'
p1917
aS'->'
p1918
aS'variable_14'
p1919
aS'->'
p1920
aS'variable_78'
p1921
ag17
aS'variable_1'
p1922
aS'->'
p1923
aS'variable_38'
p1924
ag63
aS'variable_78'
p1925
ag29
aS'variable_3'
p1926
aS'->'
p1927
aS'variable_14'
p1928
aS'->'
p1929
aS'variable_79'
p1930
ag17
aS'variable_1'
p1931
aS'->'
p1932
aS'variable_38'
p1933
ag63
aS'variable_79'
p1934
ag29
aS'switch'
p1935
ag6
aS'variable_1'
p1936
aS'->'
p1937
aS'variable_38'
p1938
ag63
aS'variable_51'
p1939
ag13
aS'if'
p1940
ag6
aS'variable_65'
p1941
ag13
aS'if'
p1942
ag6
aS'variable_3'
p1943
aS'->'
p1944
aS'variable_14'
p1945
aS'->'
p1946
aS'variable_79'
p1947
aS'=='
p1948
aS'variable_80'
p1949
ag13
aS'variable_3'
p1950
aS'->'
p1951
aS'variable_14'
p1952
aS'->'
p1953
aS'variable_81'
p1954
ag17
aS'variable_82'
p1955
ag29
aS'variable_3'
p1956
aS'->'
p1957
aS'variable_14'
p1958
aS'->'
p1959
aS'variable_81'
p1960
ag17
aS'variable_83'
p1961
ag29
aS'if'
p1962
ag6
aS'variable_69'
p1963
ag13
aS'variable_3'
p1964
aS'->'
p1965
aS'variable_14'
p1966
aS'->'
p1967
aS'variable_81'
p1968
ag17
aS'variable_84'
p1969
ag29
aS'variable_3'
p1970
aS'->'
p1971
aS'variable_14'
p1972
aS'->'
p1973
aS'variable_81'
p1974
ag17
aS'variable_85'
p1975
ag29
aS'if'
p1976
ag6
aS'variable_65'
p1977
ag13
aS'if'
p1978
ag6
aS'variable_3'
p1979
aS'->'
p1980
aS'variable_14'
p1981
aS'->'
p1982
aS'variable_79'
p1983
aS'=='
p1984
aS'variable_80'
p1985
ag13
aS'variable_3'
p1986
aS'->'
p1987
aS'variable_14'
p1988
aS'->'
p1989
aS'variable_81'
p1990
ag17
aS'variable_86'
p1991
ag29
aS'variable_3'
p1992
aS'->'
p1993
aS'variable_14'
p1994
aS'->'
p1995
aS'variable_81'
p1996
ag17
aS'variable_87'
p1997
ag29
aS'if'
p1998
ag6
aS'variable_69'
p1999
ag13
aS'variable_3'
p2000
aS'->'
p2001
aS'variable_14'
p2002
aS'->'
p2003
aS'variable_81'
p2004
ag17
aS'variable_88'
p2005
ag29
aS'variable_3'
p2006
aS'->'
p2007
aS'variable_14'
p2008
aS'->'
p2009
aS'variable_81'
p2010
ag17
aS'variable_89'
p2011
ag29
aS'if'
p2012
ag6
aS'variable_65'
p2013
ag13
aS'if'
p2014
ag6
aS'variable_3'
p2015
aS'->'
p2016
aS'variable_14'
p2017
aS'->'
p2018
aS'variable_79'
p2019
aS'=='
p2020
aS'variable_80'
p2021
ag13
aS'variable_3'
p2022
aS'->'
p2023
aS'variable_14'
p2024
aS'->'
p2025
aS'variable_81'
p2026
ag17
aS'variable_90'
p2027
ag29
aS'variable_3'
p2028
aS'->'
p2029
aS'variable_14'
p2030
aS'->'
p2031
aS'variable_81'
p2032
ag17
aS'variable_91'
p2033
ag29
aS'if'
p2034
ag6
aS'variable_69'
p2035
ag13
aS'variable_3'
p2036
aS'->'
p2037
aS'variable_14'
p2038
aS'->'
p2039
aS'variable_81'
p2040
ag17
aS'variable_92'
p2041
ag29
aS'variable_3'
p2042
aS'->'
p2043
aS'variable_14'
p2044
aS'->'
p2045
aS'variable_81'
p2046
ag17
aS'variable_93'
p2047
ag29
aS'if'
p2048
ag6
aS'variable_65'
p2049
ag13
aS'if'
p2050
ag6
aS'variable_3'
p2051
aS'->'
p2052
aS'variable_14'
p2053
aS'->'
p2054
aS'variable_79'
p2055
aS'=='
p2056
aS'variable_80'
p2057
ag13
aS'variable_3'
p2058
aS'->'
p2059
aS'variable_14'
p2060
aS'->'
p2061
aS'variable_81'
p2062
ag17
aS'variable_94'
p2063
ag29
aS'variable_3'
p2064
aS'->'
p2065
aS'variable_14'
p2066
aS'->'
p2067
aS'variable_81'
p2068
ag17
aS'variable_95'
p2069
ag29
aS'if'
p2070
ag6
aS'variable_69'
p2071
ag13
aS'variable_3'
p2072
aS'->'
p2073
aS'variable_14'
p2074
aS'->'
p2075
aS'variable_81'
p2076
ag17
aS'variable_96'
p2077
ag29
aS'variable_3'
p2078
aS'->'
p2079
aS'variable_14'
p2080
aS'->'
p2081
aS'variable_81'
p2082
ag17
aS'variable_97'
p2083
ag29
aS'if'
p2084
ag6
aS'variable_65'
p2085
ag13
aS'variable_3'
p2086
aS'->'
p2087
aS'variable_14'
p2088
aS'->'
p2089
aS'variable_81'
p2090
ag17
aS'variable_3'
p2091
aS'->'
p2092
aS'variable_14'
p2093
aS'->'
p2094
aS'variable_72'
p2095
aS'=='
p2096
aS'variable_74'
p2097
ag552
aS'variable_98'
p2098
ag554
aS'variable_99'
p2099
ag29
aS'if'
p2100
ag6
aS'variable_3'
p2101
aS'->'
p2102
aS'variable_14'
p2103
aS'->'
p2104
aS'variable_79'
p2105
aS'=='
p2106
aS'variable_80'
p2107
ag13
aS'variable_3'
p2108
aS'->'
p2109
aS'variable_14'
p2110
aS'->'
p2111
aS'variable_81'
p2112
ag17
aS'variable_100'
p2113
ag29
aS'if'
p2114
ag6
aS'variable_69'
p2115
ag13
aS'variable_3'
p2116
aS'->'
p2117
aS'variable_14'
p2118
aS'->'
p2119
aS'variable_81'
p2120
ag17
aS'variable_3'
p2121
aS'->'
p2122
aS'variable_14'
p2123
aS'->'
p2124
aS'variable_72'
p2125
aS'=='
p2126
aS'variable_74'
p2127
ag552
aS'variable_101'
p2128
ag554
aS'variable_102'
p2129
ag29
aS'variable_3'
p2130
aS'->'
p2131
aS'variable_14'
p2132
aS'->'
p2133
aS'variable_81'
p2134
ag17
aS'variable_3'
p2135
aS'->'
p2136
aS'variable_14'
p2137
aS'->'
p2138
aS'func_10'
p2139
ag6
aS'variable_3'
p2140
aS'->'
p2141
aS'variable_14'
p2142
ag10
aS'variable_3'
p2143
aS'->'
p2144
aS'variable_14'
p2145
aS'->'
p2146
aS'variable_66'
p2147
aS'->'
p2148
aS'variable_103'
p2149
ag552
aS'variable_3'
p2150
aS'->'
p2151
aS'variable_14'
p2152
aS'->'
p2153
aS'variable_66'
p2154
aS'->'
p2155
aS'variable_103'
p2156
ag554
aS'variable_3'
p2157
aS'->'
p2158
aS'variable_14'
p2159
aS'->'
p2160
aS'variable_72'
p2161
aS'=='
p2162
aS'variable_74'
p2163
ag552
aS'variable_104'
p2164
ag554
aS'variable_105'
p2165
ag13
ag29
aS'variable_3'
p2166
aS'->'
p2167
aS'variable_14'
p2168
aS'->'
p2169
aS'variable_106'
p2170
ag17
aS'func_11'
p2171
ag6
aS'variable_3'
p2172
aS'->'
p2173
aS'variable_14'
p2174
aS'->'
p2175
aS'variable_66'
p2176
aS'->'
p2177
aS'variable_107'
p2178
ag10
aS'variable_3'
p2179
aS'->'
p2180
aS'variable_14'
p2181
aS'->'
p2182
aS'variable_81'
p2183
ag13
ag29
aS'if'
p2184
ag6
aS'func_12'
p2185
ag6
aS'variable_3'
p2186
ag13
ag309
ag85
ag13
aS'variable_3'
p2187
aS'->'
p2188
aS'variable_27'
p2189
ag17
ag85
ag29
aS'variable_1'
p2190
aS'->'
p2191
aS'variable_108'
p2192
ag17
ag310
ag29
aS'if'
p2193
ag6
aS'func_13'
p2194
ag6
aS'variable_1'
p2195
ag13
ag309
ag85
ag13
aS'if'
p2196
ag6
ag52
aS'variable_109'
p2197
aS'||'
p2198
ag52
ag6
aS'variable_3'
p2199
aS'->'
p2200
aS'variable_14'
p2201
aS'->'
p2202
aS'variable_56'
p2203
ag18
aS'variable_110'
p2204
ag13
ag13
aS'if'
p2205
ag6
aS'func_14'
p2206
ag6
aS'variable_1'
p2207
ag13
ag309
ag85
ag13
aS'for'
p2208
ag6
aS'variable_9'
p2209
ag17
ag310
ag29
aS'variable_9'
p2210
ag309
aS'variable_3'
p2211
aS'->'
p2212
aS'variable_111'
p2213
ag29
aS'variable_9'
p2214
aS'++'
p2215
ag13
aS'variable_0'
p2216
ag8
aS'variable_112'
p2217
ag29
aS'variable_112'
p2218
ag17
aS'variable_1'
p2219
aS'->'
p2220
aS'variable_113'
p2221
ag117
aS'variable_9'
p2222
ag119
ag17
aS'func_15'
p2223
ag6
aS'sizeof'
p2224
ag6
aS'variable_0'
p2225
ag13
ag13
ag29
aS'for'
p2226
ag6
aS'variable_9'
p2227
ag17
ag85
ag29
aS'variable_9'
p2228
ag309
aS'variable_3'
p2229
aS'->'
p2230
aS'variable_111'
p2231
ag29
aS'variable_9'
p2232
aS'++'
p2233
ag13
aS'if'
p2234
ag6
aS'func_16'
p2235
ag6
aS'variable_1'
p2236
aS'->'
p2237
aS'variable_113'
p2238
ag117
aS'variable_9'
p2239
ag119
ag13
ag309
ag85
ag13
aS'if'
p2240
ag6
aS'variable_1'
p2241
aS'=='
p2242
aS'variable_2'
p2243
aS'&&'
p2244
aS'variable_1'
p2245
aS'->'
p2246
aS'variable_114'
p2247
aS'!='
p2248
aS'variable_6'
p2249
ag13
aS'variable_1'
p2250
aS'->'
p2251
aS'variable_114'
p2252
ag17
aS'variable_6'
p2253
ag29
aS'variable_1'
p2254
aS'->'
p2255
aS'variable_115'
p2256
ag17
aS'func_17'
p2257
ag6
ag18
aS'variable_3'
p2258
aS'->'
p2259
aS'variable_25'
p2260
ag10
aS'variable_1'
p2261
aS'->'
p2262
aS'variable_38'
p2263
ag63
aS'variable_116'
p2264
ag13
ag29
aS'variable_1'
p2265
aS'->'
p2266
aS'variable_117'
p2267
ag17
ag85
ag29
aS'variable_1'
p2268
aS'->'
p2269
aS'variable_118'
p2270
ag17
ag85
ag29
aS'variable_11'
p2271
ag17
aS'variable_4'
p2272
aS'->'
p2273
aS'variable_119'
p2274
ag29
aS'variable_12'
p2275
ag17
aS'variable_3'
p2276
aS'->'
p2277
aS'variable_120'
p2278
ag29
aS'variable_3'
p2279
aS'->'
p2280
aS'variable_120'
p2281
ag17
aS'variable_1'
p2282
aS'->'
p2283
aS'variable_17'
p2284
aS'=='
p2285
ag85
ag29
aS'if'
p2286
ag6
aS'variable_1'
p2287
aS'->'
p2288
aS'variable_38'
p2289
ag63
aS'variable_48'
p2290
ag13
aS'variable_3'
p2291
aS'->'
p2292
aS'variable_119'
p2293
ag17
aS'variable_121'
p2294
ag29
aS'if'
p2295
ag6
ag52
aS'variable_1'
p2296
aS'->'
p2297
aS'variable_38'
p2298
ag63
aS'variable_122'
p2299
aS'&&'
p2300
aS'variable_7'
p2301
aS'=='
p2302
aS'variable_123'
p2303
ag13
aS'if'
p2304
ag6
aS'func_18'
p2305
ag6
ag18
aS'variable_3'
p2306
aS'->'
p2307
aS'variable_25'
p2308
ag13
ag13
aS'variable_3'
p2309
aS'->'
p2310
aS'variable_119'
p2311
ag17
aS'variable_124'
p2312
ag982
aS'func_19'
p2313
ag6
ag18
aS'variable_3'
p2314
aS'->'
p2315
aS'variable_25'
p2316
ag13
ag29
aS'variable_3'
p2317
aS'->'
p2318
aS'variable_119'
p2319
ag17
aS'variable_121'
p2320
ag29
aS'variable_1'
p2321
aS'->'
p2322
aS'variable_118'
p2323
ag17
aS'variable_1'
p2324
aS'->'
p2325
aS'variable_38'
p2326
ag63
aS'variable_125'
p2327
ag29
aS'variable_1'
p2328
aS'->'
p2329
aS'variable_126'
p2330
ag17
aS'variable_3'
p2331
aS'->'
p2332
aS'variable_119'
p2333
aS'!='
p2334
aS'variable_121'
p2335
ag29
aS'if'
p2336
ag6
aS'variable_2'
p2337
aS'->'
p2338
aS'variable_26'
p2339
aS'!='
p2340
ag85
ag13
aS'if'
p2341
ag6
aS'variable_11'
p2342
aS'!='
p2343
aS'variable_3'
p2344
aS'->'
p2345
aS'variable_119'
p2346
aS'||'
p2347
aS'variable_12'
p2348
aS'!='
p2349
aS'variable_3'
p2350
aS'->'
p2351
aS'variable_120'
p2352
ag13
aS'if'
p2353
ag6
aS'variable_1'
p2354
aS'->'
p2355
aS'variable_115'
p2356
aS'!='
p2357
aS'variable_1'
p2358
aS'->'
p2359
aS'variable_127'
p2360
aS'&&'
p2361
aS'variable_1'
p2362
aS'->'
p2363
aS'variable_127'
p2364
ag104
ag17
ag85
ag13
aS'int'
p2365
aS'variable_128'
p2366
ag17
aS'variable_1'
p2367
aS'->'
p2368
aS'variable_127'
p2369
ag29
aS'int'
p2370
aS'variable_129'
p2371
ag17
ag310
aS'<<'
p2372
aS'variable_1'
p2373
aS'->'
p2374
aS'variable_38'
p2375
ag63
aS'variable_116'
p2376
ag29
aS'if'
p2377
ag6
aS'variable_128'
p2378
ag104
aS'variable_1'
p2379
aS'->'
p2380
aS'variable_115'
p2381
ag13
aS'variable_128'
p2382
aS'-='
p2383
aS'variable_129'
p2384
ag29
aS'if'
p2385
ag6
ag6
aS'variable_1'
p2386
aS'->'
p2387
aS'variable_115'
p2388
ag223
aS'variable_128'
p2389
ag13
ag104
aS'variable_1'
p2390
aS'->'
p2391
aS'variable_38'
p2392
ag63
aS'variable_43'
p2393
ag13
aS'variable_128'
p2394
ag17
ag6
aS'variable_1'
p2395
aS'->'
p2396
aS'variable_115'
p2397
ag223
aS'variable_1'
p2398
aS'->'
p2399
aS'variable_38'
p2400
ag63
aS'variable_43'
p2401
ag13
ag223
ag310
ag29
aS'if'
p2402
ag6
aS'variable_128'
p2403
ag309
ag85
ag13
aS'variable_128'
p2404
aS'+='
p2405
aS'variable_129'
p2406
ag29
aS'variable_1'
p2407
aS'->'
p2408
aS'variable_127'
p2409
ag17
aS'variable_128'
p2410
ag29
aS'if'
p2411
ag6
aS'variable_4'
p2412
aS'->'
p2413
aS'variable_27'
p2414
ag13
aS'if'
p2415
ag6
ag52
aS'variable_130'
p2416
aS'||'
p2417
aS'variable_3'
p2418
aS'->'
p2419
aS'variable_119'
p2420
aS'=='
p2421
aS'variable_11'
p2422
ag13
aS'if'
p2423
ag6
aS'variable_4'
p2424
aS'->'
p2425
aS'variable_28'
p2426
aS'->'
p2427
aS'variable_115'
p2428
aS'!='
p2429
aS'variable_1'
p2430
aS'->'
p2431
aS'variable_115'
p2432
ag13
aS'if'
p2433
ag6
ag52
ag6
ag6
aS'variable_11'
p2434
aS'=='
p2435
aS'variable_124'
p2436
aS'&&'
p2437
aS'variable_3'
p2438
aS'->'
p2439
aS'variable_119'
p2440
aS'=='
p2441
aS'variable_131'
p2442
ag13
aS'||'
p2443
ag6
aS'variable_11'
p2444
aS'=='
p2445
aS'variable_131'
p2446
aS'&&'
p2447
aS'variable_3'
p2448
aS'->'
p2449
aS'variable_119'
p2450
aS'=='
p2451
aS'variable_124'
p2452
ag13
ag13
ag13
aS'if'
p2453
ag6
aS'variable_12'
p2454
aS'!='
p2455
aS'variable_3'
p2456
aS'->'
p2457
aS'variable_120'
p2458
ag13
aS'variable_3'
p2459
aS'->'
p2460
aS'variable_119'
p2461
ag17
aS'variable_11'
p2462
ag29
aS'variable_3'
p2463
aS'->'
p2464
aS'variable_120'
p2465
ag17
aS'variable_12'
p2466
ag29
aS'variable_4'
p2467
aS'->'
p2468
aS'variable_28'
p2469
aS'->'
p2470
aS'variable_132'
p2471
ag17
aS'variable_4'
p2472
ag29
aS'while'
p2473
ag6
aS'variable_1'
p2474
aS'->'
p2475
aS'variable_115'
p2476
aS'!='
p2477
aS'variable_1'
p2478
aS'->'
p2479
aS'variable_127'
p2480
aS'&&'
p2481
aS'variable_1'
p2482
aS'->'
p2483
aS'variable_127'
p2484
ag104
ag17
ag85
aS'&&'
p2485
aS'variable_1'
p2486
aS'->'
p2487
aS'variable_115'
p2488
aS'!='
p2489
ag6
aS'variable_1'
p2490
aS'->'
p2491
aS'variable_127'
p2492
ag982
ag310
ag13
ag1163
ag6
ag310
aS'<<'
p2493
aS'variable_1'
p2494
aS'->'
p2495
aS'variable_38'
p2496
ag63
aS'variable_116'
p2497
ag13
ag13
aS'variable_133'
p2498
ag8
aS'variable_134'
p2499
ag17
aS'variable_1'
p2500
aS'->'
p2501
aS'variable_135'
p2502
ag552
aS'variable_1'
p2503
aS'->'
p2504
aS'variable_136'
p2505
ag117
ag85
ag119
ag554
aS'NULL'
p2506
ag29
aS'if'
p2507
ag6
aS'func_20'
p2508
ag6
aS'variable_1'
p2509
ag13
ag309
ag85
ag13
aS'variable_1'
p2510
aS'->'
p2511
aS'variable_127'
p2512
aS'++'
p2513
ag29
aS'variable_1'
p2514
aS'->'
p2515
aS'variable_127'
p2516
ag1163
ag17
ag310
aS'<<'
p2517
aS'variable_1'
p2518
aS'->'
p2519
aS'variable_38'
p2520
ag63
aS'variable_116'
p2521
ag29
aS'variable_3'
p2522
aS'->'
p2523
aS'variable_28'
p2524
aS'->'
p2525
aS'variable_115'
p2526
ag17
aS'variable_1'
p2527
aS'->'
p2528
aS'variable_127'
p2529
ag29
aS'if'
p2530
ag6
aS'func_21'
p2531
ag6
aS'variable_1'
p2532
ag10
aS'variable_1'
p2533
aS'->'
p2534
aS'variable_137'
p2535
ag10
aS'variable_1'
p2536
aS'->'
p2537
aS'variable_138'
p2538
ag13
ag309
ag85
aS'&&'
p2539
ag6
aS'variable_3'
p2540
aS'->'
p2541
aS'variable_14'
p2542
aS'->'
p2543
aS'variable_139'
p2544
ag18
aS'variable_140'
p2545
ag13
ag13
aS'if'
p2546
ag6
aS'variable_1'
p2547
aS'->'
p2548
aS'variable_135'
p2549
ag13
aS'if'
p2550
ag6
aS'variable_134'
p2551
ag13
aS'variable_1'
p2552
aS'->'
p2553
aS'variable_136'
p2554
ag117
ag85
ag119
aS'->'
p2555
aS'variable_141'
p2556
ag17
aS'variable_134'
p2557
aS'->'
p2558
aS'variable_141'
p2559
ag982
ag222
ag29
aS'variable_1'
p2560
aS'->'
p2561
aS'variable_136'
p2562
ag117
ag85
ag119
aS'->'
p2563
aS'variable_115'
p2564
ag17
aS'variable_1'
p2565
aS'->'
p2566
aS'variable_127'
p2567
ag29
aS'if'
p2568
ag6
aS'variable_4'
p2569
aS'->'
p2570
aS'variable_27'
p2571
ag13
aS'if'
p2572
ag6
ag52
aS'variable_130'
p2573
aS'||'
p2574
aS'variable_3'
p2575
aS'->'
p2576
aS'variable_119'
p2577
aS'=='
p2578
aS'variable_11'
p2579
ag13
aS'variable_4'
p2580
aS'->'
p2581
aS'variable_28'
p2582
ag17
aS'NULL'
p2583
ag29
aS'variable_4'
p2584
aS'->'
p2585
aS'variable_27'
p2586
ag17
aS'variable_130'
p2587
ag29
aS'if'
p2588
ag6
aS'variable_4'
p2589
aS'->'
p2590
aS'variable_28'
p2591
aS'->'
p2592
aS'variable_115'
p2593
aS'!='
p2594
aS'variable_1'
p2595
aS'->'
p2596
aS'variable_115'
p2597
ag13
aS'variable_4'
p2598
aS'->'
p2599
aS'variable_27'
p2600
ag17
ag310
ag29
aS'variable_4'
p2601
aS'->'
p2602
aS'variable_28'
p2603
ag17
aS'NULL'
p2604
ag29
aS'variable_4'
p2605
aS'->'
p2606
aS'variable_27'
p2607
ag17
ag85
ag29
aS'variable_4'
p2608
aS'->'
p2609
aS'variable_27'
p2610
ag17
aS'variable_130'
p2611
ag29
aS'if'
p2612
ag6
ag52
aS'variable_130'
p2613
aS'||'
p2614
aS'variable_4'
p2615
aS'->'
p2616
aS'variable_27'
p2617
ag13
aS'if'
p2618
ag6
aS'func_22'
p2619
ag6
aS'variable_1'
p2620
ag13
ag309
ag85
ag13
aS'variable_3'
p2621
aS'->'
p2622
aS'variable_28'
p2623
aS'->'
p2624
aS'variable_115'
p2625
ag17
aS'variable_1'
p2626
aS'->'
p2627
aS'variable_115'
p2628
ag29
aS'assert'
p2629
ag6
aS'variable_3'
p2630
aS'->'
p2631
aS'variable_142'
p2632
aS'=='
p2633
aS'variable_3'
p2634
aS'->'
p2635
aS'variable_45'
p2636
ag8
aS'variable_3'
p2637
aS'->'
p2638
aS'variable_47'
p2639
ag13
ag29
aa(lp2640
S'static'
p2641
aS'int'
p2642
aS'func_0'
p2643
ag6
aS'variable_0'
p2644
ag8
aS'variable_1'
p2645
ag10
aS'variable_0'
p2646
ag8
aS'variable_2'
p2647
ag13
aS'MpegEncContext'
p2648
ag8
aS'const'
p2649
aS'variable_3'
p2650
ag17
ag18
aS'variable_1'
p2651
aS'->'
p2652
aS'MpegEncContext'
p2653
ag8
aS'const'
p2654
aS'variable_4'
p2655
ag17
ag18
aS'variable_2'
p2656
aS'->'
p2657
aS'unsigned'
p2658
aS'int'
p2659
aS'variable_5'
p2660
ag29
aS'unsigned'
p2661
aS'int'
p2662
aS'variable_6'
p2663
ag29
aS'unsigned'
p2664
aS'int'
p2665
aS'variable_7'
p2666
ag10
aS'variable_8'
p2667
ag10
aS'variable_9'
p2668
ag10
aS'variable_10'
p2669
ag29
aS'int'
p2670
aS'variable_11'
p2671
ag10
aS'variable_12'
p2672
ag29
aS'int'
p2673
aS'variable_13'
p2674
ag29
aS'if'
p2675
ag6
ag6
aS'variable_3'
p2676
aS'->'
p2677
aS'variable_14'
p2678
aS'->'
p2679
aS'variable_15'
p2680
ag18
aS'variable_16'
p2681
ag13
aS'&&'
p2682
ag52
aS'variable_1'
p2683
aS'->'
p2684
aS'variable_17'
p2685
aS'&&'
p2686
ag52
aS'variable_1'
p2687
aS'->'
p2688
aS'variable_18'
p2689
ag13
aS'variable_3'
p2690
aS'->'
p2691
aS'variable_19'
p2692
ag63
aS'variable_20'
p2693
ag17
aS'variable_3'
p2694
aS'->'
p2695
aS'variable_21'
p2696
ag63
aS'variable_22'
p2697
ag29
aS'variable_3'
p2698
aS'->'
p2699
aS'variable_19'
p2700
ag63
aS'variable_23'
p2701
ag17
aS'variable_3'
p2702
aS'->'
p2703
aS'variable_21'
p2704
ag63
aS'variable_24'
p2705
ag29
aS'variable_5'
p2706
ag17
aS'func_1'
p2707
ag6
ag18
aS'variable_3'
p2708
aS'->'
p2709
aS'variable_25'
p2710
ag13
ag29
aS'if'
p2711
ag6
aS'variable_5'
p2712
aS'=='
p2713
ag85
ag13
aS'variable_2'
p2714
aS'->'
p2715
aS'variable_26'
p2716
ag17
ag85
ag29
aS'if'
p2717
ag6
ag52
aS'variable_4'
p2718
aS'->'
p2719
aS'variable_27'
p2720
ag13
aS'variable_3'
p2721
aS'->'
p2722
aS'variable_28'
p2723
ag17
aS'NULL'
p2724
ag29
aS'variable_7'
p2725
ag17
aS'func_2'
p2726
ag6
ag18
aS'variable_3'
p2727
aS'->'
p2728
aS'variable_25'
p2729
ag13
ag29
aS'if'
p2730
ag6
aS'variable_7'
p2731
ag104
ag105
ag13
aS'if'
p2732
ag6
aS'variable_7'
p2733
ag104
ag108
ag13
aS'variable_7'
p2734
aS'-='
p2735
ag111
ag29
aS'variable_1'
p2736
aS'->'
p2737
aS'variable_29'
p2738
ag17
ag85
ag29
aS'variable_7'
p2739
ag17
aS'variable_30'
p2740
ag117
aS'variable_7'
p2741
ag119
ag29
aS'variable_1'
p2742
aS'->'
p2743
aS'variable_7'
p2744
ag17
aS'variable_7'
p2745
ag29
aS'variable_1'
p2746
aS'->'
p2747
aS'variable_31'
p2748
ag17
aS'variable_7'
p2749
ag18
ag128
ag29
aS'variable_3'
p2750
aS'->'
p2751
aS'variable_32'
p2752
ag17
aS'variable_1'
p2753
aS'->'
p2754
aS'variable_7'
p2755
ag29
aS'variable_6'
p2756
ag17
aS'func_3'
p2757
ag6
ag18
aS'variable_3'
p2758
aS'->'
p2759
aS'variable_25'
p2760
ag13
ag29
aS'if'
p2761
ag6
aS'variable_6'
p2762
ag104
ag17
aS'variable_33'
p2763
ag13
aS'if'
p2764
ag6
ag52
aS'variable_2'
p2765
aS'->'
p2766
aS'variable_34'
p2767
ag117
aS'variable_6'
p2768
ag119
ag13
aS'variable_1'
p2769
aS'->'
p2770
aS'variable_35'
p2771
ag17
ag8
aS'variable_2'
p2772
aS'->'
p2773
aS'variable_34'
p2774
ag117
aS'variable_6'
p2775
ag119
ag29
aS'if'
p2776
ag6
ag52
aS'variable_2'
p2777
aS'->'
p2778
aS'variable_36'
p2779
ag117
aS'variable_1'
p2780
aS'->'
p2781
aS'variable_35'
p2782
ag63
aS'variable_37'
p2783
ag119
ag13
aS'variable_1'
p2784
aS'->'
p2785
aS'variable_38'
p2786
ag17
ag8
aS'variable_2'
p2787
aS'->'
p2788
aS'variable_36'
p2789
ag117
aS'variable_1'
p2790
aS'->'
p2791
aS'variable_35'
p2792
ag63
aS'variable_37'
p2793
ag119
ag29
aS'variable_3'
p2794
aS'->'
p2795
aS'variable_14'
p2796
aS'->'
p2797
aS'variable_39'
p2798
ag17
aS'func_4'
p2799
ag6
ag18
aS'variable_1'
p2800
aS'->'
p2801
aS'variable_38'
p2802
ag13
ag29
aS'variable_3'
p2803
aS'->'
p2804
aS'variable_14'
p2805
aS'->'
p2806
aS'variable_40'
p2807
ag17
aS'variable_1'
p2808
aS'->'
p2809
aS'variable_38'
p2810
ag63
aS'variable_41'
p2811
ag29
aS'variable_3'
p2812
aS'->'
p2813
aS'variable_14'
p2814
aS'->'
p2815
aS'variable_42'
p2816
ag17
aS'variable_1'
p2817
aS'->'
p2818
aS'variable_38'
p2819
ag63
aS'variable_43'
p2820
ag29
aS'variable_13'
p2821
ag17
ag6
aS'variable_3'
p2822
aS'->'
p2823
aS'variable_44'
p2824
aS'&&'
p2825
ag6
aS'16'
p2826
ag8
aS'variable_1'
p2827
aS'->'
p2828
aS'variable_38'
p2829
ag63
aS'variable_45'
p2830
aS'!='
p2831
aS'variable_3'
p2832
aS'->'
p2833
aS'variable_14'
p2834
aS'->'
p2835
aS'variable_46'
p2836
aS'||'
p2837
aS'16'
p2838
ag8
aS'variable_1'
p2839
aS'->'
p2840
aS'variable_38'
p2841
ag63
aS'variable_47'
p2842
ag8
ag6
ag222
ag223
aS'variable_1'
p2843
aS'->'
p2844
aS'variable_38'
p2845
ag63
aS'variable_48'
p2846
ag13
aS'!='
p2847
aS'variable_3'
p2848
aS'->'
p2849
aS'variable_14'
p2850
aS'->'
p2851
aS'variable_49'
p2852
aS'||'
p2853
aS'variable_3'
p2854
aS'->'
p2855
aS'variable_14'
p2856
aS'->'
p2857
aS'variable_50'
p2858
aS'!='
p2859
aS'variable_1'
p2860
aS'->'
p2861
aS'variable_38'
p2862
ag63
aS'variable_51'
p2863
aS'||'
p2864
aS'variable_1'
p2865
aS'->'
p2866
aS'variable_52'
p2867
aS'!='
p2868
aS'variable_1'
p2869
aS'->'
p2870
aS'variable_38'
p2871
ag63
aS'variable_53'
p2872
aS'||'
p2873
aS'func_5'
p2874
ag6
aS'variable_1'
p2875
aS'->'
p2876
aS'variable_38'
p2877
ag63
aS'variable_54'
p2878
ag10
aS'variable_3'
p2879
aS'->'
p2880
aS'variable_14'
p2881
aS'->'
p2882
aS'variable_55'
p2883
ag13
ag13
ag13
ag29
aS'if'
p2884
ag6
aS'variable_13'
p2885
aS'&&'
p2886
ag6
aS'variable_1'
p2887
aS'!='
p2888
aS'variable_2'
p2889
aS'||'
p2890
ag6
aS'variable_3'
p2891
aS'->'
p2892
aS'variable_14'
p2893
aS'->'
p2894
aS'variable_56'
p2895
ag18
aS'variable_57'
p2896
ag13
ag13
ag13
aS'variable_3'
p2897
aS'->'
p2898
aS'variable_45'
p2899
ag17
aS'variable_1'
p2900
aS'->'
p2901
aS'variable_38'
p2902
ag63
aS'variable_45'
p2903
ag29
aS'variable_3'
p2904
aS'->'
p2905
aS'variable_47'
p2906
ag17
aS'variable_1'
p2907
aS'->'
p2908
aS'variable_38'
p2909
ag63
aS'variable_47'
p2910
ag8
ag6
ag222
ag223
aS'variable_1'
p2911
aS'->'
p2912
aS'variable_38'
p2913
ag63
aS'variable_48'
p2914
ag13
ag29
aS'variable_1'
p2915
aS'->'
p2916
aS'variable_58'
p2917
ag17
aS'variable_3'
p2918
aS'->'
p2919
aS'variable_45'
p2920
ag8
ag108
ag29
aS'variable_3'
p2921
aS'->'
p2922
aS'variable_59'
p2923
ag17
aS'variable_1'
p2924
aS'->'
p2925
aS'variable_38'
p2926
ag63
aS'variable_53'
p2927
ag309
ag17
ag310
ag29
aS'variable_3'
p2928
aS'->'
p2929
aS'variable_60'
p2930
ag17
aS'16'
p2931
ag8
aS'variable_3'
p2932
aS'->'
p2933
aS'variable_45'
p2934
ag29
aS'variable_3'
p2935
aS'->'
p2936
aS'variable_61'
p2937
ag17
aS'16'
p2938
ag8
aS'variable_3'
p2939
aS'->'
p2940
aS'variable_47'
p2941
ag29
aS'if'
p2942
ag6
aS'variable_13'
p2943
ag13
aS'variable_1'
p2944
aS'->'
p2945
aS'variable_62'
p2946
ag17
ag85
ag29
aS'variable_1'
p2947
aS'->'
p2948
aS'variable_26'
p2949
ag17
ag85
ag29
aS'if'
p2950
ag6
ag52
aS'variable_3'
p2951
aS'->'
p2952
aS'variable_44'
p2953
ag13
aS'if'
p2954
ag6
aS'variable_1'
p2955
aS'!='
p2956
aS'variable_2'
p2957
ag13
aS'if'
p2958
ag6
aS'func_6'
p2959
ag6
aS'variable_3'
p2960
aS'->'
p2961
aS'variable_14'
p2962
aS'->'
p2963
aS'variable_60'
p2964
ag10
aS'16'
p2965
ag13
aS'=='
p2966
aS'variable_3'
p2967
aS'->'
p2968
aS'variable_60'
p2969
aS'&&'
p2970
aS'func_7'
p2971
ag6
aS'variable_3'
p2972
aS'->'
p2973
aS'variable_14'
p2974
aS'->'
p2975
aS'variable_61'
p2976
ag10
aS'16'
p2977
ag8
ag6
ag222
ag223
aS'variable_1'
p2978
aS'->'
p2979
aS'variable_38'
p2980
ag63
aS'variable_48'
p2981
ag13
ag13
aS'=='
p2982
aS'variable_3'
p2983
aS'->'
p2984
aS'variable_61'
p2985
aS'&&'
p2986
ag52
aS'variable_1'
p2987
aS'->'
p2988
aS'variable_38'
p2989
ag63
aS'variable_63'
p2990
aS'&&'
p2991
ag52
aS'variable_1'
p2992
aS'->'
p2993
aS'variable_38'
p2994
ag63
aS'variable_64'
p2995
aS'&&'
p2996
ag6
aS'variable_3'
p2997
aS'->'
p2998
aS'variable_14'
p2999
aS'->'
p3000
aS'variable_60'
p3001
aS'!='
p3002
aS'variable_3'
p3003
aS'->'
p3004
aS'variable_60'
p3005
aS'||'
p3006
aS'variable_3'
p3007
aS'->'
p3008
aS'variable_14'
p3009
aS'->'
p3010
aS'variable_61'
p3011
aS'&&'
p3012
aS'variable_3'
p3013
aS'->'
p3014
aS'variable_61'
p3015
ag13
ag13
aS'variable_3'
p3016
aS'->'
p3017
aS'variable_14'
p3018
aS'->'
p3019
aS'variable_60'
p3020
aS'-='
p3021
ag6
ag222
aS'>>'
p3022
aS'variable_65'
p3023
ag13
ag8
aS'func_8'
p3024
ag6
aS'variable_1'
p3025
aS'->'
p3026
aS'variable_38'
p3027
ag63
aS'variable_63'
p3028
ag10
ag6
ag412
aS'<<'
p3029
aS'variable_65'
p3030
ag13
ag223
ag310
ag13
ag29
aS'variable_3'
p3031
aS'->'
p3032
aS'variable_14'
p3033
aS'->'
p3034
aS'variable_61'
p3035
aS'-='
p3036
ag6
ag310
aS'<<'
p3037
aS'variable_3'
p3038
aS'->'
p3039
aS'variable_59'
p3040
ag13
ag8
aS'func_9'
p3041
ag6
aS'variable_1'
p3042
aS'->'
p3043
aS'variable_38'
p3044
ag63
aS'variable_64'
p3045
ag10
ag6
aS'16'
p3046
aS'>>'
p3047
aS'variable_3'
p3048
aS'->'
p3049
aS'variable_59'
p3050
ag13
ag223
ag310
ag13
ag8
ag6
ag222
ag223
aS'variable_1'
p3051
aS'->'
p3052
aS'variable_38'
p3053
ag63
aS'variable_48'
p3054
ag13
ag29
aS'variable_3'
p3055
aS'->'
p3056
aS'variable_14'
p3057
aS'->'
p3058
aS'variable_55'
p3059
ag17
aS'variable_1'
p3060
aS'->'
p3061
aS'variable_38'
p3062
ag63
aS'variable_54'
p3063
ag29
aS'if'
p3064
ag6
aS'variable_3'
p3065
aS'->'
p3066
aS'variable_14'
p3067
aS'->'
p3068
aS'variable_66'
p3069
aS'->'
p3070
aS'variable_67'
p3071
ag18
aS'variable_68'
p3072
aS'&&'
p3073
ag6
aS'variable_1'
p3074
aS'->'
p3075
aS'variable_38'
p3076
ag63
aS'variable_51'
p3077
aS'!='
p3078
ag412
aS'||'
p3079
aS'variable_1'
p3080
aS'->'
p3081
aS'variable_38'
p3082
ag63
aS'variable_53'
p3083
ag104
ag310
ag13
ag13
aS'if'
p3084
ag6
aS'variable_3'
p3085
aS'->'
p3086
aS'variable_14'
p3087
aS'->'
p3088
aS'variable_50'
p3089
aS'!='
p3090
aS'variable_1'
p3091
aS'->'
p3092
aS'variable_38'
p3093
ag63
aS'variable_51'
p3094
aS'||'
p3095
aS'variable_1'
p3096
aS'->'
p3097
aS'variable_52'
p3098
aS'!='
p3099
aS'variable_1'
p3100
aS'->'
p3101
aS'variable_38'
p3102
ag63
aS'variable_53'
p3103
ag13
aS'if'
p3104
ag6
aS'variable_1'
p3105
aS'->'
p3106
aS'variable_38'
p3107
ag63
aS'variable_51'
p3108
ag104
ag17
ag412
aS'&&'
p3109
aS'variable_1'
p3110
aS'->'
p3111
aS'variable_38'
p3112
ag63
aS'variable_51'
p3113
ag309
ag17
aS'14'
p3114
aS'&&'
p3115
aS'variable_1'
p3116
aS'->'
p3117
aS'variable_38'
p3118
ag63
aS'variable_51'
p3119
aS'!='
p3120
aS'11'
p3121
aS'&&'
p3122
aS'variable_1'
p3123
aS'->'
p3124
aS'variable_38'
p3125
ag63
aS'variable_51'
p3126
aS'!='
p3127
aS'13'
p3128
aS'&&'
p3129
ag6
aS'variable_1'
p3130
aS'->'
p3131
aS'variable_38'
p3132
ag63
aS'variable_51'
p3133
aS'!='
p3134
ag105
aS'||'
p3135
ag52
aS'variable_69'
p3136
ag13
ag13
aS'variable_3'
p3137
aS'->'
p3138
aS'variable_14'
p3139
aS'->'
p3140
aS'variable_50'
p3141
ag17
aS'variable_1'
p3142
aS'->'
p3143
aS'variable_38'
p3144
ag63
aS'variable_51'
p3145
ag29
aS'variable_1'
p3146
aS'->'
p3147
aS'variable_52'
p3148
ag17
aS'variable_1'
p3149
aS'->'
p3150
aS'variable_38'
p3151
ag63
aS'variable_53'
p3152
ag29
aS'variable_1'
p3153
aS'->'
p3154
aS'variable_18'
p3155
ag17
aS'variable_1'
p3156
aS'->'
p3157
aS'variable_38'
p3158
ag63
aS'variable_51'
p3159
ag104
ag412
ag29
aS'variable_3'
p3160
aS'->'
p3161
aS'variable_21'
p3162
ag63
aS'variable_70'
p3163
ag17
aS'variable_1'
p3164
aS'->'
p3165
aS'variable_38'
p3166
ag63
aS'variable_51'
p3167
ag104
ag412
ag552
aS'32'
p3168
ag554
aS'16'
p3169
ag29
aS'if'
p3170
ag6
aS'variable_1'
p3171
aS'->'
p3172
aS'variable_38'
p3173
ag63
aS'variable_71'
p3174
ag13
aS'variable_3'
p3175
aS'->'
p3176
aS'variable_14'
p3177
aS'->'
p3178
aS'variable_72'
p3179
ag17
aS'variable_1'
p3180
aS'->'
p3181
aS'variable_38'
p3182
ag63
aS'variable_73'
p3183
ag104
ag85
ag552
aS'variable_74'
p3184
ag554
aS'variable_75'
p3185
ag29
aS'if'
p3186
ag6
aS'variable_1'
p3187
aS'->'
p3188
aS'variable_38'
p3189
ag63
aS'variable_76'
p3190
ag13
aS'variable_3'
p3191
aS'->'
p3192
aS'variable_14'
p3193
aS'->'
p3194
aS'variable_77'
p3195
ag17
aS'variable_1'
p3196
aS'->'
p3197
aS'variable_38'
p3198
ag63
aS'variable_77'
p3199
ag29
aS'variable_3'
p3200
aS'->'
p3201
aS'variable_14'
p3202
aS'->'
p3203
aS'variable_78'
p3204
ag17
aS'variable_1'
p3205
aS'->'
p3206
aS'variable_38'
p3207
ag63
aS'variable_78'
p3208
ag29
aS'variable_3'
p3209
aS'->'
p3210
aS'variable_14'
p3211
aS'->'
p3212
aS'variable_79'
p3213
ag17
aS'variable_1'
p3214
aS'->'
p3215
aS'variable_38'
p3216
ag63
aS'variable_79'
p3217
ag29
aS'switch'
p3218
ag6
aS'variable_1'
p3219
aS'->'
p3220
aS'variable_38'
p3221
ag63
aS'variable_51'
p3222
ag13
aS'if'
p3223
ag6
aS'variable_65'
p3224
ag13
aS'if'
p3225
ag6
aS'variable_3'
p3226
aS'->'
p3227
aS'variable_14'
p3228
aS'->'
p3229
aS'variable_79'
p3230
aS'=='
p3231
aS'variable_80'
p3232
ag13
aS'variable_3'
p3233
aS'->'
p3234
aS'variable_14'
p3235
aS'->'
p3236
aS'variable_81'
p3237
ag17
aS'variable_82'
p3238
ag29
aS'variable_3'
p3239
aS'->'
p3240
aS'variable_14'
p3241
aS'->'
p3242
aS'variable_81'
p3243
ag17
aS'variable_83'
p3244
ag29
aS'if'
p3245
ag6
aS'variable_69'
p3246
ag13
aS'variable_3'
p3247
aS'->'
p3248
aS'variable_14'
p3249
aS'->'
p3250
aS'variable_81'
p3251
ag17
aS'variable_84'
p3252
ag29
aS'variable_3'
p3253
aS'->'
p3254
aS'variable_14'
p3255
aS'->'
p3256
aS'variable_81'
p3257
ag17
aS'variable_85'
p3258
ag29
aS'if'
p3259
ag6
aS'variable_65'
p3260
ag13
aS'if'
p3261
ag6
aS'variable_3'
p3262
aS'->'
p3263
aS'variable_14'
p3264
aS'->'
p3265
aS'variable_79'
p3266
aS'=='
p3267
aS'variable_80'
p3268
ag13
aS'variable_3'
p3269
aS'->'
p3270
aS'variable_14'
p3271
aS'->'
p3272
aS'variable_81'
p3273
ag17
aS'variable_86'
p3274
ag29
aS'variable_3'
p3275
aS'->'
p3276
aS'variable_14'
p3277
aS'->'
p3278
aS'variable_81'
p3279
ag17
aS'variable_87'
p3280
ag29
aS'if'
p3281
ag6
aS'variable_69'
p3282
ag13
aS'variable_3'
p3283
aS'->'
p3284
aS'variable_14'
p3285
aS'->'
p3286
aS'variable_81'
p3287
ag17
aS'variable_88'
p3288
ag29
aS'variable_3'
p3289
aS'->'
p3290
aS'variable_14'
p3291
aS'->'
p3292
aS'variable_81'
p3293
ag17
aS'variable_89'
p3294
ag29
aS'if'
p3295
ag6
aS'variable_65'
p3296
ag13
aS'if'
p3297
ag6
aS'variable_3'
p3298
aS'->'
p3299
aS'variable_14'
p3300
aS'->'
p3301
aS'variable_79'
p3302
aS'=='
p3303
aS'variable_80'
p3304
ag13
aS'variable_3'
p3305
aS'->'
p3306
aS'variable_14'
p3307
aS'->'
p3308
aS'variable_81'
p3309
ag17
aS'variable_90'
p3310
ag29
aS'variable_3'
p3311
aS'->'
p3312
aS'variable_14'
p3313
aS'->'
p3314
aS'variable_81'
p3315
ag17
aS'variable_91'
p3316
ag29
aS'if'
p3317
ag6
aS'variable_69'
p3318
ag13
aS'variable_3'
p3319
aS'->'
p3320
aS'variable_14'
p3321
aS'->'
p3322
aS'variable_81'
p3323
ag17
aS'variable_92'
p3324
ag29
aS'variable_3'
p3325
aS'->'
p3326
aS'variable_14'
p3327
aS'->'
p3328
aS'variable_81'
p3329
ag17
aS'variable_93'
p3330
ag29
aS'if'
p3331
ag6
aS'variable_65'
p3332
ag13
aS'if'
p3333
ag6
aS'variable_3'
p3334
aS'->'
p3335
aS'variable_14'
p3336
aS'->'
p3337
aS'variable_79'
p3338
aS'=='
p3339
aS'variable_80'
p3340
ag13
aS'variable_3'
p3341
aS'->'
p3342
aS'variable_14'
p3343
aS'->'
p3344
aS'variable_81'
p3345
ag17
aS'variable_94'
p3346
ag29
aS'variable_3'
p3347
aS'->'
p3348
aS'variable_14'
p3349
aS'->'
p3350
aS'variable_81'
p3351
ag17
aS'variable_95'
p3352
ag29
aS'if'
p3353
ag6
aS'variable_69'
p3354
ag13
aS'variable_3'
p3355
aS'->'
p3356
aS'variable_14'
p3357
aS'->'
p3358
aS'variable_81'
p3359
ag17
aS'variable_96'
p3360
ag29
aS'variable_3'
p3361
aS'->'
p3362
aS'variable_14'
p3363
aS'->'
p3364
aS'variable_81'
p3365
ag17
aS'variable_97'
p3366
ag29
aS'if'
p3367
ag6
aS'variable_65'
p3368
ag13
aS'variable_3'
p3369
aS'->'
p3370
aS'variable_14'
p3371
aS'->'
p3372
aS'variable_81'
p3373
ag17
aS'variable_3'
p3374
aS'->'
p3375
aS'variable_14'
p3376
aS'->'
p3377
aS'variable_72'
p3378
aS'=='
p3379
aS'variable_74'
p3380
ag552
aS'variable_98'
p3381
ag554
aS'variable_99'
p3382
ag29
aS'if'
p3383
ag6
aS'variable_3'
p3384
aS'->'
p3385
aS'variable_14'
p3386
aS'->'
p3387
aS'variable_79'
p3388
aS'=='
p3389
aS'variable_80'
p3390
ag13
aS'variable_3'
p3391
aS'->'
p3392
aS'variable_14'
p3393
aS'->'
p3394
aS'variable_81'
p3395
ag17
aS'variable_100'
p3396
ag29
aS'if'
p3397
ag6
aS'variable_69'
p3398
ag13
aS'variable_3'
p3399
aS'->'
p3400
aS'variable_14'
p3401
aS'->'
p3402
aS'variable_81'
p3403
ag17
aS'variable_3'
p3404
aS'->'
p3405
aS'variable_14'
p3406
aS'->'
p3407
aS'variable_72'
p3408
aS'=='
p3409
aS'variable_74'
p3410
ag552
aS'variable_101'
p3411
ag554
aS'variable_102'
p3412
ag29
aS'variable_3'
p3413
aS'->'
p3414
aS'variable_14'
p3415
aS'->'
p3416
aS'variable_81'
p3417
ag17
aS'variable_3'
p3418
aS'->'
p3419
aS'variable_14'
p3420
aS'->'
p3421
aS'func_10'
p3422
ag6
aS'variable_3'
p3423
aS'->'
p3424
aS'variable_14'
p3425
ag10
aS'variable_3'
p3426
aS'->'
p3427
aS'variable_14'
p3428
aS'->'
p3429
aS'variable_66'
p3430
aS'->'
p3431
aS'variable_103'
p3432
ag552
aS'variable_3'
p3433
aS'->'
p3434
aS'variable_14'
p3435
aS'->'
p3436
aS'variable_66'
p3437
aS'->'
p3438
aS'variable_103'
p3439
ag554
aS'variable_3'
p3440
aS'->'
p3441
aS'variable_14'
p3442
aS'->'
p3443
aS'variable_72'
p3444
aS'=='
p3445
aS'variable_74'
p3446
ag552
aS'variable_104'
p3447
ag554
aS'variable_105'
p3448
ag13
ag29
aS'variable_3'
p3449
aS'->'
p3450
aS'variable_14'
p3451
aS'->'
p3452
aS'variable_106'
p3453
ag17
aS'func_11'
p3454
ag6
aS'variable_3'
p3455
aS'->'
p3456
aS'variable_14'
p3457
aS'->'
p3458
aS'variable_66'
p3459
aS'->'
p3460
aS'variable_107'
p3461
ag10
aS'variable_3'
p3462
aS'->'
p3463
aS'variable_14'
p3464
aS'->'
p3465
aS'variable_81'
p3466
ag13
ag29
aS'if'
p3467
ag6
aS'func_12'
p3468
ag6
aS'variable_3'
p3469
ag13
ag309
ag85
ag13
aS'variable_3'
p3470
aS'->'
p3471
aS'variable_27'
p3472
ag17
ag85
ag29
aS'variable_1'
p3473
aS'->'
p3474
aS'variable_108'
p3475
ag17
ag310
ag29
aS'if'
p3476
ag6
aS'func_13'
p3477
ag6
aS'variable_1'
p3478
ag13
ag309
ag85
ag13
aS'if'
p3479
ag6
ag52
aS'variable_109'
p3480
aS'||'
p3481
ag52
ag6
aS'variable_3'
p3482
aS'->'
p3483
aS'variable_14'
p3484
aS'->'
p3485
aS'variable_56'
p3486
ag18
aS'variable_110'
p3487
ag13
ag13
aS'if'
p3488
ag6
aS'func_14'
p3489
ag6
aS'variable_1'
p3490
ag13
ag309
ag85
ag13
aS'for'
p3491
ag6
aS'variable_9'
p3492
ag17
ag310
ag29
aS'variable_9'
p3493
ag309
aS'variable_3'
p3494
aS'->'
p3495
aS'variable_111'
p3496
ag29
aS'variable_9'
p3497
aS'++'
p3498
ag13
aS'variable_0'
p3499
ag8
aS'variable_112'
p3500
ag29
aS'variable_112'
p3501
ag17
aS'variable_1'
p3502
aS'->'
p3503
aS'variable_113'
p3504
ag117
aS'variable_9'
p3505
ag119
ag17
aS'func_15'
p3506
ag6
aS'sizeof'
p3507
ag6
aS'variable_0'
p3508
ag13
ag13
ag29
aS'for'
p3509
ag6
aS'variable_9'
p3510
ag17
ag85
ag29
aS'variable_9'
p3511
ag309
aS'variable_3'
p3512
aS'->'
p3513
aS'variable_111'
p3514
ag29
aS'variable_9'
p3515
aS'++'
p3516
ag13
aS'if'
p3517
ag6
aS'func_16'
p3518
ag6
aS'variable_1'
p3519
aS'->'
p3520
aS'variable_113'
p3521
ag117
aS'variable_9'
p3522
ag119
ag13
ag309
ag85
ag13
aS'if'
p3523
ag6
aS'variable_1'
p3524
aS'=='
p3525
aS'variable_2'
p3526
aS'&&'
p3527
aS'variable_1'
p3528
aS'->'
p3529
aS'variable_114'
p3530
aS'!='
p3531
aS'variable_6'
p3532
ag13
aS'variable_1'
p3533
aS'->'
p3534
aS'variable_114'
p3535
ag17
aS'variable_6'
p3536
ag29
aS'variable_1'
p3537
aS'->'
p3538
aS'variable_115'
p3539
ag17
aS'func_17'
p3540
ag6
ag18
aS'variable_3'
p3541
aS'->'
p3542
aS'variable_25'
p3543
ag10
aS'variable_1'
p3544
aS'->'
p3545
aS'variable_38'
p3546
ag63
aS'variable_116'
p3547
ag13
ag29
aS'variable_1'
p3548
aS'->'
p3549
aS'variable_117'
p3550
ag17
ag85
ag29
aS'variable_1'
p3551
aS'->'
p3552
aS'variable_118'
p3553
ag17
ag85
ag29
aS'variable_11'
p3554
ag17
aS'variable_4'
p3555
aS'->'
p3556
aS'variable_119'
p3557
ag29
aS'variable_12'
p3558
ag17
aS'variable_3'
p3559
aS'->'
p3560
aS'variable_120'
p3561
ag29
aS'variable_3'
p3562
aS'->'
p3563
aS'variable_120'
p3564
ag17
aS'variable_1'
p3565
aS'->'
p3566
aS'variable_17'
p3567
aS'=='
p3568
ag85
ag29
aS'if'
p3569
ag6
aS'variable_1'
p3570
aS'->'
p3571
aS'variable_38'
p3572
ag63
aS'variable_48'
p3573
ag13
aS'variable_3'
p3574
aS'->'
p3575
aS'variable_119'
p3576
ag17
aS'variable_121'
p3577
ag29
aS'if'
p3578
ag6
ag52
aS'variable_1'
p3579
aS'->'
p3580
aS'variable_38'
p3581
ag63
aS'variable_122'
p3582
aS'&&'
p3583
aS'variable_7'
p3584
aS'=='
p3585
aS'variable_123'
p3586
ag13
aS'if'
p3587
ag6
aS'func_18'
p3588
ag6
ag18
aS'variable_3'
p3589
aS'->'
p3590
aS'variable_25'
p3591
ag13
ag13
aS'variable_3'
p3592
aS'->'
p3593
aS'variable_119'
p3594
ag17
aS'variable_124'
p3595
ag982
aS'func_19'
p3596
ag6
ag18
aS'variable_3'
p3597
aS'->'
p3598
aS'variable_25'
p3599
ag13
ag29
aS'variable_3'
p3600
aS'->'
p3601
aS'variable_119'
p3602
ag17
aS'variable_121'
p3603
ag29
aS'variable_1'
p3604
aS'->'
p3605
aS'variable_118'
p3606
ag17
aS'variable_1'
p3607
aS'->'
p3608
aS'variable_38'
p3609
ag63
aS'variable_125'
p3610
ag29
aS'variable_1'
p3611
aS'->'
p3612
aS'variable_126'
p3613
ag17
aS'variable_3'
p3614
aS'->'
p3615
aS'variable_119'
p3616
aS'!='
p3617
aS'variable_121'
p3618
ag29
aS'if'
p3619
ag6
aS'variable_2'
p3620
aS'->'
p3621
aS'variable_26'
p3622
aS'!='
p3623
ag85
ag13
aS'if'
p3624
ag6
aS'variable_1'
p3625
aS'->'
p3626
aS'variable_115'
p3627
aS'!='
p3628
aS'variable_1'
p3629
aS'->'
p3630
aS'variable_127'
p3631
aS'&&'
p3632
aS'variable_1'
p3633
aS'->'
p3634
aS'variable_127'
p3635
ag104
ag17
ag85
ag13
aS'int'
p3636
aS'variable_128'
p3637
ag17
aS'variable_1'
p3638
aS'->'
p3639
aS'variable_127'
p3640
ag29
aS'int'
p3641
aS'variable_129'
p3642
ag17
ag310
aS'<<'
p3643
aS'variable_1'
p3644
aS'->'
p3645
aS'variable_38'
p3646
ag63
aS'variable_116'
p3647
ag29
aS'if'
p3648
ag6
aS'variable_128'
p3649
ag104
aS'variable_1'
p3650
aS'->'
p3651
aS'variable_115'
p3652
ag13
aS'variable_128'
p3653
aS'-='
p3654
aS'variable_129'
p3655
ag29
aS'if'
p3656
ag6
ag6
aS'variable_1'
p3657
aS'->'
p3658
aS'variable_115'
p3659
ag223
aS'variable_128'
p3660
ag13
ag104
aS'variable_1'
p3661
aS'->'
p3662
aS'variable_38'
p3663
ag63
aS'variable_43'
p3664
ag13
aS'variable_128'
p3665
ag17
ag6
aS'variable_1'
p3666
aS'->'
p3667
aS'variable_115'
p3668
ag223
aS'variable_1'
p3669
aS'->'
p3670
aS'variable_38'
p3671
ag63
aS'variable_43'
p3672
ag13
ag223
ag310
ag29
aS'if'
p3673
ag6
aS'variable_128'
p3674
ag309
ag85
ag13
aS'variable_128'
p3675
aS'+='
p3676
aS'variable_129'
p3677
ag29
aS'variable_1'
p3678
aS'->'
p3679
aS'variable_127'
p3680
ag17
aS'variable_128'
p3681
ag29
aS'if'
p3682
ag6
aS'variable_4'
p3683
aS'->'
p3684
aS'variable_27'
p3685
ag13
aS'if'
p3686
ag6
ag52
aS'variable_130'
p3687
aS'||'
p3688
aS'variable_3'
p3689
aS'->'
p3690
aS'variable_119'
p3691
aS'=='
p3692
aS'variable_11'
p3693
ag13
aS'if'
p3694
ag6
aS'variable_4'
p3695
aS'->'
p3696
aS'variable_28'
p3697
aS'->'
p3698
aS'variable_115'
p3699
aS'!='
p3700
aS'variable_1'
p3701
aS'->'
p3702
aS'variable_115'
p3703
ag13
aS'if'
p3704
ag6
ag52
ag6
ag6
aS'variable_11'
p3705
aS'=='
p3706
aS'variable_124'
p3707
aS'&&'
p3708
aS'variable_3'
p3709
aS'->'
p3710
aS'variable_119'
p3711
aS'=='
p3712
aS'variable_131'
p3713
ag13
aS'||'
p3714
ag6
aS'variable_11'
p3715
aS'=='
p3716
aS'variable_131'
p3717
aS'&&'
p3718
aS'variable_3'
p3719
aS'->'
p3720
aS'variable_119'
p3721
aS'=='
p3722
aS'variable_124'
p3723
ag13
ag13
ag13
aS'if'
p3724
ag6
aS'variable_12'
p3725
aS'!='
p3726
aS'variable_3'
p3727
aS'->'
p3728
aS'variable_120'
p3729
ag13
aS'variable_3'
p3730
aS'->'
p3731
aS'variable_119'
p3732
ag17
aS'variable_11'
p3733
ag29
aS'variable_3'
p3734
aS'->'
p3735
aS'variable_120'
p3736
ag17
aS'variable_12'
p3737
ag29
aS'variable_4'
p3738
aS'->'
p3739
aS'variable_28'
p3740
aS'->'
p3741
aS'variable_132'
p3742
ag17
aS'variable_4'
p3743
ag29
aS'while'
p3744
ag6
aS'variable_1'
p3745
aS'->'
p3746
aS'variable_115'
p3747
aS'!='
p3748
aS'variable_1'
p3749
aS'->'
p3750
aS'variable_127'
p3751
aS'&&'
p3752
aS'variable_1'
p3753
aS'->'
p3754
aS'variable_127'
p3755
ag104
ag17
ag85
aS'&&'
p3756
aS'variable_1'
p3757
aS'->'
p3758
aS'variable_115'
p3759
aS'!='
p3760
ag6
aS'variable_1'
p3761
aS'->'
p3762
aS'variable_127'
p3763
ag982
ag310
ag13
ag1163
ag6
ag310
aS'<<'
p3764
aS'variable_1'
p3765
aS'->'
p3766
aS'variable_38'
p3767
ag63
aS'variable_116'
p3768
ag13
ag13
aS'if'
p3769
ag6
aS'func_20'
p3770
ag6
aS'variable_1'
p3771
ag13
ag309
ag85
ag13
aS'variable_1'
p3772
aS'->'
p3773
aS'variable_127'
p3774
aS'++'
p3775
ag29
aS'variable_1'
p3776
aS'->'
p3777
aS'variable_127'
p3778
ag1163
ag17
ag310
aS'<<'
p3779
aS'variable_1'
p3780
aS'->'
p3781
aS'variable_38'
p3782
ag63
aS'variable_116'
p3783
ag29
aS'variable_3'
p3784
aS'->'
p3785
aS'variable_28'
p3786
aS'->'
p3787
aS'variable_115'
p3788
ag17
aS'variable_1'
p3789
aS'->'
p3790
aS'variable_127'
p3791
ag29
aS'if'
p3792
ag6
aS'func_21'
p3793
ag6
aS'variable_1'
p3794
ag10
aS'variable_1'
p3795
aS'->'
p3796
aS'variable_133'
p3797
ag10
aS'variable_1'
p3798
aS'->'
p3799
aS'variable_134'
p3800
ag13
ag309
ag85
aS'&&'
p3801
ag6
aS'variable_3'
p3802
aS'->'
p3803
aS'variable_14'
p3804
aS'->'
p3805
aS'variable_135'
p3806
ag18
aS'variable_136'
p3807
ag13
ag13
aS'if'
p3808
ag6
aS'variable_4'
p3809
aS'->'
p3810
aS'variable_27'
p3811
ag13
aS'assert'
p3812
ag6
aS'variable_4'
p3813
aS'->'
p3814
aS'variable_28'
p3815
aS'->'
p3816
aS'variable_137'
p3817
ag63
aS'variable_138'
p3818
aS'!='
p3819
aS'variable_139'
p3820
ag13
ag29
aa(lp3821
S'static'
p3822
aS'int'
p3823
aS'func_0'
p3824
ag6
aS'variable_0'
p3825
ag8
aS'variable_1'
p3826
ag10
aS'variable_0'
p3827
ag8
aS'variable_2'
p3828
ag13
aS'MpegEncContext'
p3829
ag8
aS'const'
p3830
aS'variable_3'
p3831
ag17
ag18
aS'variable_1'
p3832
aS'->'
p3833
aS'MpegEncContext'
p3834
ag8
aS'const'
p3835
aS'variable_4'
p3836
ag17
ag18
aS'variable_2'
p3837
aS'->'
p3838
aS'unsigned'
p3839
aS'int'
p3840
aS'variable_5'
p3841
ag29
aS'unsigned'
p3842
aS'int'
p3843
aS'variable_6'
p3844
ag29
aS'unsigned'
p3845
aS'int'
p3846
aS'variable_7'
p3847
ag10
aS'variable_8'
p3848
ag10
aS'variable_9'
p3849
ag10
aS'variable_10'
p3850
ag29
aS'int'
p3851
aS'variable_11'
p3852
ag10
aS'variable_12'
p3853
ag29
aS'int'
p3854
aS'variable_13'
p3855
ag29
aS'if'
p3856
ag6
ag6
aS'variable_3'
p3857
aS'->'
p3858
aS'variable_14'
p3859
aS'->'
p3860
aS'variable_15'
p3861
ag18
aS'variable_16'
p3862
ag13
aS'&&'
p3863
ag52
aS'variable_1'
p3864
aS'->'
p3865
aS'variable_17'
p3866
aS'&&'
p3867
ag52
aS'variable_1'
p3868
aS'->'
p3869
aS'variable_18'
p3870
ag13
aS'variable_3'
p3871
aS'->'
p3872
aS'variable_19'
p3873
ag63
aS'variable_20'
p3874
ag17
aS'variable_3'
p3875
aS'->'
p3876
aS'variable_21'
p3877
ag63
aS'variable_22'
p3878
ag29
aS'variable_3'
p3879
aS'->'
p3880
aS'variable_19'
p3881
ag63
aS'variable_23'
p3882
ag17
aS'variable_3'
p3883
aS'->'
p3884
aS'variable_21'
p3885
ag63
aS'variable_24'
p3886
ag29
aS'variable_5'
p3887
ag17
aS'func_1'
p3888
ag6
ag18
aS'variable_3'
p3889
aS'->'
p3890
aS'variable_25'
p3891
ag13
ag29
aS'if'
p3892
ag6
aS'variable_5'
p3893
aS'=='
p3894
ag85
ag13
aS'variable_2'
p3895
aS'->'
p3896
aS'variable_26'
p3897
ag17
ag85
ag29
aS'if'
p3898
ag6
ag52
aS'variable_4'
p3899
aS'->'
p3900
aS'variable_27'
p3901
ag13
aS'variable_3'
p3902
aS'->'
p3903
aS'variable_28'
p3904
ag17
aS'NULL'
p3905
ag29
aS'variable_7'
p3906
ag17
aS'func_2'
p3907
ag6
ag18
aS'variable_3'
p3908
aS'->'
p3909
aS'variable_25'
p3910
ag13
ag29
aS'if'
p3911
ag6
aS'variable_7'
p3912
ag104
ag105
ag13
aS'if'
p3913
ag6
aS'variable_7'
p3914
ag104
ag108
ag13
aS'variable_7'
p3915
aS'-='
p3916
ag111
ag29
aS'variable_1'
p3917
aS'->'
p3918
aS'variable_29'
p3919
ag17
ag85
ag29
aS'variable_7'
p3920
ag17
aS'variable_30'
p3921
ag117
aS'variable_7'
p3922
ag119
ag29
aS'variable_1'
p3923
aS'->'
p3924
aS'variable_7'
p3925
ag17
aS'variable_7'
p3926
ag29
aS'variable_1'
p3927
aS'->'
p3928
aS'variable_31'
p3929
ag17
aS'variable_7'
p3930
ag18
ag128
ag29
aS'variable_3'
p3931
aS'->'
p3932
aS'variable_32'
p3933
ag17
aS'variable_1'
p3934
aS'->'
p3935
aS'variable_7'
p3936
ag29
aS'variable_6'
p3937
ag17
aS'func_3'
p3938
ag6
ag18
aS'variable_3'
p3939
aS'->'
p3940
aS'variable_25'
p3941
ag13
ag29
aS'if'
p3942
ag6
aS'variable_6'
p3943
ag104
ag17
aS'variable_33'
p3944
ag13
aS'if'
p3945
ag6
ag52
aS'variable_2'
p3946
aS'->'
p3947
aS'variable_34'
p3948
ag117
aS'variable_6'
p3949
ag119
ag13
aS'variable_1'
p3950
aS'->'
p3951
aS'variable_35'
p3952
ag17
ag8
aS'variable_2'
p3953
aS'->'
p3954
aS'variable_34'
p3955
ag117
aS'variable_6'
p3956
ag119
ag29
aS'if'
p3957
ag6
ag52
aS'variable_2'
p3958
aS'->'
p3959
aS'variable_36'
p3960
ag117
aS'variable_1'
p3961
aS'->'
p3962
aS'variable_35'
p3963
ag63
aS'variable_37'
p3964
ag119
ag13
aS'variable_1'
p3965
aS'->'
p3966
aS'variable_38'
p3967
ag17
ag8
aS'variable_2'
p3968
aS'->'
p3969
aS'variable_36'
p3970
ag117
aS'variable_1'
p3971
aS'->'
p3972
aS'variable_35'
p3973
ag63
aS'variable_37'
p3974
ag119
ag29
aS'variable_3'
p3975
aS'->'
p3976
aS'variable_14'
p3977
aS'->'
p3978
aS'variable_39'
p3979
ag17
aS'func_4'
p3980
ag6
ag18
aS'variable_1'
p3981
aS'->'
p3982
aS'variable_38'
p3983
ag13
ag29
aS'variable_3'
p3984
aS'->'
p3985
aS'variable_14'
p3986
aS'->'
p3987
aS'variable_40'
p3988
ag17
aS'variable_1'
p3989
aS'->'
p3990
aS'variable_38'
p3991
ag63
aS'variable_41'
p3992
ag29
aS'variable_3'
p3993
aS'->'
p3994
aS'variable_14'
p3995
aS'->'
p3996
aS'variable_42'
p3997
ag17
aS'variable_1'
p3998
aS'->'
p3999
aS'variable_38'
p4000
ag63
aS'variable_43'
p4001
ag29
aS'variable_13'
p4002
ag17
ag6
aS'variable_3'
p4003
aS'->'
p4004
aS'variable_44'
p4005
aS'&&'
p4006
ag6
aS'16'
p4007
ag8
aS'variable_1'
p4008
aS'->'
p4009
aS'variable_38'
p4010
ag63
aS'variable_45'
p4011
aS'!='
p4012
aS'variable_3'
p4013
aS'->'
p4014
aS'variable_14'
p4015
aS'->'
p4016
aS'variable_46'
p4017
aS'||'
p4018
aS'16'
p4019
ag8
aS'variable_1'
p4020
aS'->'
p4021
aS'variable_38'
p4022
ag63
aS'variable_47'
p4023
ag8
ag6
ag222
ag223
aS'variable_1'
p4024
aS'->'
p4025
aS'variable_38'
p4026
ag63
aS'variable_48'
p4027
ag13
aS'!='
p4028
aS'variable_3'
p4029
aS'->'
p4030
aS'variable_14'
p4031
aS'->'
p4032
aS'variable_49'
p4033
aS'||'
p4034
aS'variable_3'
p4035
aS'->'
p4036
aS'variable_14'
p4037
aS'->'
p4038
aS'variable_50'
p4039
aS'!='
p4040
aS'variable_1'
p4041
aS'->'
p4042
aS'variable_38'
p4043
ag63
aS'variable_51'
p4044
aS'||'
p4045
aS'variable_1'
p4046
aS'->'
p4047
aS'variable_52'
p4048
aS'!='
p4049
aS'variable_1'
p4050
aS'->'
p4051
aS'variable_38'
p4052
ag63
aS'variable_53'
p4053
aS'||'
p4054
aS'func_5'
p4055
ag6
aS'variable_1'
p4056
aS'->'
p4057
aS'variable_38'
p4058
ag63
aS'variable_54'
p4059
ag10
aS'variable_3'
p4060
aS'->'
p4061
aS'variable_14'
p4062
aS'->'
p4063
aS'variable_55'
p4064
ag13
ag13
ag13
ag29
aS'if'
p4065
ag6
aS'variable_13'
p4066
aS'&&'
p4067
ag6
aS'variable_1'
p4068
aS'!='
p4069
aS'variable_2'
p4070
aS'||'
p4071
ag6
aS'variable_3'
p4072
aS'->'
p4073
aS'variable_14'
p4074
aS'->'
p4075
aS'variable_56'
p4076
ag18
aS'variable_57'
p4077
ag13
ag13
ag13
aS'variable_3'
p4078
aS'->'
p4079
aS'variable_45'
p4080
ag17
aS'variable_1'
p4081
aS'->'
p4082
aS'variable_38'
p4083
ag63
aS'variable_45'
p4084
ag29
aS'variable_3'
p4085
aS'->'
p4086
aS'variable_47'
p4087
ag17
aS'variable_1'
p4088
aS'->'
p4089
aS'variable_38'
p4090
ag63
aS'variable_47'
p4091
ag8
ag6
ag222
ag223
aS'variable_1'
p4092
aS'->'
p4093
aS'variable_38'
p4094
ag63
aS'variable_48'
p4095
ag13
ag29
aS'variable_1'
p4096
aS'->'
p4097
aS'variable_58'
p4098
ag17
aS'variable_3'
p4099
aS'->'
p4100
aS'variable_45'
p4101
ag8
ag108
ag29
aS'variable_3'
p4102
aS'->'
p4103
aS'variable_59'
p4104
ag17
aS'variable_1'
p4105
aS'->'
p4106
aS'variable_38'
p4107
ag63
aS'variable_53'
p4108
ag309
ag17
ag310
ag29
aS'variable_3'
p4109
aS'->'
p4110
aS'variable_60'
p4111
ag17
aS'16'
p4112
ag8
aS'variable_3'
p4113
aS'->'
p4114
aS'variable_45'
p4115
ag29
aS'variable_3'
p4116
aS'->'
p4117
aS'variable_61'
p4118
ag17
aS'16'
p4119
ag8
aS'variable_3'
p4120
aS'->'
p4121
aS'variable_47'
p4122
ag29
aS'if'
p4123
ag6
aS'variable_13'
p4124
ag13
aS'variable_1'
p4125
aS'->'
p4126
aS'variable_62'
p4127
ag17
ag85
ag29
aS'variable_1'
p4128
aS'->'
p4129
aS'variable_26'
p4130
ag17
ag85
ag29
aS'if'
p4131
ag6
ag52
aS'variable_3'
p4132
aS'->'
p4133
aS'variable_44'
p4134
ag13
aS'if'
p4135
ag6
aS'variable_1'
p4136
aS'!='
p4137
aS'variable_2'
p4138
ag13
aS'if'
p4139
ag6
aS'func_6'
p4140
ag6
aS'variable_3'
p4141
aS'->'
p4142
aS'variable_14'
p4143
aS'->'
p4144
aS'variable_60'
p4145
ag10
aS'16'
p4146
ag13
aS'=='
p4147
aS'variable_3'
p4148
aS'->'
p4149
aS'variable_60'
p4150
aS'&&'
p4151
aS'func_7'
p4152
ag6
aS'variable_3'
p4153
aS'->'
p4154
aS'variable_14'
p4155
aS'->'
p4156
aS'variable_61'
p4157
ag10
aS'16'
p4158
ag8
ag6
ag222
ag223
aS'variable_1'
p4159
aS'->'
p4160
aS'variable_38'
p4161
ag63
aS'variable_48'
p4162
ag13
ag13
aS'=='
p4163
aS'variable_3'
p4164
aS'->'
p4165
aS'variable_61'
p4166
aS'&&'
p4167
ag52
aS'variable_1'
p4168
aS'->'
p4169
aS'variable_38'
p4170
ag63
aS'variable_63'
p4171
aS'&&'
p4172
ag52
aS'variable_1'
p4173
aS'->'
p4174
aS'variable_38'
p4175
ag63
aS'variable_64'
p4176
aS'&&'
p4177
ag6
aS'variable_3'
p4178
aS'->'
p4179
aS'variable_14'
p4180
aS'->'
p4181
aS'variable_60'
p4182
aS'!='
p4183
aS'variable_3'
p4184
aS'->'
p4185
aS'variable_60'
p4186
aS'||'
p4187
aS'variable_3'
p4188
aS'->'
p4189
aS'variable_14'
p4190
aS'->'
p4191
aS'variable_61'
p4192
aS'&&'
p4193
aS'variable_3'
p4194
aS'->'
p4195
aS'variable_61'
p4196
ag13
ag13
aS'variable_3'
p4197
aS'->'
p4198
aS'variable_14'
p4199
aS'->'
p4200
aS'variable_60'
p4201
aS'-='
p4202
ag6
ag222
aS'>>'
p4203
aS'variable_65'
p4204
ag13
ag8
aS'func_8'
p4205
ag6
aS'variable_1'
p4206
aS'->'
p4207
aS'variable_38'
p4208
ag63
aS'variable_63'
p4209
ag10
ag6
ag412
aS'<<'
p4210
aS'variable_65'
p4211
ag13
ag223
ag310
ag13
ag29
aS'variable_3'
p4212
aS'->'
p4213
aS'variable_14'
p4214
aS'->'
p4215
aS'variable_61'
p4216
aS'-='
p4217
ag6
ag310
aS'<<'
p4218
aS'variable_3'
p4219
aS'->'
p4220
aS'variable_59'
p4221
ag13
ag8
aS'func_9'
p4222
ag6
aS'variable_1'
p4223
aS'->'
p4224
aS'variable_38'
p4225
ag63
aS'variable_64'
p4226
ag10
ag6
aS'16'
p4227
aS'>>'
p4228
aS'variable_3'
p4229
aS'->'
p4230
aS'variable_59'
p4231
ag13
ag223
ag310
ag13
ag8
ag6
ag222
ag223
aS'variable_1'
p4232
aS'->'
p4233
aS'variable_38'
p4234
ag63
aS'variable_48'
p4235
ag13
ag29
aS'variable_3'
p4236
aS'->'
p4237
aS'variable_14'
p4238
aS'->'
p4239
aS'variable_55'
p4240
ag17
aS'variable_1'
p4241
aS'->'
p4242
aS'variable_38'
p4243
ag63
aS'variable_54'
p4244
ag29
aS'if'
p4245
ag6
aS'variable_3'
p4246
aS'->'
p4247
aS'variable_14'
p4248
aS'->'
p4249
aS'variable_66'
p4250
aS'->'
p4251
aS'variable_67'
p4252
ag18
aS'variable_68'
p4253
aS'&&'
p4254
ag6
aS'variable_1'
p4255
aS'->'
p4256
aS'variable_38'
p4257
ag63
aS'variable_51'
p4258
aS'!='
p4259
ag412
aS'||'
p4260
aS'variable_1'
p4261
aS'->'
p4262
aS'variable_38'
p4263
ag63
aS'variable_53'
p4264
ag104
ag310
ag13
ag13
aS'if'
p4265
ag6
aS'variable_3'
p4266
aS'->'
p4267
aS'variable_14'
p4268
aS'->'
p4269
aS'variable_50'
p4270
aS'!='
p4271
aS'variable_1'
p4272
aS'->'
p4273
aS'variable_38'
p4274
ag63
aS'variable_51'
p4275
aS'||'
p4276
aS'variable_1'
p4277
aS'->'
p4278
aS'variable_52'
p4279
aS'!='
p4280
aS'variable_1'
p4281
aS'->'
p4282
aS'variable_38'
p4283
ag63
aS'variable_53'
p4284
ag13
aS'if'
p4285
ag6
aS'variable_1'
p4286
aS'->'
p4287
aS'variable_38'
p4288
ag63
aS'variable_51'
p4289
ag104
ag17
ag412
aS'&&'
p4290
aS'variable_1'
p4291
aS'->'
p4292
aS'variable_38'
p4293
ag63
aS'variable_51'
p4294
ag309
ag17
aS'14'
p4295
aS'&&'
p4296
aS'variable_1'
p4297
aS'->'
p4298
aS'variable_38'
p4299
ag63
aS'variable_51'
p4300
aS'!='
p4301
aS'11'
p4302
aS'&&'
p4303
aS'variable_1'
p4304
aS'->'
p4305
aS'variable_38'
p4306
ag63
aS'variable_51'
p4307
aS'!='
p4308
aS'13'
p4309
aS'&&'
p4310
ag6
aS'variable_1'
p4311
aS'->'
p4312
aS'variable_38'
p4313
ag63
aS'variable_51'
p4314
aS'!='
p4315
ag105
aS'||'
p4316
ag52
aS'variable_69'
p4317
ag13
ag13
aS'variable_3'
p4318
aS'->'
p4319
aS'variable_14'
p4320
aS'->'
p4321
aS'variable_50'
p4322
ag17
aS'variable_1'
p4323
aS'->'
p4324
aS'variable_38'
p4325
ag63
aS'variable_51'
p4326
ag29
aS'variable_1'
p4327
aS'->'
p4328
aS'variable_52'
p4329
ag17
aS'variable_1'
p4330
aS'->'
p4331
aS'variable_38'
p4332
ag63
aS'variable_53'
p4333
ag29
aS'variable_1'
p4334
aS'->'
p4335
aS'variable_18'
p4336
ag17
aS'variable_1'
p4337
aS'->'
p4338
aS'variable_38'
p4339
ag63
aS'variable_51'
p4340
ag104
ag412
ag29
aS'variable_3'
p4341
aS'->'
p4342
aS'variable_21'
p4343
ag63
aS'variable_70'
p4344
ag17
aS'variable_1'
p4345
aS'->'
p4346
aS'variable_38'
p4347
ag63
aS'variable_51'
p4348
ag104
ag412
ag552
aS'32'
p4349
ag554
aS'16'
p4350
ag29
aS'if'
p4351
ag6
aS'variable_1'
p4352
aS'->'
p4353
aS'variable_38'
p4354
ag63
aS'variable_71'
p4355
ag13
aS'variable_3'
p4356
aS'->'
p4357
aS'variable_14'
p4358
aS'->'
p4359
aS'variable_72'
p4360
ag17
aS'variable_1'
p4361
aS'->'
p4362
aS'variable_38'
p4363
ag63
aS'variable_73'
p4364
ag104
ag85
ag552
aS'variable_74'
p4365
ag554
aS'variable_75'
p4366
ag29
aS'if'
p4367
ag6
aS'variable_1'
p4368
aS'->'
p4369
aS'variable_38'
p4370
ag63
aS'variable_76'
p4371
ag13
aS'variable_3'
p4372
aS'->'
p4373
aS'variable_14'
p4374
aS'->'
p4375
aS'variable_77'
p4376
ag17
aS'variable_1'
p4377
aS'->'
p4378
aS'variable_38'
p4379
ag63
aS'variable_77'
p4380
ag29
aS'variable_3'
p4381
aS'->'
p4382
aS'variable_14'
p4383
aS'->'
p4384
aS'variable_78'
p4385
ag17
aS'variable_1'
p4386
aS'->'
p4387
aS'variable_38'
p4388
ag63
aS'variable_78'
p4389
ag29
aS'variable_3'
p4390
aS'->'
p4391
aS'variable_14'
p4392
aS'->'
p4393
aS'variable_79'
p4394
ag17
aS'variable_1'
p4395
aS'->'
p4396
aS'variable_38'
p4397
ag63
aS'variable_79'
p4398
ag29
aS'switch'
p4399
ag6
aS'variable_1'
p4400
aS'->'
p4401
aS'variable_38'
p4402
ag63
aS'variable_51'
p4403
ag13
aS'if'
p4404
ag6
aS'variable_65'
p4405
ag13
aS'if'
p4406
ag6
aS'variable_3'
p4407
aS'->'
p4408
aS'variable_14'
p4409
aS'->'
p4410
aS'variable_79'
p4411
aS'=='
p4412
aS'variable_80'
p4413
ag13
aS'variable_3'
p4414
aS'->'
p4415
aS'variable_14'
p4416
aS'->'
p4417
aS'variable_81'
p4418
ag17
aS'variable_82'
p4419
ag29
aS'variable_3'
p4420
aS'->'
p4421
aS'variable_14'
p4422
aS'->'
p4423
aS'variable_81'
p4424
ag17
aS'variable_83'
p4425
ag29
aS'if'
p4426
ag6
aS'variable_69'
p4427
ag13
aS'variable_3'
p4428
aS'->'
p4429
aS'variable_14'
p4430
aS'->'
p4431
aS'variable_81'
p4432
ag17
aS'variable_84'
p4433
ag29
aS'variable_3'
p4434
aS'->'
p4435
aS'variable_14'
p4436
aS'->'
p4437
aS'variable_81'
p4438
ag17
aS'variable_85'
p4439
ag29
aS'if'
p4440
ag6
aS'variable_65'
p4441
ag13
aS'if'
p4442
ag6
aS'variable_3'
p4443
aS'->'
p4444
aS'variable_14'
p4445
aS'->'
p4446
aS'variable_79'
p4447
aS'=='
p4448
aS'variable_80'
p4449
ag13
aS'variable_3'
p4450
aS'->'
p4451
aS'variable_14'
p4452
aS'->'
p4453
aS'variable_81'
p4454
ag17
aS'variable_86'
p4455
ag29
aS'variable_3'
p4456
aS'->'
p4457
aS'variable_14'
p4458
aS'->'
p4459
aS'variable_81'
p4460
ag17
aS'variable_87'
p4461
ag29
aS'if'
p4462
ag6
aS'variable_69'
p4463
ag13
aS'variable_3'
p4464
aS'->'
p4465
aS'variable_14'
p4466
aS'->'
p4467
aS'variable_81'
p4468
ag17
aS'variable_88'
p4469
ag29
aS'variable_3'
p4470
aS'->'
p4471
aS'variable_14'
p4472
aS'->'
p4473
aS'variable_81'
p4474
ag17
aS'variable_89'
p4475
ag29
aS'if'
p4476
ag6
aS'variable_65'
p4477
ag13
aS'if'
p4478
ag6
aS'variable_3'
p4479
aS'->'
p4480
aS'variable_14'
p4481
aS'->'
p4482
aS'variable_79'
p4483
aS'=='
p4484
aS'variable_80'
p4485
ag13
aS'variable_3'
p4486
aS'->'
p4487
aS'variable_14'
p4488
aS'->'
p4489
aS'variable_81'
p4490
ag17
aS'variable_90'
p4491
ag29
aS'variable_3'
p4492
aS'->'
p4493
aS'variable_14'
p4494
aS'->'
p4495
aS'variable_81'
p4496
ag17
aS'variable_91'
p4497
ag29
aS'if'
p4498
ag6
aS'variable_69'
p4499
ag13
aS'variable_3'
p4500
aS'->'
p4501
aS'variable_14'
p4502
aS'->'
p4503
aS'variable_81'
p4504
ag17
aS'variable_92'
p4505
ag29
aS'variable_3'
p4506
aS'->'
p4507
aS'variable_14'
p4508
aS'->'
p4509
aS'variable_81'
p4510
ag17
aS'variable_93'
p4511
ag29
aS'if'
p4512
ag6
aS'variable_65'
p4513
ag13
aS'if'
p4514
ag6
aS'variable_3'
p4515
aS'->'
p4516
aS'variable_14'
p4517
aS'->'
p4518
aS'variable_79'
p4519
aS'=='
p4520
aS'variable_80'
p4521
ag13
aS'variable_3'
p4522
aS'->'
p4523
aS'variable_14'
p4524
aS'->'
p4525
aS'variable_81'
p4526
ag17
aS'variable_94'
p4527
ag29
aS'variable_3'
p4528
aS'->'
p4529
aS'variable_14'
p4530
aS'->'
p4531
aS'variable_81'
p4532
ag17
aS'variable_95'
p4533
ag29
aS'if'
p4534
ag6
aS'variable_69'
p4535
ag13
aS'variable_3'
p4536
aS'->'
p4537
aS'variable_14'
p4538
aS'->'
p4539
aS'variable_81'
p4540
ag17
aS'variable_96'
p4541
ag29
aS'variable_3'
p4542
aS'->'
p4543
aS'variable_14'
p4544
aS'->'
p4545
aS'variable_81'
p4546
ag17
aS'variable_97'
p4547
ag29
aS'if'
p4548
ag6
aS'variable_65'
p4549
ag13
aS'variable_3'
p4550
aS'->'
p4551
aS'variable_14'
p4552
aS'->'
p4553
aS'variable_81'
p4554
ag17
aS'variable_3'
p4555
aS'->'
p4556
aS'variable_14'
p4557
aS'->'
p4558
aS'variable_72'
p4559
aS'=='
p4560
aS'variable_74'
p4561
ag552
aS'variable_98'
p4562
ag554
aS'variable_99'
p4563
ag29
aS'if'
p4564
ag6
aS'variable_3'
p4565
aS'->'
p4566
aS'variable_14'
p4567
aS'->'
p4568
aS'variable_79'
p4569
aS'=='
p4570
aS'variable_80'
p4571
ag13
aS'variable_3'
p4572
aS'->'
p4573
aS'variable_14'
p4574
aS'->'
p4575
aS'variable_81'
p4576
ag17
aS'variable_100'
p4577
ag29
aS'if'
p4578
ag6
aS'variable_69'
p4579
ag13
aS'variable_3'
p4580
aS'->'
p4581
aS'variable_14'
p4582
aS'->'
p4583
aS'variable_81'
p4584
ag17
aS'variable_3'
p4585
aS'->'
p4586
aS'variable_14'
p4587
aS'->'
p4588
aS'variable_72'
p4589
aS'=='
p4590
aS'variable_74'
p4591
ag552
aS'variable_101'
p4592
ag554
aS'variable_102'
p4593
ag29
aS'variable_3'
p4594
aS'->'
p4595
aS'variable_14'
p4596
aS'->'
p4597
aS'variable_81'
p4598
ag17
aS'variable_3'
p4599
aS'->'
p4600
aS'variable_14'
p4601
aS'->'
p4602
aS'func_10'
p4603
ag6
aS'variable_3'
p4604
aS'->'
p4605
aS'variable_14'
p4606
ag10
aS'variable_3'
p4607
aS'->'
p4608
aS'variable_14'
p4609
aS'->'
p4610
aS'variable_66'
p4611
aS'->'
p4612
aS'variable_103'
p4613
ag552
aS'variable_3'
p4614
aS'->'
p4615
aS'variable_14'
p4616
aS'->'
p4617
aS'variable_66'
p4618
aS'->'
p4619
aS'variable_103'
p4620
ag554
aS'variable_3'
p4621
aS'->'
p4622
aS'variable_14'
p4623
aS'->'
p4624
aS'variable_72'
p4625
aS'=='
p4626
aS'variable_74'
p4627
ag552
aS'variable_104'
p4628
ag554
aS'variable_105'
p4629
ag13
ag29
aS'variable_3'
p4630
aS'->'
p4631
aS'variable_14'
p4632
aS'->'
p4633
aS'variable_106'
p4634
ag17
aS'func_11'
p4635
ag6
aS'variable_3'
p4636
aS'->'
p4637
aS'variable_14'
p4638
aS'->'
p4639
aS'variable_66'
p4640
aS'->'
p4641
aS'variable_107'
p4642
ag10
aS'variable_3'
p4643
aS'->'
p4644
aS'variable_14'
p4645
aS'->'
p4646
aS'variable_81'
p4647
ag13
ag29
aS'if'
p4648
ag6
aS'func_12'
p4649
ag6
aS'variable_3'
p4650
ag13
ag309
ag85
ag13
aS'variable_3'
p4651
aS'->'
p4652
aS'variable_27'
p4653
ag17
ag85
ag29
aS'variable_1'
p4654
aS'->'
p4655
aS'variable_108'
p4656
ag17
ag310
ag29
aS'if'
p4657
ag6
aS'func_13'
p4658
ag6
aS'variable_1'
p4659
ag13
ag309
ag85
ag13
aS'if'
p4660
ag6
ag52
aS'variable_109'
p4661
aS'||'
p4662
ag52
ag6
aS'variable_3'
p4663
aS'->'
p4664
aS'variable_14'
p4665
aS'->'
p4666
aS'variable_56'
p4667
ag18
aS'variable_110'
p4668
ag13
ag13
aS'if'
p4669
ag6
aS'func_14'
p4670
ag6
aS'variable_1'
p4671
ag13
ag309
ag85
ag13
aS'for'
p4672
ag6
aS'variable_9'
p4673
ag17
ag310
ag29
aS'variable_9'
p4674
ag309
aS'variable_3'
p4675
aS'->'
p4676
aS'variable_111'
p4677
ag29
aS'variable_9'
p4678
aS'++'
p4679
ag13
aS'variable_0'
p4680
ag8
aS'variable_112'
p4681
ag29
aS'variable_112'
p4682
ag17
aS'variable_1'
p4683
aS'->'
p4684
aS'variable_113'
p4685
ag117
aS'variable_9'
p4686
ag119
ag17
aS'func_15'
p4687
ag6
aS'sizeof'
p4688
ag6
aS'variable_0'
p4689
ag13
ag13
ag29
aS'for'
p4690
ag6
aS'variable_9'
p4691
ag17
ag85
ag29
aS'variable_9'
p4692
ag309
aS'variable_3'
p4693
aS'->'
p4694
aS'variable_111'
p4695
ag29
aS'variable_9'
p4696
aS'++'
p4697
ag13
aS'if'
p4698
ag6
aS'func_16'
p4699
ag6
aS'variable_1'
p4700
aS'->'
p4701
aS'variable_113'
p4702
ag117
aS'variable_9'
p4703
ag119
ag13
ag309
ag85
ag13
aS'if'
p4704
ag6
aS'variable_1'
p4705
aS'=='
p4706
aS'variable_2'
p4707
aS'&&'
p4708
aS'variable_1'
p4709
aS'->'
p4710
aS'variable_114'
p4711
aS'!='
p4712
aS'variable_6'
p4713
ag13
aS'variable_1'
p4714
aS'->'
p4715
aS'variable_114'
p4716
ag17
aS'variable_6'
p4717
ag29
aS'variable_1'
p4718
aS'->'
p4719
aS'variable_115'
p4720
ag17
aS'func_17'
p4721
ag6
ag18
aS'variable_3'
p4722
aS'->'
p4723
aS'variable_25'
p4724
ag10
aS'variable_1'
p4725
aS'->'
p4726
aS'variable_38'
p4727
ag63
aS'variable_116'
p4728
ag13
ag29
aS'variable_1'
p4729
aS'->'
p4730
aS'variable_117'
p4731
ag17
ag85
ag29
aS'variable_1'
p4732
aS'->'
p4733
aS'variable_118'
p4734
ag17
ag85
ag29
aS'variable_11'
p4735
ag17
aS'variable_4'
p4736
aS'->'
p4737
aS'variable_119'
p4738
ag29
aS'variable_12'
p4739
ag17
aS'variable_3'
p4740
aS'->'
p4741
aS'variable_120'
p4742
ag29
aS'variable_3'
p4743
aS'->'
p4744
aS'variable_120'
p4745
ag17
aS'variable_1'
p4746
aS'->'
p4747
aS'variable_17'
p4748
aS'=='
p4749
ag85
ag29
aS'if'
p4750
ag6
aS'variable_1'
p4751
aS'->'
p4752
aS'variable_38'
p4753
ag63
aS'variable_48'
p4754
ag13
aS'variable_3'
p4755
aS'->'
p4756
aS'variable_119'
p4757
ag17
aS'variable_121'
p4758
ag29
aS'if'
p4759
ag6
ag52
aS'variable_1'
p4760
aS'->'
p4761
aS'variable_38'
p4762
ag63
aS'variable_122'
p4763
aS'&&'
p4764
aS'variable_7'
p4765
aS'=='
p4766
aS'variable_123'
p4767
ag13
aS'if'
p4768
ag6
aS'func_18'
p4769
ag6
ag18
aS'variable_3'
p4770
aS'->'
p4771
aS'variable_25'
p4772
ag13
ag13
aS'variable_3'
p4773
aS'->'
p4774
aS'variable_119'
p4775
ag17
aS'variable_124'
p4776
ag982
aS'func_19'
p4777
ag6
ag18
aS'variable_3'
p4778
aS'->'
p4779
aS'variable_25'
p4780
ag13
ag29
aS'variable_3'
p4781
aS'->'
p4782
aS'variable_119'
p4783
ag17
aS'variable_121'
p4784
ag29
aS'variable_1'
p4785
aS'->'
p4786
aS'variable_118'
p4787
ag17
aS'variable_1'
p4788
aS'->'
p4789
aS'variable_38'
p4790
ag63
aS'variable_125'
p4791
ag29
aS'variable_1'
p4792
aS'->'
p4793
aS'variable_126'
p4794
ag17
aS'variable_3'
p4795
aS'->'
p4796
aS'variable_119'
p4797
aS'!='
p4798
aS'variable_121'
p4799
ag29
aS'if'
p4800
ag6
aS'variable_2'
p4801
aS'->'
p4802
aS'variable_26'
p4803
aS'!='
p4804
ag85
ag13
aS'if'
p4805
ag6
aS'variable_1'
p4806
aS'->'
p4807
aS'variable_115'
p4808
aS'!='
p4809
aS'variable_1'
p4810
aS'->'
p4811
aS'variable_127'
p4812
aS'&&'
p4813
aS'variable_1'
p4814
aS'->'
p4815
aS'variable_127'
p4816
ag104
ag17
ag85
ag13
aS'int'
p4817
aS'variable_128'
p4818
ag17
aS'variable_1'
p4819
aS'->'
p4820
aS'variable_127'
p4821
ag29
aS'int'
p4822
aS'variable_129'
p4823
ag17
ag310
aS'<<'
p4824
aS'variable_1'
p4825
aS'->'
p4826
aS'variable_38'
p4827
ag63
aS'variable_116'
p4828
ag29
aS'if'
p4829
ag6
aS'variable_128'
p4830
ag104
aS'variable_1'
p4831
aS'->'
p4832
aS'variable_115'
p4833
ag13
aS'variable_128'
p4834
aS'-='
p4835
aS'variable_129'
p4836
ag29
aS'if'
p4837
ag6
ag6
aS'variable_1'
p4838
aS'->'
p4839
aS'variable_115'
p4840
ag223
aS'variable_128'
p4841
ag13
ag104
aS'variable_1'
p4842
aS'->'
p4843
aS'variable_38'
p4844
ag63
aS'variable_43'
p4845
ag13
aS'variable_128'
p4846
ag17
ag6
aS'variable_1'
p4847
aS'->'
p4848
aS'variable_115'
p4849
ag223
aS'variable_1'
p4850
aS'->'
p4851
aS'variable_38'
p4852
ag63
aS'variable_43'
p4853
ag13
ag223
ag310
ag29
aS'if'
p4854
ag6
aS'variable_128'
p4855
ag309
ag85
ag13
aS'variable_128'
p4856
aS'+='
p4857
aS'variable_129'
p4858
ag29
aS'variable_1'
p4859
aS'->'
p4860
aS'variable_127'
p4861
ag17
aS'variable_128'
p4862
ag29
aS'if'
p4863
ag6
aS'variable_4'
p4864
aS'->'
p4865
aS'variable_27'
p4866
ag13
aS'if'
p4867
ag6
ag52
aS'variable_130'
p4868
aS'||'
p4869
aS'variable_3'
p4870
aS'->'
p4871
aS'variable_119'
p4872
aS'=='
p4873
aS'variable_11'
p4874
ag13
aS'if'
p4875
ag6
aS'variable_4'
p4876
aS'->'
p4877
aS'variable_28'
p4878
aS'->'
p4879
aS'variable_115'
p4880
aS'!='
p4881
aS'variable_1'
p4882
aS'->'
p4883
aS'variable_115'
p4884
ag13
aS'if'
p4885
ag6
ag52
ag6
ag6
aS'variable_11'
p4886
aS'=='
p4887
aS'variable_124'
p4888
aS'&&'
p4889
aS'variable_3'
p4890
aS'->'
p4891
aS'variable_119'
p4892
aS'=='
p4893
aS'variable_131'
p4894
ag13
aS'||'
p4895
ag6
aS'variable_11'
p4896
aS'=='
p4897
aS'variable_131'
p4898
aS'&&'
p4899
aS'variable_3'
p4900
aS'->'
p4901
aS'variable_119'
p4902
aS'=='
p4903
aS'variable_124'
p4904
ag13
ag13
ag13
aS'if'
p4905
ag6
aS'variable_12'
p4906
aS'!='
p4907
aS'variable_3'
p4908
aS'->'
p4909
aS'variable_120'
p4910
ag13
aS'variable_3'
p4911
aS'->'
p4912
aS'variable_119'
p4913
ag17
aS'variable_11'
p4914
ag29
aS'variable_3'
p4915
aS'->'
p4916
aS'variable_120'
p4917
ag17
aS'variable_12'
p4918
ag29
aS'variable_4'
p4919
aS'->'
p4920
aS'variable_28'
p4921
aS'->'
p4922
aS'variable_132'
p4923
ag17
aS'variable_4'
p4924
ag29
aS'while'
p4925
ag6
aS'variable_1'
p4926
aS'->'
p4927
aS'variable_115'
p4928
aS'!='
p4929
aS'variable_1'
p4930
aS'->'
p4931
aS'variable_127'
p4932
aS'&&'
p4933
aS'variable_1'
p4934
aS'->'
p4935
aS'variable_127'
p4936
ag104
ag17
ag85
aS'&&'
p4937
aS'variable_1'
p4938
aS'->'
p4939
aS'variable_115'
p4940
aS'!='
p4941
ag6
aS'variable_1'
p4942
aS'->'
p4943
aS'variable_127'
p4944
ag982
ag310
ag13
ag1163
ag6
ag310
aS'<<'
p4945
aS'variable_1'
p4946
aS'->'
p4947
aS'variable_38'
p4948
ag63
aS'variable_116'
p4949
ag13
ag13
aS'if'
p4950
ag6
aS'func_20'
p4951
ag6
aS'variable_1'
p4952
ag13
ag309
ag85
ag13
aS'variable_1'
p4953
aS'->'
p4954
aS'variable_127'
p4955
aS'++'
p4956
ag29
aS'variable_1'
p4957
aS'->'
p4958
aS'variable_127'
p4959
ag1163
ag17
ag310
aS'<<'
p4960
aS'variable_1'
p4961
aS'->'
p4962
aS'variable_38'
p4963
ag63
aS'variable_116'
p4964
ag29
aS'variable_3'
p4965
aS'->'
p4966
aS'variable_28'
p4967
aS'->'
p4968
aS'variable_115'
p4969
ag17
aS'variable_1'
p4970
aS'->'
p4971
aS'variable_127'
p4972
ag29
aS'if'
p4973
ag6
aS'func_21'
p4974
ag6
aS'variable_1'
p4975
ag10
aS'variable_1'
p4976
aS'->'
p4977
aS'variable_133'
p4978
ag10
aS'variable_1'
p4979
aS'->'
p4980
aS'variable_134'
p4981
ag13
ag309
ag85
aS'&&'
p4982
ag6
aS'variable_3'
p4983
aS'->'
p4984
aS'variable_14'
p4985
aS'->'
p4986
aS'variable_135'
p4987
ag18
aS'variable_136'
p4988
ag13
ag13
aS'if'
p4989
ag6
aS'variable_4'
p4990
aS'->'
p4991
aS'variable_27'
p4992
ag13
aS'assert'
p4993
ag6
aS'variable_4'
p4994
aS'->'
p4995
aS'variable_28'
p4996
aS'->'
p4997
aS'variable_137'
p4998
ag63
aS'variable_138'
p4999
ag117
ag85
ag119
ag13
ag29
aa(lp5000
S'static'
p5001
aS'int'
p5002
aS'func_0'
p5003
ag6
aS'variable_0'
p5004
ag8
aS'variable_1'
p5005
ag10
aS'variable_0'
p5006
ag8
aS'variable_2'
p5007
ag13
aS'MpegEncContext'
p5008
ag8
aS'const'
p5009
aS'variable_3'
p5010
ag17
ag18
aS'variable_1'
p5011
aS'->'
p5012
aS'MpegEncContext'
p5013
ag8
aS'const'
p5014
aS'variable_4'
p5015
ag17
ag18
aS'variable_2'
p5016
aS'->'
p5017
aS'unsigned'
p5018
aS'int'
p5019
aS'variable_5'
p5020
ag29
aS'unsigned'
p5021
aS'int'
p5022
aS'variable_6'
p5023
ag29
aS'unsigned'
p5024
aS'int'
p5025
aS'variable_7'
p5026
ag10
aS'variable_8'
p5027
ag10
aS'variable_9'
p5028
ag10
aS'variable_10'
p5029
ag29
aS'int'
p5030
aS'variable_11'
p5031
ag10
aS'variable_12'
p5032
ag29
aS'int'
p5033
aS'variable_13'
p5034
ag29
aS'if'
p5035
ag6
ag6
aS'variable_3'
p5036
aS'->'
p5037
aS'variable_14'
p5038
aS'->'
p5039
aS'variable_15'
p5040
ag18
aS'variable_16'
p5041
ag13
aS'&&'
p5042
ag52
aS'variable_1'
p5043
aS'->'
p5044
aS'variable_17'
p5045
aS'&&'
p5046
ag52
aS'variable_1'
p5047
aS'->'
p5048
aS'variable_18'
p5049
ag13
aS'variable_3'
p5050
aS'->'
p5051
aS'variable_19'
p5052
ag63
aS'variable_20'
p5053
ag17
aS'variable_3'
p5054
aS'->'
p5055
aS'variable_21'
p5056
ag63
aS'variable_22'
p5057
ag29
aS'variable_3'
p5058
aS'->'
p5059
aS'variable_19'
p5060
ag63
aS'variable_23'
p5061
ag17
aS'variable_3'
p5062
aS'->'
p5063
aS'variable_21'
p5064
ag63
aS'variable_24'
p5065
ag29
aS'variable_5'
p5066
ag17
aS'func_1'
p5067
ag6
ag18
aS'variable_3'
p5068
aS'->'
p5069
aS'variable_25'
p5070
ag13
ag29
aS'if'
p5071
ag6
aS'variable_5'
p5072
aS'=='
p5073
ag85
ag13
aS'variable_2'
p5074
aS'->'
p5075
aS'variable_26'
p5076
ag17
ag85
ag29
aS'if'
p5077
ag6
ag52
aS'variable_4'
p5078
aS'->'
p5079
aS'variable_27'
p5080
ag13
aS'variable_3'
p5081
aS'->'
p5082
aS'variable_28'
p5083
ag17
aS'NULL'
p5084
ag29
aS'variable_7'
p5085
ag17
aS'func_2'
p5086
ag6
ag18
aS'variable_3'
p5087
aS'->'
p5088
aS'variable_25'
p5089
ag13
ag29
aS'if'
p5090
ag6
aS'variable_7'
p5091
ag104
ag105
ag13
aS'if'
p5092
ag6
aS'variable_7'
p5093
ag104
ag108
ag13
aS'variable_7'
p5094
aS'-='
p5095
ag111
ag29
aS'variable_1'
p5096
aS'->'
p5097
aS'variable_29'
p5098
ag17
ag85
ag29
aS'variable_7'
p5099
ag17
aS'variable_30'
p5100
ag117
aS'variable_7'
p5101
ag119
ag29
aS'variable_1'
p5102
aS'->'
p5103
aS'variable_7'
p5104
ag17
aS'variable_7'
p5105
ag29
aS'variable_1'
p5106
aS'->'
p5107
aS'variable_31'
p5108
ag17
aS'variable_7'
p5109
ag18
ag128
ag29
aS'variable_3'
p5110
aS'->'
p5111
aS'variable_32'
p5112
ag17
aS'variable_1'
p5113
aS'->'
p5114
aS'variable_7'
p5115
ag29
aS'variable_6'
p5116
ag17
aS'func_3'
p5117
ag6
ag18
aS'variable_3'
p5118
aS'->'
p5119
aS'variable_25'
p5120
ag13
ag29
aS'if'
p5121
ag6
aS'variable_6'
p5122
ag104
ag17
aS'variable_33'
p5123
ag13
aS'if'
p5124
ag6
ag52
aS'variable_2'
p5125
aS'->'
p5126
aS'variable_34'
p5127
ag117
aS'variable_6'
p5128
ag119
ag13
aS'variable_1'
p5129
aS'->'
p5130
aS'variable_35'
p5131
ag17
ag8
aS'variable_2'
p5132
aS'->'
p5133
aS'variable_34'
p5134
ag117
aS'variable_6'
p5135
ag119
ag29
aS'if'
p5136
ag6
ag52
aS'variable_2'
p5137
aS'->'
p5138
aS'variable_36'
p5139
ag117
aS'variable_1'
p5140
aS'->'
p5141
aS'variable_35'
p5142
ag63
aS'variable_37'
p5143
ag119
ag13
aS'variable_1'
p5144
aS'->'
p5145
aS'variable_38'
p5146
ag17
ag8
aS'variable_2'
p5147
aS'->'
p5148
aS'variable_36'
p5149
ag117
aS'variable_1'
p5150
aS'->'
p5151
aS'variable_35'
p5152
ag63
aS'variable_37'
p5153
ag119
ag29
aS'variable_3'
p5154
aS'->'
p5155
aS'variable_14'
p5156
aS'->'
p5157
aS'variable_39'
p5158
ag17
aS'func_4'
p5159
ag6
ag18
aS'variable_1'
p5160
aS'->'
p5161
aS'variable_38'
p5162
ag13
ag29
aS'variable_3'
p5163
aS'->'
p5164
aS'variable_14'
p5165
aS'->'
p5166
aS'variable_40'
p5167
ag17
aS'variable_1'
p5168
aS'->'
p5169
aS'variable_38'
p5170
ag63
aS'variable_41'
p5171
ag29
aS'variable_3'
p5172
aS'->'
p5173
aS'variable_14'
p5174
aS'->'
p5175
aS'variable_42'
p5176
ag17
aS'variable_1'
p5177
aS'->'
p5178
aS'variable_38'
p5179
ag63
aS'variable_43'
p5180
ag29
aS'variable_13'
p5181
ag17
ag6
aS'variable_3'
p5182
aS'->'
p5183
aS'variable_44'
p5184
aS'&&'
p5185
ag6
aS'16'
p5186
ag8
aS'variable_1'
p5187
aS'->'
p5188
aS'variable_38'
p5189
ag63
aS'variable_45'
p5190
aS'!='
p5191
aS'variable_3'
p5192
aS'->'
p5193
aS'variable_14'
p5194
aS'->'
p5195
aS'variable_46'
p5196
aS'||'
p5197
aS'16'
p5198
ag8
aS'variable_1'
p5199
aS'->'
p5200
aS'variable_38'
p5201
ag63
aS'variable_47'
p5202
ag8
ag6
ag222
ag223
aS'variable_1'
p5203
aS'->'
p5204
aS'variable_38'
p5205
ag63
aS'variable_48'
p5206
ag13
aS'!='
p5207
aS'variable_3'
p5208
aS'->'
p5209
aS'variable_14'
p5210
aS'->'
p5211
aS'variable_49'
p5212
aS'||'
p5213
aS'variable_3'
p5214
aS'->'
p5215
aS'variable_14'
p5216
aS'->'
p5217
aS'variable_50'
p5218
aS'!='
p5219
aS'variable_1'
p5220
aS'->'
p5221
aS'variable_38'
p5222
ag63
aS'variable_51'
p5223
aS'||'
p5224
aS'variable_1'
p5225
aS'->'
p5226
aS'variable_52'
p5227
aS'!='
p5228
aS'variable_1'
p5229
aS'->'
p5230
aS'variable_38'
p5231
ag63
aS'variable_53'
p5232
aS'||'
p5233
aS'func_5'
p5234
ag6
aS'variable_1'
p5235
aS'->'
p5236
aS'variable_38'
p5237
ag63
aS'variable_54'
p5238
ag10
aS'variable_3'
p5239
aS'->'
p5240
aS'variable_14'
p5241
aS'->'
p5242
aS'variable_55'
p5243
ag13
ag13
ag13
ag29
aS'if'
p5244
ag6
aS'variable_13'
p5245
aS'&&'
p5246
ag6
aS'variable_1'
p5247
aS'!='
p5248
aS'variable_2'
p5249
aS'||'
p5250
ag6
aS'variable_3'
p5251
aS'->'
p5252
aS'variable_14'
p5253
aS'->'
p5254
aS'variable_56'
p5255
ag18
aS'variable_57'
p5256
ag13
ag13
ag13
aS'variable_3'
p5257
aS'->'
p5258
aS'variable_45'
p5259
ag17
aS'variable_1'
p5260
aS'->'
p5261
aS'variable_38'
p5262
ag63
aS'variable_45'
p5263
ag29
aS'variable_3'
p5264
aS'->'
p5265
aS'variable_47'
p5266
ag17
aS'variable_1'
p5267
aS'->'
p5268
aS'variable_38'
p5269
ag63
aS'variable_47'
p5270
ag8
ag6
ag222
ag223
aS'variable_1'
p5271
aS'->'
p5272
aS'variable_38'
p5273
ag63
aS'variable_48'
p5274
ag13
ag29
aS'variable_1'
p5275
aS'->'
p5276
aS'variable_58'
p5277
ag17
aS'variable_3'
p5278
aS'->'
p5279
aS'variable_45'
p5280
ag8
ag108
ag29
aS'variable_3'
p5281
aS'->'
p5282
aS'variable_59'
p5283
ag17
aS'variable_1'
p5284
aS'->'
p5285
aS'variable_38'
p5286
ag63
aS'variable_53'
p5287
ag309
ag17
ag310
ag29
aS'variable_3'
p5288
aS'->'
p5289
aS'variable_60'
p5290
ag17
aS'16'
p5291
ag8
aS'variable_3'
p5292
aS'->'
p5293
aS'variable_45'
p5294
ag29
aS'variable_3'
p5295
aS'->'
p5296
aS'variable_61'
p5297
ag17
aS'16'
p5298
ag8
aS'variable_3'
p5299
aS'->'
p5300
aS'variable_47'
p5301
ag29
aS'if'
p5302
ag6
aS'variable_13'
p5303
ag13
aS'variable_1'
p5304
aS'->'
p5305
aS'variable_62'
p5306
ag17
ag85
ag29
aS'variable_1'
p5307
aS'->'
p5308
aS'variable_26'
p5309
ag17
ag85
ag29
aS'if'
p5310
ag6
ag52
aS'variable_3'
p5311
aS'->'
p5312
aS'variable_44'
p5313
ag13
aS'if'
p5314
ag6
aS'variable_1'
p5315
aS'!='
p5316
aS'variable_2'
p5317
ag13
aS'if'
p5318
ag6
aS'func_6'
p5319
ag6
aS'variable_3'
p5320
aS'->'
p5321
aS'variable_14'
p5322
aS'->'
p5323
aS'variable_60'
p5324
ag10
aS'16'
p5325
ag13
aS'=='
p5326
aS'variable_3'
p5327
aS'->'
p5328
aS'variable_60'
p5329
aS'&&'
p5330
aS'func_7'
p5331
ag6
aS'variable_3'
p5332
aS'->'
p5333
aS'variable_14'
p5334
aS'->'
p5335
aS'variable_61'
p5336
ag10
aS'16'
p5337
ag8
ag6
ag222
ag223
aS'variable_1'
p5338
aS'->'
p5339
aS'variable_38'
p5340
ag63
aS'variable_48'
p5341
ag13
ag13
aS'=='
p5342
aS'variable_3'
p5343
aS'->'
p5344
aS'variable_61'
p5345
aS'&&'
p5346
ag52
aS'variable_1'
p5347
aS'->'
p5348
aS'variable_38'
p5349
ag63
aS'variable_63'
p5350
aS'&&'
p5351
ag52
aS'variable_1'
p5352
aS'->'
p5353
aS'variable_38'
p5354
ag63
aS'variable_64'
p5355
aS'&&'
p5356
ag6
aS'variable_3'
p5357
aS'->'
p5358
aS'variable_14'
p5359
aS'->'
p5360
aS'variable_60'
p5361
aS'!='
p5362
aS'variable_3'
p5363
aS'->'
p5364
aS'variable_60'
p5365
aS'||'
p5366
aS'variable_3'
p5367
aS'->'
p5368
aS'variable_14'
p5369
aS'->'
p5370
aS'variable_61'
p5371
aS'&&'
p5372
aS'variable_3'
p5373
aS'->'
p5374
aS'variable_61'
p5375
ag13
ag13
aS'variable_3'
p5376
aS'->'
p5377
aS'variable_14'
p5378
aS'->'
p5379
aS'variable_60'
p5380
aS'-='
p5381
ag6
ag222
aS'>>'
p5382
aS'variable_65'
p5383
ag13
ag8
aS'func_8'
p5384
ag6
aS'variable_1'
p5385
aS'->'
p5386
aS'variable_38'
p5387
ag63
aS'variable_63'
p5388
ag10
ag6
ag412
aS'<<'
p5389
aS'variable_65'
p5390
ag13
ag223
ag310
ag13
ag29
aS'variable_3'
p5391
aS'->'
p5392
aS'variable_14'
p5393
aS'->'
p5394
aS'variable_61'
p5395
aS'-='
p5396
ag6
ag310
aS'<<'
p5397
aS'variable_3'
p5398
aS'->'
p5399
aS'variable_59'
p5400
ag13
ag8
aS'func_9'
p5401
ag6
aS'variable_1'
p5402
aS'->'
p5403
aS'variable_38'
p5404
ag63
aS'variable_64'
p5405
ag10
ag6
aS'16'
p5406
aS'>>'
p5407
aS'variable_3'
p5408
aS'->'
p5409
aS'variable_59'
p5410
ag13
ag223
ag310
ag13
ag8
ag6
ag222
ag223
aS'variable_1'
p5411
aS'->'
p5412
aS'variable_38'
p5413
ag63
aS'variable_48'
p5414
ag13
ag29
aS'variable_3'
p5415
aS'->'
p5416
aS'variable_14'
p5417
aS'->'
p5418
aS'variable_55'
p5419
ag17
aS'variable_1'
p5420
aS'->'
p5421
aS'variable_38'
p5422
ag63
aS'variable_54'
p5423
ag29
aS'if'
p5424
ag6
aS'variable_3'
p5425
aS'->'
p5426
aS'variable_14'
p5427
aS'->'
p5428
aS'variable_66'
p5429
aS'->'
p5430
aS'variable_67'
p5431
ag18
aS'variable_68'
p5432
aS'&&'
p5433
ag6
aS'variable_1'
p5434
aS'->'
p5435
aS'variable_38'
p5436
ag63
aS'variable_51'
p5437
aS'!='
p5438
ag412
aS'||'
p5439
aS'variable_1'
p5440
aS'->'
p5441
aS'variable_38'
p5442
ag63
aS'variable_53'
p5443
ag104
ag310
ag13
ag13
aS'if'
p5444
ag6
aS'variable_3'
p5445
aS'->'
p5446
aS'variable_14'
p5447
aS'->'
p5448
aS'variable_50'
p5449
aS'!='
p5450
aS'variable_1'
p5451
aS'->'
p5452
aS'variable_38'
p5453
ag63
aS'variable_51'
p5454
aS'||'
p5455
aS'variable_1'
p5456
aS'->'
p5457
aS'variable_52'
p5458
aS'!='
p5459
aS'variable_1'
p5460
aS'->'
p5461
aS'variable_38'
p5462
ag63
aS'variable_53'
p5463
ag13
aS'if'
p5464
ag6
aS'variable_1'
p5465
aS'->'
p5466
aS'variable_38'
p5467
ag63
aS'variable_51'
p5468
ag104
ag17
ag412
aS'&&'
p5469
aS'variable_1'
p5470
aS'->'
p5471
aS'variable_38'
p5472
ag63
aS'variable_51'
p5473
ag309
ag17
aS'14'
p5474
aS'&&'
p5475
aS'variable_1'
p5476
aS'->'
p5477
aS'variable_38'
p5478
ag63
aS'variable_51'
p5479
aS'!='
p5480
aS'11'
p5481
aS'&&'
p5482
aS'variable_1'
p5483
aS'->'
p5484
aS'variable_38'
p5485
ag63
aS'variable_51'
p5486
aS'!='
p5487
aS'13'
p5488
aS'&&'
p5489
ag6
aS'variable_1'
p5490
aS'->'
p5491
aS'variable_38'
p5492
ag63
aS'variable_51'
p5493
aS'!='
p5494
ag105
aS'||'
p5495
ag52
aS'variable_69'
p5496
ag13
ag13
aS'variable_3'
p5497
aS'->'
p5498
aS'variable_14'
p5499
aS'->'
p5500
aS'variable_50'
p5501
ag17
aS'variable_1'
p5502
aS'->'
p5503
aS'variable_38'
p5504
ag63
aS'variable_51'
p5505
ag29
aS'variable_1'
p5506
aS'->'
p5507
aS'variable_52'
p5508
ag17
aS'variable_1'
p5509
aS'->'
p5510
aS'variable_38'
p5511
ag63
aS'variable_53'
p5512
ag29
aS'variable_1'
p5513
aS'->'
p5514
aS'variable_18'
p5515
ag17
aS'variable_1'
p5516
aS'->'
p5517
aS'variable_38'
p5518
ag63
aS'variable_51'
p5519
ag104
ag412
ag29
aS'variable_3'
p5520
aS'->'
p5521
aS'variable_21'
p5522
ag63
aS'variable_70'
p5523
ag17
aS'variable_1'
p5524
aS'->'
p5525
aS'variable_38'
p5526
ag63
aS'variable_51'
p5527
ag104
ag412
ag552
aS'32'
p5528
ag554
aS'16'
p5529
ag29
aS'if'
p5530
ag6
aS'variable_1'
p5531
aS'->'
p5532
aS'variable_38'
p5533
ag63
aS'variable_71'
p5534
ag13
aS'variable_3'
p5535
aS'->'
p5536
aS'variable_14'
p5537
aS'->'
p5538
aS'variable_72'
p5539
ag17
aS'variable_1'
p5540
aS'->'
p5541
aS'variable_38'
p5542
ag63
aS'variable_73'
p5543
ag104
ag85
ag552
aS'variable_74'
p5544
ag554
aS'variable_75'
p5545
ag29
aS'if'
p5546
ag6
aS'variable_1'
p5547
aS'->'
p5548
aS'variable_38'
p5549
ag63
aS'variable_76'
p5550
ag13
aS'variable_3'
p5551
aS'->'
p5552
aS'variable_14'
p5553
aS'->'
p5554
aS'variable_77'
p5555
ag17
aS'variable_1'
p5556
aS'->'
p5557
aS'variable_38'
p5558
ag63
aS'variable_77'
p5559
ag29
aS'variable_3'
p5560
aS'->'
p5561
aS'variable_14'
p5562
aS'->'
p5563
aS'variable_78'
p5564
ag17
aS'variable_1'
p5565
aS'->'
p5566
aS'variable_38'
p5567
ag63
aS'variable_78'
p5568
ag29
aS'variable_3'
p5569
aS'->'
p5570
aS'variable_14'
p5571
aS'->'
p5572
aS'variable_79'
p5573
ag17
aS'variable_1'
p5574
aS'->'
p5575
aS'variable_38'
p5576
ag63
aS'variable_79'
p5577
ag29
aS'switch'
p5578
ag6
aS'variable_1'
p5579
aS'->'
p5580
aS'variable_38'
p5581
ag63
aS'variable_51'
p5582
ag13
aS'if'
p5583
ag6
aS'variable_65'
p5584
ag13
aS'if'
p5585
ag6
aS'variable_3'
p5586
aS'->'
p5587
aS'variable_14'
p5588
aS'->'
p5589
aS'variable_79'
p5590
aS'=='
p5591
aS'variable_80'
p5592
ag13
aS'variable_3'
p5593
aS'->'
p5594
aS'variable_14'
p5595
aS'->'
p5596
aS'variable_81'
p5597
ag17
aS'variable_82'
p5598
ag29
aS'variable_3'
p5599
aS'->'
p5600
aS'variable_14'
p5601
aS'->'
p5602
aS'variable_81'
p5603
ag17
aS'variable_83'
p5604
ag29
aS'if'
p5605
ag6
aS'variable_69'
p5606
ag13
aS'variable_3'
p5607
aS'->'
p5608
aS'variable_14'
p5609
aS'->'
p5610
aS'variable_81'
p5611
ag17
aS'variable_84'
p5612
ag29
aS'variable_3'
p5613
aS'->'
p5614
aS'variable_14'
p5615
aS'->'
p5616
aS'variable_81'
p5617
ag17
aS'variable_85'
p5618
ag29
aS'if'
p5619
ag6
aS'variable_65'
p5620
ag13
aS'if'
p5621
ag6
aS'variable_3'
p5622
aS'->'
p5623
aS'variable_14'
p5624
aS'->'
p5625
aS'variable_79'
p5626
aS'=='
p5627
aS'variable_80'
p5628
ag13
aS'variable_3'
p5629
aS'->'
p5630
aS'variable_14'
p5631
aS'->'
p5632
aS'variable_81'
p5633
ag17
aS'variable_86'
p5634
ag29
aS'variable_3'
p5635
aS'->'
p5636
aS'variable_14'
p5637
aS'->'
p5638
aS'variable_81'
p5639
ag17
aS'variable_87'
p5640
ag29
aS'if'
p5641
ag6
aS'variable_69'
p5642
ag13
aS'variable_3'
p5643
aS'->'
p5644
aS'variable_14'
p5645
aS'->'
p5646
aS'variable_81'
p5647
ag17
aS'variable_88'
p5648
ag29
aS'variable_3'
p5649
aS'->'
p5650
aS'variable_14'
p5651
aS'->'
p5652
aS'variable_81'
p5653
ag17
aS'variable_89'
p5654
ag29
aS'if'
p5655
ag6
aS'variable_65'
p5656
ag13
aS'if'
p5657
ag6
aS'variable_3'
p5658
aS'->'
p5659
aS'variable_14'
p5660
aS'->'
p5661
aS'variable_79'
p5662
aS'=='
p5663
aS'variable_80'
p5664
ag13
aS'variable_3'
p5665
aS'->'
p5666
aS'variable_14'
p5667
aS'->'
p5668
aS'variable_81'
p5669
ag17
aS'variable_90'
p5670
ag29
aS'variable_3'
p5671
aS'->'
p5672
aS'variable_14'
p5673
aS'->'
p5674
aS'variable_81'
p5675
ag17
aS'variable_91'
p5676
ag29
aS'if'
p5677
ag6
aS'variable_69'
p5678
ag13
aS'variable_3'
p5679
aS'->'
p5680
aS'variable_14'
p5681
aS'->'
p5682
aS'variable_81'
p5683
ag17
aS'variable_92'
p5684
ag29
aS'variable_3'
p5685
aS'->'
p5686
aS'variable_14'
p5687
aS'->'
p5688
aS'variable_81'
p5689
ag17
aS'variable_93'
p5690
ag29
aS'if'
p5691
ag6
aS'variable_65'
p5692
ag13
aS'if'
p5693
ag6
aS'variable_3'
p5694
aS'->'
p5695
aS'variable_14'
p5696
aS'->'
p5697
aS'variable_79'
p5698
aS'=='
p5699
aS'variable_80'
p5700
ag13
aS'variable_3'
p5701
aS'->'
p5702
aS'variable_14'
p5703
aS'->'
p5704
aS'variable_81'
p5705
ag17
aS'variable_94'
p5706
ag29
aS'variable_3'
p5707
aS'->'
p5708
aS'variable_14'
p5709
aS'->'
p5710
aS'variable_81'
p5711
ag17
aS'variable_95'
p5712
ag29
aS'if'
p5713
ag6
aS'variable_69'
p5714
ag13
aS'variable_3'
p5715
aS'->'
p5716
aS'variable_14'
p5717
aS'->'
p5718
aS'variable_81'
p5719
ag17
aS'variable_96'
p5720
ag29
aS'variable_3'
p5721
aS'->'
p5722
aS'variable_14'
p5723
aS'->'
p5724
aS'variable_81'
p5725
ag17
aS'variable_97'
p5726
ag29
aS'if'
p5727
ag6
aS'variable_65'
p5728
ag13
aS'variable_3'
p5729
aS'->'
p5730
aS'variable_14'
p5731
aS'->'
p5732
aS'variable_81'
p5733
ag17
aS'variable_3'
p5734
aS'->'
p5735
aS'variable_14'
p5736
aS'->'
p5737
aS'variable_72'
p5738
aS'=='
p5739
aS'variable_74'
p5740
ag552
aS'variable_98'
p5741
ag554
aS'variable_99'
p5742
ag29
aS'if'
p5743
ag6
aS'variable_3'
p5744
aS'->'
p5745
aS'variable_14'
p5746
aS'->'
p5747
aS'variable_79'
p5748
aS'=='
p5749
aS'variable_80'
p5750
ag13
aS'variable_3'
p5751
aS'->'
p5752
aS'variable_14'
p5753
aS'->'
p5754
aS'variable_81'
p5755
ag17
aS'variable_100'
p5756
ag29
aS'if'
p5757
ag6
aS'variable_69'
p5758
ag13
aS'variable_3'
p5759
aS'->'
p5760
aS'variable_14'
p5761
aS'->'
p5762
aS'variable_81'
p5763
ag17
aS'variable_3'
p5764
aS'->'
p5765
aS'variable_14'
p5766
aS'->'
p5767
aS'variable_72'
p5768
aS'=='
p5769
aS'variable_74'
p5770
ag552
aS'variable_101'
p5771
ag554
aS'variable_102'
p5772
ag29
aS'variable_3'
p5773
aS'->'
p5774
aS'variable_14'
p5775
aS'->'
p5776
aS'variable_81'
p5777
ag17
aS'variable_3'
p5778
aS'->'
p5779
aS'variable_14'
p5780
aS'->'
p5781
aS'func_10'
p5782
ag6
aS'variable_3'
p5783
aS'->'
p5784
aS'variable_14'
p5785
ag10
aS'variable_3'
p5786
aS'->'
p5787
aS'variable_14'
p5788
aS'->'
p5789
aS'variable_66'
p5790
aS'->'
p5791
aS'variable_103'
p5792
ag552
aS'variable_3'
p5793
aS'->'
p5794
aS'variable_14'
p5795
aS'->'
p5796
aS'variable_66'
p5797
aS'->'
p5798
aS'variable_103'
p5799
ag554
aS'variable_3'
p5800
aS'->'
p5801
aS'variable_14'
p5802
aS'->'
p5803
aS'variable_72'
p5804
aS'=='
p5805
aS'variable_74'
p5806
ag552
aS'variable_104'
p5807
ag554
aS'variable_105'
p5808
ag13
ag29
aS'variable_3'
p5809
aS'->'
p5810
aS'variable_14'
p5811
aS'->'
p5812
aS'variable_106'
p5813
ag17
aS'func_11'
p5814
ag6
aS'variable_3'
p5815
aS'->'
p5816
aS'variable_14'
p5817
aS'->'
p5818
aS'variable_66'
p5819
aS'->'
p5820
aS'variable_107'
p5821
ag10
aS'variable_3'
p5822
aS'->'
p5823
aS'variable_14'
p5824
aS'->'
p5825
aS'variable_81'
p5826
ag13
ag29
aS'if'
p5827
ag6
aS'func_12'
p5828
ag6
aS'variable_3'
p5829
ag13
ag309
ag85
ag13
aS'variable_3'
p5830
aS'->'
p5831
aS'variable_27'
p5832
ag17
ag85
ag29
aS'variable_1'
p5833
aS'->'
p5834
aS'variable_108'
p5835
ag17
ag310
ag29
aS'if'
p5836
ag6
aS'func_13'
p5837
ag6
aS'variable_1'
p5838
ag13
ag309
ag85
ag13
aS'if'
p5839
ag6
ag52
aS'variable_109'
p5840
aS'||'
p5841
ag52
ag6
aS'variable_3'
p5842
aS'->'
p5843
aS'variable_14'
p5844
aS'->'
p5845
aS'variable_56'
p5846
ag18
aS'variable_110'
p5847
ag13
ag13
aS'if'
p5848
ag6
aS'func_14'
p5849
ag6
aS'variable_1'
p5850
ag13
ag309
ag85
ag13
aS'for'
p5851
ag6
aS'variable_9'
p5852
ag17
ag310
ag29
aS'variable_9'
p5853
ag309
aS'variable_3'
p5854
aS'->'
p5855
aS'variable_111'
p5856
ag29
aS'variable_9'
p5857
aS'++'
p5858
ag13
aS'variable_0'
p5859
ag8
aS'variable_112'
p5860
ag29
aS'variable_112'
p5861
ag17
aS'variable_1'
p5862
aS'->'
p5863
aS'variable_113'
p5864
ag117
aS'variable_9'
p5865
ag119
ag17
aS'func_15'
p5866
ag6
aS'sizeof'
p5867
ag6
aS'variable_0'
p5868
ag13
ag13
ag29
aS'for'
p5869
ag6
aS'variable_9'
p5870
ag17
ag85
ag29
aS'variable_9'
p5871
ag309
aS'variable_3'
p5872
aS'->'
p5873
aS'variable_111'
p5874
ag29
aS'variable_9'
p5875
aS'++'
p5876
ag13
aS'if'
p5877
ag6
aS'func_16'
p5878
ag6
aS'variable_1'
p5879
aS'->'
p5880
aS'variable_113'
p5881
ag117
aS'variable_9'
p5882
ag119
ag13
ag309
ag85
ag13
aS'if'
p5883
ag6
aS'variable_1'
p5884
aS'=='
p5885
aS'variable_2'
p5886
aS'&&'
p5887
aS'variable_1'
p5888
aS'->'
p5889
aS'variable_114'
p5890
aS'!='
p5891
aS'variable_6'
p5892
ag13
aS'variable_1'
p5893
aS'->'
p5894
aS'variable_114'
p5895
ag17
aS'variable_6'
p5896
ag29
aS'variable_1'
p5897
aS'->'
p5898
aS'variable_115'
p5899
ag17
aS'func_17'
p5900
ag6
ag18
aS'variable_3'
p5901
aS'->'
p5902
aS'variable_25'
p5903
ag10
aS'variable_1'
p5904
aS'->'
p5905
aS'variable_38'
p5906
ag63
aS'variable_116'
p5907
ag13
ag29
aS'variable_1'
p5908
aS'->'
p5909
aS'variable_117'
p5910
ag17
ag85
ag29
aS'variable_1'
p5911
aS'->'
p5912
aS'variable_118'
p5913
ag17
ag85
ag29
aS'variable_11'
p5914
ag17
aS'variable_4'
p5915
aS'->'
p5916
aS'variable_119'
p5917
ag29
aS'variable_12'
p5918
ag17
aS'variable_3'
p5919
aS'->'
p5920
aS'variable_120'
p5921
ag29
aS'variable_3'
p5922
aS'->'
p5923
aS'variable_120'
p5924
ag17
aS'variable_1'
p5925
aS'->'
p5926
aS'variable_17'
p5927
aS'=='
p5928
ag85
ag29
aS'if'
p5929
ag6
aS'variable_1'
p5930
aS'->'
p5931
aS'variable_38'
p5932
ag63
aS'variable_48'
p5933
ag13
aS'variable_3'
p5934
aS'->'
p5935
aS'variable_119'
p5936
ag17
aS'variable_121'
p5937
ag29
aS'if'
p5938
ag6
ag52
aS'variable_1'
p5939
aS'->'
p5940
aS'variable_38'
p5941
ag63
aS'variable_122'
p5942
aS'&&'
p5943
aS'variable_7'
p5944
aS'=='
p5945
aS'variable_123'
p5946
ag13
aS'if'
p5947
ag6
aS'func_18'
p5948
ag6
ag18
aS'variable_3'
p5949
aS'->'
p5950
aS'variable_25'
p5951
ag13
ag13
aS'variable_3'
p5952
aS'->'
p5953
aS'variable_119'
p5954
ag17
aS'variable_124'
p5955
ag982
aS'func_19'
p5956
ag6
ag18
aS'variable_3'
p5957
aS'->'
p5958
aS'variable_25'
p5959
ag13
ag29
aS'variable_3'
p5960
aS'->'
p5961
aS'variable_119'
p5962
ag17
aS'variable_121'
p5963
ag29
aS'variable_1'
p5964
aS'->'
p5965
aS'variable_118'
p5966
ag17
aS'variable_1'
p5967
aS'->'
p5968
aS'variable_38'
p5969
ag63
aS'variable_125'
p5970
ag29
aS'variable_1'
p5971
aS'->'
p5972
aS'variable_126'
p5973
ag17
aS'variable_3'
p5974
aS'->'
p5975
aS'variable_119'
p5976
aS'!='
p5977
aS'variable_121'
p5978
ag29
aS'if'
p5979
ag6
aS'variable_2'
p5980
aS'->'
p5981
aS'variable_26'
p5982
aS'!='
p5983
ag85
ag13
aS'if'
p5984
ag6
aS'variable_1'
p5985
aS'->'
p5986
aS'variable_115'
p5987
aS'!='
p5988
aS'variable_1'
p5989
aS'->'
p5990
aS'variable_127'
p5991
aS'&&'
p5992
aS'variable_1'
p5993
aS'->'
p5994
aS'variable_127'
p5995
ag104
ag17
ag85
ag13
aS'int'
p5996
aS'variable_128'
p5997
ag17
aS'variable_1'
p5998
aS'->'
p5999
aS'variable_127'
p6000
ag29
aS'int'
p6001
aS'variable_129'
p6002
ag17
ag310
aS'<<'
p6003
aS'variable_1'
p6004
aS'->'
p6005
aS'variable_38'
p6006
ag63
aS'variable_116'
p6007
ag29
aS'if'
p6008
ag6
aS'variable_128'
p6009
ag104
aS'variable_1'
p6010
aS'->'
p6011
aS'variable_115'
p6012
ag13
aS'variable_128'
p6013
aS'-='
p6014
aS'variable_129'
p6015
ag29
aS'if'
p6016
ag6
ag6
aS'variable_1'
p6017
aS'->'
p6018
aS'variable_115'
p6019
ag223
aS'variable_128'
p6020
ag13
ag104
aS'variable_1'
p6021
aS'->'
p6022
aS'variable_38'
p6023
ag63
aS'variable_43'
p6024
ag13
aS'variable_128'
p6025
ag17
ag6
aS'variable_1'
p6026
aS'->'
p6027
aS'variable_115'
p6028
ag223
aS'variable_1'
p6029
aS'->'
p6030
aS'variable_38'
p6031
ag63
aS'variable_43'
p6032
ag13
ag223
ag310
ag29
aS'if'
p6033
ag6
aS'variable_128'
p6034
ag309
ag85
ag13
aS'variable_128'
p6035
aS'+='
p6036
aS'variable_129'
p6037
ag29
aS'variable_1'
p6038
aS'->'
p6039
aS'variable_127'
p6040
ag17
aS'variable_128'
p6041
ag29
aS'if'
p6042
ag6
aS'variable_4'
p6043
aS'->'
p6044
aS'variable_27'
p6045
ag13
aS'if'
p6046
ag6
ag52
aS'variable_130'
p6047
aS'||'
p6048
aS'variable_3'
p6049
aS'->'
p6050
aS'variable_119'
p6051
aS'=='
p6052
aS'variable_11'
p6053
ag13
aS'if'
p6054
ag6
aS'variable_4'
p6055
aS'->'
p6056
aS'variable_28'
p6057
aS'->'
p6058
aS'variable_115'
p6059
aS'!='
p6060
aS'variable_1'
p6061
aS'->'
p6062
aS'variable_115'
p6063
ag13
aS'if'
p6064
ag6
ag52
ag6
ag6
aS'variable_11'
p6065
aS'=='
p6066
aS'variable_124'
p6067
aS'&&'
p6068
aS'variable_3'
p6069
aS'->'
p6070
aS'variable_119'
p6071
aS'=='
p6072
aS'variable_131'
p6073
ag13
aS'||'
p6074
ag6
aS'variable_11'
p6075
aS'=='
p6076
aS'variable_131'
p6077
aS'&&'
p6078
aS'variable_3'
p6079
aS'->'
p6080
aS'variable_119'
p6081
aS'=='
p6082
aS'variable_124'
p6083
ag13
ag13
ag13
aS'if'
p6084
ag6
aS'variable_12'
p6085
aS'!='
p6086
aS'variable_3'
p6087
aS'->'
p6088
aS'variable_120'
p6089
ag13
aS'variable_3'
p6090
aS'->'
p6091
aS'variable_119'
p6092
ag17
aS'variable_11'
p6093
ag29
aS'variable_3'
p6094
aS'->'
p6095
aS'variable_120'
p6096
ag17
aS'variable_12'
p6097
ag29
aS'variable_4'
p6098
aS'->'
p6099
aS'variable_28'
p6100
aS'->'
p6101
aS'variable_132'
p6102
ag17
aS'variable_4'
p6103
ag29
aS'while'
p6104
ag6
aS'variable_1'
p6105
aS'->'
p6106
aS'variable_115'
p6107
aS'!='
p6108
aS'variable_1'
p6109
aS'->'
p6110
aS'variable_127'
p6111
aS'&&'
p6112
aS'variable_1'
p6113
aS'->'
p6114
aS'variable_127'
p6115
ag104
ag17
ag85
aS'&&'
p6116
aS'variable_1'
p6117
aS'->'
p6118
aS'variable_115'
p6119
aS'!='
p6120
ag6
aS'variable_1'
p6121
aS'->'
p6122
aS'variable_127'
p6123
ag982
ag310
ag13
ag1163
ag6
ag310
aS'<<'
p6124
aS'variable_1'
p6125
aS'->'
p6126
aS'variable_38'
p6127
ag63
aS'variable_116'
p6128
ag13
ag13
aS'if'
p6129
ag6
aS'func_20'
p6130
ag6
aS'variable_1'
p6131
ag13
ag309
ag85
ag13
aS'variable_1'
p6132
aS'->'
p6133
aS'variable_127'
p6134
aS'++'
p6135
ag29
aS'variable_1'
p6136
aS'->'
p6137
aS'variable_127'
p6138
ag1163
ag17
ag310
aS'<<'
p6139
aS'variable_1'
p6140
aS'->'
p6141
aS'variable_38'
p6142
ag63
aS'variable_116'
p6143
ag29
aS'variable_3'
p6144
aS'->'
p6145
aS'variable_28'
p6146
aS'->'
p6147
aS'variable_115'
p6148
ag17
aS'variable_1'
p6149
aS'->'
p6150
aS'variable_127'
p6151
ag29
aS'if'
p6152
ag6
aS'func_21'
p6153
ag6
aS'variable_1'
p6154
ag10
aS'variable_1'
p6155
aS'->'
p6156
aS'variable_133'
p6157
ag10
aS'variable_1'
p6158
aS'->'
p6159
aS'variable_134'
p6160
ag13
ag309
ag85
aS'&&'
p6161
ag6
aS'variable_3'
p6162
aS'->'
p6163
aS'variable_14'
p6164
aS'->'
p6165
aS'variable_135'
p6166
ag18
aS'variable_136'
p6167
ag13
ag13
aS'if'
p6168
ag6
aS'variable_4'
p6169
aS'->'
p6170
aS'variable_27'
p6171
ag13
aS'assert'
p6172
ag6
aS'variable_4'
p6173
aS'->'
p6174
aS'variable_28'
p6175
ag13
ag29
aa(lp6176
S'static'
p6177
aS'int'
p6178
aS'func_0'
p6179
ag6
aS'variable_0'
p6180
ag8
aS'variable_1'
p6181
ag10
aS'variable_0'
p6182
ag8
aS'variable_2'
p6183
ag13
aS'MpegEncContext'
p6184
ag8
aS'const'
p6185
aS'variable_3'
p6186
ag17
ag18
aS'variable_1'
p6187
aS'->'
p6188
aS'MpegEncContext'
p6189
ag8
aS'const'
p6190
aS'variable_4'
p6191
ag17
ag18
aS'variable_2'
p6192
aS'->'
p6193
aS'unsigned'
p6194
aS'int'
p6195
aS'variable_5'
p6196
ag29
aS'unsigned'
p6197
aS'int'
p6198
aS'variable_6'
p6199
ag29
aS'unsigned'
p6200
aS'int'
p6201
aS'variable_7'
p6202
ag10
aS'variable_8'
p6203
ag10
aS'variable_9'
p6204
ag10
aS'variable_10'
p6205
ag29
aS'int'
p6206
aS'variable_11'
p6207
ag29
aS'if'
p6208
ag6
ag6
aS'variable_3'
p6209
aS'->'
p6210
aS'variable_12'
p6211
aS'->'
p6212
aS'variable_13'
p6213
ag18
aS'variable_14'
p6214
ag13
aS'&&'
p6215
ag52
aS'variable_1'
p6216
aS'->'
p6217
aS'variable_15'
p6218
aS'&&'
p6219
ag52
aS'variable_1'
p6220
aS'->'
p6221
aS'variable_16'
p6222
ag13
aS'variable_3'
p6223
aS'->'
p6224
aS'variable_17'
p6225
ag63
aS'variable_18'
p6226
ag17
aS'variable_3'
p6227
aS'->'
p6228
aS'variable_19'
p6229
ag63
aS'variable_20'
p6230
ag29
aS'variable_3'
p6231
aS'->'
p6232
aS'variable_17'
p6233
ag63
aS'variable_21'
p6234
ag17
aS'variable_3'
p6235
aS'->'
p6236
aS'variable_19'
p6237
ag63
aS'variable_22'
p6238
ag29
aS'variable_5'
p6239
ag17
aS'func_1'
p6240
ag6
ag18
aS'variable_3'
p6241
aS'->'
p6242
aS'variable_23'
p6243
ag13
ag29
aS'if'
p6244
ag6
aS'variable_5'
p6245
aS'=='
p6246
ag85
ag13
aS'variable_2'
p6247
aS'->'
p6248
aS'variable_24'
p6249
ag17
ag85
ag29
aS'if'
p6250
ag6
ag52
aS'variable_4'
p6251
aS'->'
p6252
aS'variable_25'
p6253
ag13
aS'variable_3'
p6254
aS'->'
p6255
aS'variable_26'
p6256
ag17
aS'NULL'
p6257
ag29
aS'variable_7'
p6258
ag17
aS'func_2'
p6259
ag6
ag18
aS'variable_3'
p6260
aS'->'
p6261
aS'variable_23'
p6262
ag13
ag29
aS'if'
p6263
ag6
aS'variable_7'
p6264
ag104
ag105
ag13
aS'if'
p6265
ag6
aS'variable_7'
p6266
ag104
ag108
ag13
aS'variable_7'
p6267
aS'-='
p6268
ag111
ag29
aS'variable_1'
p6269
aS'->'
p6270
aS'variable_27'
p6271
ag17
ag85
ag29
aS'variable_7'
p6272
ag17
aS'variable_28'
p6273
ag117
aS'variable_7'
p6274
ag119
ag29
aS'variable_1'
p6275
aS'->'
p6276
aS'variable_7'
p6277
ag17
aS'variable_7'
p6278
ag29
aS'variable_1'
p6279
aS'->'
p6280
aS'variable_29'
p6281
ag17
aS'variable_7'
p6282
ag18
ag128
ag29
aS'variable_3'
p6283
aS'->'
p6284
aS'variable_30'
p6285
ag17
aS'variable_1'
p6286
aS'->'
p6287
aS'variable_7'
p6288
ag29
aS'variable_6'
p6289
ag17
aS'func_3'
p6290
ag6
ag18
aS'variable_3'
p6291
aS'->'
p6292
aS'variable_23'
p6293
ag13
ag29
aS'if'
p6294
ag6
aS'variable_6'
p6295
ag104
ag17
aS'variable_31'
p6296
ag13
aS'if'
p6297
ag6
ag52
aS'variable_2'
p6298
aS'->'
p6299
aS'variable_32'
p6300
ag117
aS'variable_6'
p6301
ag119
ag13
aS'variable_1'
p6302
aS'->'
p6303
aS'variable_33'
p6304
ag17
ag8
aS'variable_2'
p6305
aS'->'
p6306
aS'variable_32'
p6307
ag117
aS'variable_6'
p6308
ag119
ag29
aS'if'
p6309
ag6
ag52
aS'variable_2'
p6310
aS'->'
p6311
aS'variable_34'
p6312
ag117
aS'variable_1'
p6313
aS'->'
p6314
aS'variable_33'
p6315
ag63
aS'variable_35'
p6316
ag119
ag13
aS'variable_1'
p6317
aS'->'
p6318
aS'variable_36'
p6319
ag17
ag8
aS'variable_2'
p6320
aS'->'
p6321
aS'variable_34'
p6322
ag117
aS'variable_1'
p6323
aS'->'
p6324
aS'variable_33'
p6325
ag63
aS'variable_35'
p6326
ag119
ag29
aS'variable_3'
p6327
aS'->'
p6328
aS'variable_12'
p6329
aS'->'
p6330
aS'variable_37'
p6331
ag17
aS'func_4'
p6332
ag6
ag18
aS'variable_1'
p6333
aS'->'
p6334
aS'variable_36'
p6335
ag13
ag29
aS'variable_3'
p6336
aS'->'
p6337
aS'variable_12'
p6338
aS'->'
p6339
aS'variable_38'
p6340
ag17
aS'variable_1'
p6341
aS'->'
p6342
aS'variable_36'
p6343
ag63
aS'variable_39'
p6344
ag29
aS'variable_3'
p6345
aS'->'
p6346
aS'variable_12'
p6347
aS'->'
p6348
aS'variable_40'
p6349
ag17
aS'variable_1'
p6350
aS'->'
p6351
aS'variable_36'
p6352
ag63
aS'variable_41'
p6353
ag29
aS'variable_11'
p6354
ag17
ag6
aS'variable_3'
p6355
aS'->'
p6356
aS'variable_42'
p6357
aS'&&'
p6358
ag6
aS'16'
p6359
ag8
aS'variable_1'
p6360
aS'->'
p6361
aS'variable_36'
p6362
ag63
aS'variable_43'
p6363
aS'!='
p6364
aS'variable_3'
p6365
aS'->'
p6366
aS'variable_12'
p6367
aS'->'
p6368
aS'variable_44'
p6369
aS'||'
p6370
aS'16'
p6371
ag8
aS'variable_1'
p6372
aS'->'
p6373
aS'variable_36'
p6374
ag63
aS'variable_45'
p6375
ag8
ag6
ag222
ag223
aS'variable_1'
p6376
aS'->'
p6377
aS'variable_36'
p6378
ag63
aS'variable_46'
p6379
ag13
aS'!='
p6380
aS'variable_3'
p6381
aS'->'
p6382
aS'variable_12'
p6383
aS'->'
p6384
aS'variable_47'
p6385
aS'||'
p6386
aS'variable_3'
p6387
aS'->'
p6388
aS'variable_12'
p6389
aS'->'
p6390
aS'variable_48'
p6391
aS'!='
p6392
aS'variable_1'
p6393
aS'->'
p6394
aS'variable_36'
p6395
ag63
aS'variable_49'
p6396
aS'||'
p6397
aS'variable_1'
p6398
aS'->'
p6399
aS'variable_50'
p6400
aS'!='
p6401
aS'variable_1'
p6402
aS'->'
p6403
aS'variable_36'
p6404
ag63
aS'variable_51'
p6405
aS'||'
p6406
aS'func_5'
p6407
ag6
aS'variable_1'
p6408
aS'->'
p6409
aS'variable_36'
p6410
ag63
aS'variable_52'
p6411
ag10
aS'variable_3'
p6412
aS'->'
p6413
aS'variable_12'
p6414
aS'->'
p6415
aS'variable_53'
p6416
ag13
ag13
ag13
ag29
aS'if'
p6417
ag6
aS'variable_11'
p6418
aS'&&'
p6419
ag6
aS'variable_1'
p6420
aS'!='
p6421
aS'variable_2'
p6422
aS'||'
p6423
ag6
aS'variable_3'
p6424
aS'->'
p6425
aS'variable_12'
p6426
aS'->'
p6427
aS'variable_54'
p6428
ag18
aS'variable_55'
p6429
ag13
ag13
ag13
aS'variable_3'
p6430
aS'->'
p6431
aS'variable_43'
p6432
ag17
aS'variable_1'
p6433
aS'->'
p6434
aS'variable_36'
p6435
ag63
aS'variable_43'
p6436
ag29
aS'variable_3'
p6437
aS'->'
p6438
aS'variable_45'
p6439
ag17
aS'variable_1'
p6440
aS'->'
p6441
aS'variable_36'
p6442
ag63
aS'variable_45'
p6443
ag8
ag6
ag222
ag223
aS'variable_1'
p6444
aS'->'
p6445
aS'variable_36'
p6446
ag63
aS'variable_46'
p6447
ag13
ag29
aS'variable_1'
p6448
aS'->'
p6449
aS'variable_56'
p6450
ag17
aS'variable_3'
p6451
aS'->'
p6452
aS'variable_43'
p6453
ag8
ag108
ag29
aS'variable_3'
p6454
aS'->'
p6455
aS'variable_57'
p6456
ag17
aS'variable_1'
p6457
aS'->'
p6458
aS'variable_36'
p6459
ag63
aS'variable_51'
p6460
ag309
ag17
ag310
ag29
aS'variable_3'
p6461
aS'->'
p6462
aS'variable_58'
p6463
ag17
aS'16'
p6464
ag8
aS'variable_3'
p6465
aS'->'
p6466
aS'variable_43'
p6467
ag29
aS'variable_3'
p6468
aS'->'
p6469
aS'variable_59'
p6470
ag17
aS'16'
p6471
ag8
aS'variable_3'
p6472
aS'->'
p6473
aS'variable_45'
p6474
ag29
aS'if'
p6475
ag6
aS'variable_11'
p6476
ag13
aS'variable_1'
p6477
aS'->'
p6478
aS'variable_60'
p6479
ag17
ag85
ag29
aS'variable_1'
p6480
aS'->'
p6481
aS'variable_24'
p6482
ag17
ag85
ag29
aS'if'
p6483
ag6
ag52
aS'variable_3'
p6484
aS'->'
p6485
aS'variable_42'
p6486
ag13
aS'if'
p6487
ag6
aS'variable_1'
p6488
aS'!='
p6489
aS'variable_2'
p6490
ag13
aS'if'
p6491
ag6
aS'func_6'
p6492
ag6
aS'variable_3'
p6493
aS'->'
p6494
aS'variable_12'
p6495
aS'->'
p6496
aS'variable_58'
p6497
ag10
aS'16'
p6498
ag13
aS'=='
p6499
aS'variable_3'
p6500
aS'->'
p6501
aS'variable_58'
p6502
aS'&&'
p6503
aS'func_7'
p6504
ag6
aS'variable_3'
p6505
aS'->'
p6506
aS'variable_12'
p6507
aS'->'
p6508
aS'variable_59'
p6509
ag10
aS'16'
p6510
ag8
ag6
ag222
ag223
aS'variable_1'
p6511
aS'->'
p6512
aS'variable_36'
p6513
ag63
aS'variable_46'
p6514
ag13
ag13
aS'=='
p6515
aS'variable_3'
p6516
aS'->'
p6517
aS'variable_59'
p6518
aS'&&'
p6519
ag52
aS'variable_1'
p6520
aS'->'
p6521
aS'variable_36'
p6522
ag63
aS'variable_61'
p6523
aS'&&'
p6524
ag52
aS'variable_1'
p6525
aS'->'
p6526
aS'variable_36'
p6527
ag63
aS'variable_62'
p6528
aS'&&'
p6529
ag6
aS'variable_3'
p6530
aS'->'
p6531
aS'variable_12'
p6532
aS'->'
p6533
aS'variable_58'
p6534
aS'!='
p6535
aS'variable_3'
p6536
aS'->'
p6537
aS'variable_58'
p6538
aS'||'
p6539
aS'variable_3'
p6540
aS'->'
p6541
aS'variable_12'
p6542
aS'->'
p6543
aS'variable_59'
p6544
aS'&&'
p6545
aS'variable_3'
p6546
aS'->'
p6547
aS'variable_59'
p6548
ag13
ag13
aS'variable_3'
p6549
aS'->'
p6550
aS'variable_12'
p6551
aS'->'
p6552
aS'variable_58'
p6553
aS'-='
p6554
ag6
ag222
aS'>>'
p6555
aS'variable_63'
p6556
ag13
ag8
aS'func_8'
p6557
ag6
aS'variable_1'
p6558
aS'->'
p6559
aS'variable_36'
p6560
ag63
aS'variable_61'
p6561
ag10
ag6
ag412
aS'<<'
p6562
aS'variable_63'
p6563
ag13
ag223
ag310
ag13
ag29
aS'variable_3'
p6564
aS'->'
p6565
aS'variable_12'
p6566
aS'->'
p6567
aS'variable_59'
p6568
aS'-='
p6569
ag6
ag310
aS'<<'
p6570
aS'variable_3'
p6571
aS'->'
p6572
aS'variable_57'
p6573
ag13
ag8
aS'func_9'
p6574
ag6
aS'variable_1'
p6575
aS'->'
p6576
aS'variable_36'
p6577
ag63
aS'variable_62'
p6578
ag10
ag6
aS'16'
p6579
aS'>>'
p6580
aS'variable_3'
p6581
aS'->'
p6582
aS'variable_57'
p6583
ag13
ag223
ag310
ag13
ag8
ag6
ag222
ag223
aS'variable_1'
p6584
aS'->'
p6585
aS'variable_36'
p6586
ag63
aS'variable_46'
p6587
ag13
ag29
aS'variable_3'
p6588
aS'->'
p6589
aS'variable_12'
p6590
aS'->'
p6591
aS'variable_53'
p6592
ag17
aS'variable_1'
p6593
aS'->'
p6594
aS'variable_36'
p6595
ag63
aS'variable_52'
p6596
ag29
aS'if'
p6597
ag6
aS'variable_3'
p6598
aS'->'
p6599
aS'variable_12'
p6600
aS'->'
p6601
aS'variable_64'
p6602
aS'->'
p6603
aS'variable_65'
p6604
ag18
aS'variable_66'
p6605
aS'&&'
p6606
ag6
aS'variable_1'
p6607
aS'->'
p6608
aS'variable_36'
p6609
ag63
aS'variable_49'
p6610
aS'!='
p6611
ag412
aS'||'
p6612
aS'variable_1'
p6613
aS'->'
p6614
aS'variable_36'
p6615
ag63
aS'variable_51'
p6616
ag104
ag310
ag13
ag13
aS'if'
p6617
ag6
aS'variable_3'
p6618
aS'->'
p6619
aS'variable_12'
p6620
aS'->'
p6621
aS'variable_48'
p6622
aS'!='
p6623
aS'variable_1'
p6624
aS'->'
p6625
aS'variable_36'
p6626
ag63
aS'variable_49'
p6627
aS'||'
p6628
aS'variable_1'
p6629
aS'->'
p6630
aS'variable_50'
p6631
aS'!='
p6632
aS'variable_1'
p6633
aS'->'
p6634
aS'variable_36'
p6635
ag63
aS'variable_51'
p6636
ag13
aS'if'
p6637
ag6
aS'variable_1'
p6638
aS'->'
p6639
aS'variable_36'
p6640
ag63
aS'variable_49'
p6641
ag104
ag17
ag412
aS'&&'
p6642
aS'variable_1'
p6643
aS'->'
p6644
aS'variable_36'
p6645
ag63
aS'variable_49'
p6646
ag309
ag17
aS'14'
p6647
aS'&&'
p6648
aS'variable_1'
p6649
aS'->'
p6650
aS'variable_36'
p6651
ag63
aS'variable_49'
p6652
aS'!='
p6653
aS'11'
p6654
aS'&&'
p6655
aS'variable_1'
p6656
aS'->'
p6657
aS'variable_36'
p6658
ag63
aS'variable_49'
p6659
aS'!='
p6660
aS'13'
p6661
aS'&&'
p6662
ag6
aS'variable_1'
p6663
aS'->'
p6664
aS'variable_36'
p6665
ag63
aS'variable_49'
p6666
aS'!='
p6667
ag105
aS'||'
p6668
ag52
aS'variable_67'
p6669
ag13
ag13
aS'variable_3'
p6670
aS'->'
p6671
aS'variable_12'
p6672
aS'->'
p6673
aS'variable_48'
p6674
ag17
aS'variable_1'
p6675
aS'->'
p6676
aS'variable_36'
p6677
ag63
aS'variable_49'
p6678
ag29
aS'variable_1'
p6679
aS'->'
p6680
aS'variable_50'
p6681
ag17
aS'variable_1'
p6682
aS'->'
p6683
aS'variable_36'
p6684
ag63
aS'variable_51'
p6685
ag29
aS'variable_1'
p6686
aS'->'
p6687
aS'variable_16'
p6688
ag17
aS'variable_1'
p6689
aS'->'
p6690
aS'variable_36'
p6691
ag63
aS'variable_49'
p6692
ag104
ag412
ag29
aS'variable_3'
p6693
aS'->'
p6694
aS'variable_19'
p6695
ag63
aS'variable_68'
p6696
ag17
aS'variable_1'
p6697
aS'->'
p6698
aS'variable_36'
p6699
ag63
aS'variable_49'
p6700
ag104
ag412
ag552
aS'32'
p6701
ag554
aS'16'
p6702
ag29
aS'if'
p6703
ag6
aS'variable_1'
p6704
aS'->'
p6705
aS'variable_36'
p6706
ag63
aS'variable_69'
p6707
ag13
aS'variable_3'
p6708
aS'->'
p6709
aS'variable_12'
p6710
aS'->'
p6711
aS'variable_70'
p6712
ag17
aS'variable_1'
p6713
aS'->'
p6714
aS'variable_36'
p6715
ag63
aS'variable_71'
p6716
ag104
ag85
ag552
aS'variable_72'
p6717
ag554
aS'variable_73'
p6718
ag29
aS'if'
p6719
ag6
aS'variable_1'
p6720
aS'->'
p6721
aS'variable_36'
p6722
ag63
aS'variable_74'
p6723
ag13
aS'variable_3'
p6724
aS'->'
p6725
aS'variable_12'
p6726
aS'->'
p6727
aS'variable_75'
p6728
ag17
aS'variable_1'
p6729
aS'->'
p6730
aS'variable_36'
p6731
ag63
aS'variable_75'
p6732
ag29
aS'variable_3'
p6733
aS'->'
p6734
aS'variable_12'
p6735
aS'->'
p6736
aS'variable_76'
p6737
ag17
aS'variable_1'
p6738
aS'->'
p6739
aS'variable_36'
p6740
ag63
aS'variable_76'
p6741
ag29
aS'variable_3'
p6742
aS'->'
p6743
aS'variable_12'
p6744
aS'->'
p6745
aS'variable_77'
p6746
ag17
aS'variable_1'
p6747
aS'->'
p6748
aS'variable_36'
p6749
ag63
aS'variable_77'
p6750
ag29
aS'switch'
p6751
ag6
aS'variable_1'
p6752
aS'->'
p6753
aS'variable_36'
p6754
ag63
aS'variable_49'
p6755
ag13
aS'if'
p6756
ag6
aS'variable_63'
p6757
ag13
aS'if'
p6758
ag6
aS'variable_3'
p6759
aS'->'
p6760
aS'variable_12'
p6761
aS'->'
p6762
aS'variable_77'
p6763
aS'=='
p6764
aS'variable_78'
p6765
ag13
aS'variable_3'
p6766
aS'->'
p6767
aS'variable_12'
p6768
aS'->'
p6769
aS'variable_79'
p6770
ag17
aS'variable_80'
p6771
ag29
aS'variable_3'
p6772
aS'->'
p6773
aS'variable_12'
p6774
aS'->'
p6775
aS'variable_79'
p6776
ag17
aS'variable_81'
p6777
ag29
aS'if'
p6778
ag6
aS'variable_67'
p6779
ag13
aS'variable_3'
p6780
aS'->'
p6781
aS'variable_12'
p6782
aS'->'
p6783
aS'variable_79'
p6784
ag17
aS'variable_82'
p6785
ag29
aS'variable_3'
p6786
aS'->'
p6787
aS'variable_12'
p6788
aS'->'
p6789
aS'variable_79'
p6790
ag17
aS'variable_83'
p6791
ag29
aS'if'
p6792
ag6
aS'variable_63'
p6793
ag13
aS'if'
p6794
ag6
aS'variable_3'
p6795
aS'->'
p6796
aS'variable_12'
p6797
aS'->'
p6798
aS'variable_77'
p6799
aS'=='
p6800
aS'variable_78'
p6801
ag13
aS'variable_3'
p6802
aS'->'
p6803
aS'variable_12'
p6804
aS'->'
p6805
aS'variable_79'
p6806
ag17
aS'variable_84'
p6807
ag29
aS'variable_3'
p6808
aS'->'
p6809
aS'variable_12'
p6810
aS'->'
p6811
aS'variable_79'
p6812
ag17
aS'variable_85'
p6813
ag29
aS'if'
p6814
ag6
aS'variable_67'
p6815
ag13
aS'variable_3'
p6816
aS'->'
p6817
aS'variable_12'
p6818
aS'->'
p6819
aS'variable_79'
p6820
ag17
aS'variable_86'
p6821
ag29
aS'variable_3'
p6822
aS'->'
p6823
aS'variable_12'
p6824
aS'->'
p6825
aS'variable_79'
p6826
ag17
aS'variable_87'
p6827
ag29
aS'if'
p6828
ag6
aS'variable_63'
p6829
ag13
aS'if'
p6830
ag6
aS'variable_3'
p6831
aS'->'
p6832
aS'variable_12'
p6833
aS'->'
p6834
aS'variable_77'
p6835
aS'=='
p6836
aS'variable_78'
p6837
ag13
aS'variable_3'
p6838
aS'->'
p6839
aS'variable_12'
p6840
aS'->'
p6841
aS'variable_79'
p6842
ag17
aS'variable_88'
p6843
ag29
aS'variable_3'
p6844
aS'->'
p6845
aS'variable_12'
p6846
aS'->'
p6847
aS'variable_79'
p6848
ag17
aS'variable_89'
p6849
ag29
aS'if'
p6850
ag6
aS'variable_67'
p6851
ag13
aS'variable_3'
p6852
aS'->'
p6853
aS'variable_12'
p6854
aS'->'
p6855
aS'variable_79'
p6856
ag17
aS'variable_90'
p6857
ag29
aS'variable_3'
p6858
aS'->'
p6859
aS'variable_12'
p6860
aS'->'
p6861
aS'variable_79'
p6862
ag17
aS'variable_91'
p6863
ag29
aS'if'
p6864
ag6
aS'variable_63'
p6865
ag13
aS'if'
p6866
ag6
aS'variable_3'
p6867
aS'->'
p6868
aS'variable_12'
p6869
aS'->'
p6870
aS'variable_77'
p6871
aS'=='
p6872
aS'variable_78'
p6873
ag13
aS'variable_3'
p6874
aS'->'
p6875
aS'variable_12'
p6876
aS'->'
p6877
aS'variable_79'
p6878
ag17
aS'variable_92'
p6879
ag29
aS'variable_3'
p6880
aS'->'
p6881
aS'variable_12'
p6882
aS'->'
p6883
aS'variable_79'
p6884
ag17
aS'variable_93'
p6885
ag29
aS'if'
p6886
ag6
aS'variable_67'
p6887
ag13
aS'variable_3'
p6888
aS'->'
p6889
aS'variable_12'
p6890
aS'->'
p6891
aS'variable_79'
p6892
ag17
aS'variable_94'
p6893
ag29
aS'variable_3'
p6894
aS'->'
p6895
aS'variable_12'
p6896
aS'->'
p6897
aS'variable_79'
p6898
ag17
aS'variable_95'
p6899
ag29
aS'if'
p6900
ag6
aS'variable_63'
p6901
ag13
aS'variable_3'
p6902
aS'->'
p6903
aS'variable_12'
p6904
aS'->'
p6905
aS'variable_79'
p6906
ag17
aS'variable_3'
p6907
aS'->'
p6908
aS'variable_12'
p6909
aS'->'
p6910
aS'variable_70'
p6911
aS'=='
p6912
aS'variable_72'
p6913
ag552
aS'variable_96'
p6914
ag554
aS'variable_97'
p6915
ag29
aS'if'
p6916
ag6
aS'variable_3'
p6917
aS'->'
p6918
aS'variable_12'
p6919
aS'->'
p6920
aS'variable_77'
p6921
aS'=='
p6922
aS'variable_78'
p6923
ag13
aS'variable_3'
p6924
aS'->'
p6925
aS'variable_12'
p6926
aS'->'
p6927
aS'variable_79'
p6928
ag17
aS'variable_98'
p6929
ag29
aS'if'
p6930
ag6
aS'variable_67'
p6931
ag13
aS'variable_3'
p6932
aS'->'
p6933
aS'variable_12'
p6934
aS'->'
p6935
aS'variable_79'
p6936
ag17
aS'variable_3'
p6937
aS'->'
p6938
aS'variable_12'
p6939
aS'->'
p6940
aS'variable_70'
p6941
aS'=='
p6942
aS'variable_72'
p6943
ag552
aS'variable_99'
p6944
ag554
aS'variable_100'
p6945
ag29
aS'variable_3'
p6946
aS'->'
p6947
aS'variable_12'
p6948
aS'->'
p6949
aS'variable_79'
p6950
ag17
aS'variable_3'
p6951
aS'->'
p6952
aS'variable_12'
p6953
aS'->'
p6954
aS'func_10'
p6955
ag6
aS'variable_3'
p6956
aS'->'
p6957
aS'variable_12'
p6958
ag10
aS'variable_3'
p6959
aS'->'
p6960
aS'variable_12'
p6961
aS'->'
p6962
aS'variable_64'
p6963
aS'->'
p6964
aS'variable_101'
p6965
ag552
aS'variable_3'
p6966
aS'->'
p6967
aS'variable_12'
p6968
aS'->'
p6969
aS'variable_64'
p6970
aS'->'
p6971
aS'variable_101'
p6972
ag554
aS'variable_3'
p6973
aS'->'
p6974
aS'variable_12'
p6975
aS'->'
p6976
aS'variable_70'
p6977
aS'=='
p6978
aS'variable_72'
p6979
ag552
aS'variable_102'
p6980
ag554
aS'variable_103'
p6981
ag13
ag29
aS'variable_3'
p6982
aS'->'
p6983
aS'variable_12'
p6984
aS'->'
p6985
aS'variable_104'
p6986
ag17
aS'func_11'
p6987
ag6
aS'variable_3'
p6988
aS'->'
p6989
aS'variable_12'
p6990
aS'->'
p6991
aS'variable_64'
p6992
aS'->'
p6993
aS'variable_105'
p6994
ag10
aS'variable_3'
p6995
aS'->'
p6996
aS'variable_12'
p6997
aS'->'
p6998
aS'variable_79'
p6999
ag13
ag29
aS'if'
p7000
ag6
aS'func_12'
p7001
ag6
aS'variable_3'
p7002
ag13
ag309
ag85
ag13
aS'variable_3'
p7003
aS'->'
p7004
aS'variable_25'
p7005
ag17
ag85
ag29
aS'variable_1'
p7006
aS'->'
p7007
aS'variable_106'
p7008
ag17
ag310
ag29
aS'if'
p7009
ag6
aS'func_13'
p7010
ag6
aS'variable_1'
p7011
ag13
ag309
ag85
ag13
aS'if'
p7012
ag6
ag52
aS'variable_107'
p7013
aS'||'
p7014
ag52
ag6
aS'variable_3'
p7015
aS'->'
p7016
aS'variable_12'
p7017
aS'->'
p7018
aS'variable_54'
p7019
ag18
aS'variable_108'
p7020
ag13
ag13
aS'if'
p7021
ag6
aS'func_14'
p7022
ag6
aS'variable_1'
p7023
ag13
ag309
ag85
ag13
aS'for'
p7024
ag6
aS'variable_9'
p7025
ag17
ag310
ag29
aS'variable_9'
p7026
ag309
aS'variable_3'
p7027
aS'->'
p7028
aS'variable_109'
p7029
ag29
aS'variable_9'
p7030
aS'++'
p7031
ag13
aS'variable_0'
p7032
ag8
aS'variable_110'
p7033
ag29
aS'variable_110'
p7034
ag17
aS'variable_1'
p7035
aS'->'
p7036
aS'variable_111'
p7037
ag117
aS'variable_9'
p7038
ag119
ag17
aS'func_15'
p7039
ag6
aS'sizeof'
p7040
ag6
aS'variable_0'
p7041
ag13
ag13
ag29
aS'for'
p7042
ag6
aS'variable_9'
p7043
ag17
ag85
ag29
aS'variable_9'
p7044
ag309
aS'variable_3'
p7045
aS'->'
p7046
aS'variable_109'
p7047
ag29
aS'variable_9'
p7048
aS'++'
p7049
ag13
aS'if'
p7050
ag6
aS'func_16'
p7051
ag6
aS'variable_1'
p7052
aS'->'
p7053
aS'variable_111'
p7054
ag117
aS'variable_9'
p7055
ag119
ag13
ag309
ag85
ag13
aS'if'
p7056
ag6
aS'variable_1'
p7057
aS'=='
p7058
aS'variable_2'
p7059
aS'&&'
p7060
aS'variable_1'
p7061
aS'->'
p7062
aS'variable_112'
p7063
aS'!='
p7064
aS'variable_6'
p7065
ag13
aS'variable_1'
p7066
aS'->'
p7067
aS'variable_112'
p7068
ag17
aS'variable_6'
p7069
ag29
aS'variable_1'
p7070
aS'->'
p7071
aS'variable_113'
p7072
ag17
aS'func_17'
p7073
ag6
ag18
aS'variable_3'
p7074
aS'->'
p7075
aS'variable_23'
p7076
ag10
aS'variable_1'
p7077
aS'->'
p7078
aS'variable_36'
p7079
ag63
aS'variable_114'
p7080
ag13
ag29
aS'variable_1'
p7081
aS'->'
p7082
aS'variable_115'
p7083
ag17
ag85
ag29
aS'variable_1'
p7084
aS'->'
p7085
aS'variable_116'
p7086
ag17
ag85
ag29
aS'if'
p7087
ag6
aS'variable_1'
p7088
aS'->'
p7089
aS'variable_36'
p7090
ag63
aS'variable_46'
p7091
ag13
aS'if'
p7092
ag6
ag52
aS'variable_1'
p7093
aS'->'
p7094
aS'variable_36'
p7095
ag63
aS'variable_117'
p7096
aS'&&'
p7097
aS'variable_7'
p7098
aS'=='
p7099
aS'variable_118'
p7100
ag13
aS'if'
p7101
ag6
aS'variable_2'
p7102
aS'->'
p7103
aS'variable_24'
p7104
aS'!='
p7105
ag85
ag13
aS'if'
p7106
ag6
aS'variable_4'
p7107
aS'->'
p7108
aS'variable_25'
p7109
ag13
aS'assert'
p7110
ag6
aS'variable_4'
p7111
aS'->'
p7112
aS'variable_26'
p7113
aS'->'
p7114
aS'variable_119'
p7115
ag63
aS'variable_120'
p7116
aS'!='
p7117
aS'variable_121'
p7118
ag13
ag29
aa(lp7119
S'static'
p7120
aS'int'
p7121
aS'func_0'
p7122
ag6
aS'variable_0'
p7123
ag8
aS'variable_1'
p7124
ag10
aS'variable_0'
p7125
ag8
aS'variable_2'
p7126
ag13
aS'MpegEncContext'
p7127
ag8
aS'const'
p7128
aS'variable_3'
p7129
ag17
ag18
aS'variable_1'
p7130
aS'->'
p7131
aS'MpegEncContext'
p7132
ag8
aS'const'
p7133
aS'variable_4'
p7134
ag17
ag18
aS'variable_2'
p7135
aS'->'
p7136
aS'unsigned'
p7137
aS'int'
p7138
aS'variable_5'
p7139
ag29
aS'unsigned'
p7140
aS'int'
p7141
aS'variable_6'
p7142
ag29
aS'unsigned'
p7143
aS'int'
p7144
aS'variable_7'
p7145
ag10
aS'variable_8'
p7146
ag10
aS'variable_9'
p7147
ag10
aS'variable_10'
p7148
ag29
aS'int'
p7149
aS'variable_11'
p7150
ag29
aS'if'
p7151
ag6
ag6
aS'variable_3'
p7152
aS'->'
p7153
aS'variable_12'
p7154
aS'->'
p7155
aS'variable_13'
p7156
ag18
aS'variable_14'
p7157
ag13
aS'&&'
p7158
ag52
aS'variable_1'
p7159
aS'->'
p7160
aS'variable_15'
p7161
aS'&&'
p7162
ag52
aS'variable_1'
p7163
aS'->'
p7164
aS'variable_16'
p7165
ag13
aS'variable_3'
p7166
aS'->'
p7167
aS'variable_17'
p7168
ag63
aS'variable_18'
p7169
ag17
aS'variable_3'
p7170
aS'->'
p7171
aS'variable_19'
p7172
ag63
aS'variable_20'
p7173
ag29
aS'variable_3'
p7174
aS'->'
p7175
aS'variable_17'
p7176
ag63
aS'variable_21'
p7177
ag17
aS'variable_3'
p7178
aS'->'
p7179
aS'variable_19'
p7180
ag63
aS'variable_22'
p7181
ag29
aS'variable_5'
p7182
ag17
aS'func_1'
p7183
ag6
ag18
aS'variable_3'
p7184
aS'->'
p7185
aS'variable_23'
p7186
ag13
ag29
aS'if'
p7187
ag6
aS'variable_5'
p7188
aS'=='
p7189
ag85
ag13
aS'variable_2'
p7190
aS'->'
p7191
aS'variable_24'
p7192
ag17
ag85
ag29
aS'if'
p7193
ag6
ag52
aS'variable_4'
p7194
aS'->'
p7195
aS'variable_25'
p7196
ag13
aS'variable_3'
p7197
aS'->'
p7198
aS'variable_26'
p7199
ag17
aS'NULL'
p7200
ag29
aS'variable_7'
p7201
ag17
aS'func_2'
p7202
ag6
ag18
aS'variable_3'
p7203
aS'->'
p7204
aS'variable_23'
p7205
ag13
ag29
aS'if'
p7206
ag6
aS'variable_7'
p7207
ag104
ag105
ag13
aS'if'
p7208
ag6
aS'variable_7'
p7209
ag104
ag108
ag13
aS'variable_7'
p7210
aS'-='
p7211
ag111
ag29
aS'variable_1'
p7212
aS'->'
p7213
aS'variable_27'
p7214
ag17
ag85
ag29
aS'variable_7'
p7215
ag17
aS'variable_28'
p7216
ag117
aS'variable_7'
p7217
ag119
ag29
aS'variable_1'
p7218
aS'->'
p7219
aS'variable_7'
p7220
ag17
aS'variable_7'
p7221
ag29
aS'variable_1'
p7222
aS'->'
p7223
aS'variable_29'
p7224
ag17
aS'variable_7'
p7225
ag18
ag128
ag29
aS'variable_3'
p7226
aS'->'
p7227
aS'variable_30'
p7228
ag17
aS'variable_1'
p7229
aS'->'
p7230
aS'variable_7'
p7231
ag29
aS'variable_6'
p7232
ag17
aS'func_3'
p7233
ag6
ag18
aS'variable_3'
p7234
aS'->'
p7235
aS'variable_23'
p7236
ag13
ag29
aS'if'
p7237
ag6
aS'variable_6'
p7238
ag104
ag17
aS'variable_31'
p7239
ag13
aS'if'
p7240
ag6
ag52
aS'variable_2'
p7241
aS'->'
p7242
aS'variable_32'
p7243
ag117
aS'variable_6'
p7244
ag119
ag13
aS'variable_1'
p7245
aS'->'
p7246
aS'variable_33'
p7247
ag17
ag8
aS'variable_2'
p7248
aS'->'
p7249
aS'variable_32'
p7250
ag117
aS'variable_6'
p7251
ag119
ag29
aS'if'
p7252
ag6
ag52
aS'variable_2'
p7253
aS'->'
p7254
aS'variable_34'
p7255
ag117
aS'variable_1'
p7256
aS'->'
p7257
aS'variable_33'
p7258
ag63
aS'variable_35'
p7259
ag119
ag13
aS'variable_1'
p7260
aS'->'
p7261
aS'variable_36'
p7262
ag17
ag8
aS'variable_2'
p7263
aS'->'
p7264
aS'variable_34'
p7265
ag117
aS'variable_1'
p7266
aS'->'
p7267
aS'variable_33'
p7268
ag63
aS'variable_35'
p7269
ag119
ag29
aS'variable_3'
p7270
aS'->'
p7271
aS'variable_12'
p7272
aS'->'
p7273
aS'variable_37'
p7274
ag17
aS'func_4'
p7275
ag6
ag18
aS'variable_1'
p7276
aS'->'
p7277
aS'variable_36'
p7278
ag13
ag29
aS'variable_3'
p7279
aS'->'
p7280
aS'variable_12'
p7281
aS'->'
p7282
aS'variable_38'
p7283
ag17
aS'variable_1'
p7284
aS'->'
p7285
aS'variable_36'
p7286
ag63
aS'variable_39'
p7287
ag29
aS'variable_3'
p7288
aS'->'
p7289
aS'variable_12'
p7290
aS'->'
p7291
aS'variable_40'
p7292
ag17
aS'variable_1'
p7293
aS'->'
p7294
aS'variable_36'
p7295
ag63
aS'variable_41'
p7296
ag29
aS'variable_11'
p7297
ag17
ag6
aS'variable_3'
p7298
aS'->'
p7299
aS'variable_42'
p7300
aS'&&'
p7301
ag6
aS'16'
p7302
ag8
aS'variable_1'
p7303
aS'->'
p7304
aS'variable_36'
p7305
ag63
aS'variable_43'
p7306
aS'!='
p7307
aS'variable_3'
p7308
aS'->'
p7309
aS'variable_12'
p7310
aS'->'
p7311
aS'variable_44'
p7312
aS'||'
p7313
aS'16'
p7314
ag8
aS'variable_1'
p7315
aS'->'
p7316
aS'variable_36'
p7317
ag63
aS'variable_45'
p7318
ag8
ag6
ag222
ag223
aS'variable_1'
p7319
aS'->'
p7320
aS'variable_36'
p7321
ag63
aS'variable_46'
p7322
ag13
aS'!='
p7323
aS'variable_3'
p7324
aS'->'
p7325
aS'variable_12'
p7326
aS'->'
p7327
aS'variable_47'
p7328
aS'||'
p7329
aS'variable_3'
p7330
aS'->'
p7331
aS'variable_12'
p7332
aS'->'
p7333
aS'variable_48'
p7334
aS'!='
p7335
aS'variable_1'
p7336
aS'->'
p7337
aS'variable_36'
p7338
ag63
aS'variable_49'
p7339
aS'||'
p7340
aS'variable_1'
p7341
aS'->'
p7342
aS'variable_50'
p7343
aS'!='
p7344
aS'variable_1'
p7345
aS'->'
p7346
aS'variable_36'
p7347
ag63
aS'variable_51'
p7348
aS'||'
p7349
aS'func_5'
p7350
ag6
aS'variable_1'
p7351
aS'->'
p7352
aS'variable_36'
p7353
ag63
aS'variable_52'
p7354
ag10
aS'variable_3'
p7355
aS'->'
p7356
aS'variable_12'
p7357
aS'->'
p7358
aS'variable_53'
p7359
ag13
ag13
ag13
ag29
aS'if'
p7360
ag6
aS'variable_11'
p7361
aS'&&'
p7362
ag6
aS'variable_1'
p7363
aS'!='
p7364
aS'variable_2'
p7365
aS'||'
p7366
ag6
aS'variable_3'
p7367
aS'->'
p7368
aS'variable_12'
p7369
aS'->'
p7370
aS'variable_54'
p7371
ag18
aS'variable_55'
p7372
ag13
ag13
ag13
aS'variable_3'
p7373
aS'->'
p7374
aS'variable_43'
p7375
ag17
aS'variable_1'
p7376
aS'->'
p7377
aS'variable_36'
p7378
ag63
aS'variable_43'
p7379
ag29
aS'variable_3'
p7380
aS'->'
p7381
aS'variable_45'
p7382
ag17
aS'variable_1'
p7383
aS'->'
p7384
aS'variable_36'
p7385
ag63
aS'variable_45'
p7386
ag8
ag6
ag222
ag223
aS'variable_1'
p7387
aS'->'
p7388
aS'variable_36'
p7389
ag63
aS'variable_46'
p7390
ag13
ag29
aS'variable_1'
p7391
aS'->'
p7392
aS'variable_56'
p7393
ag17
aS'variable_3'
p7394
aS'->'
p7395
aS'variable_43'
p7396
ag8
ag108
ag29
aS'variable_3'
p7397
aS'->'
p7398
aS'variable_57'
p7399
ag17
aS'variable_1'
p7400
aS'->'
p7401
aS'variable_36'
p7402
ag63
aS'variable_51'
p7403
ag309
ag17
ag310
ag29
aS'variable_3'
p7404
aS'->'
p7405
aS'variable_58'
p7406
ag17
aS'16'
p7407
ag8
aS'variable_3'
p7408
aS'->'
p7409
aS'variable_43'
p7410
ag29
aS'variable_3'
p7411
aS'->'
p7412
aS'variable_59'
p7413
ag17
aS'16'
p7414
ag8
aS'variable_3'
p7415
aS'->'
p7416
aS'variable_45'
p7417
ag29
aS'if'
p7418
ag6
aS'variable_11'
p7419
ag13
aS'variable_1'
p7420
aS'->'
p7421
aS'variable_60'
p7422
ag17
ag85
ag29
aS'variable_1'
p7423
aS'->'
p7424
aS'variable_24'
p7425
ag17
ag85
ag29
aS'if'
p7426
ag6
ag52
aS'variable_3'
p7427
aS'->'
p7428
aS'variable_42'
p7429
ag13
aS'if'
p7430
ag6
aS'variable_1'
p7431
aS'!='
p7432
aS'variable_2'
p7433
ag13
aS'if'
p7434
ag6
aS'func_6'
p7435
ag6
aS'variable_3'
p7436
aS'->'
p7437
aS'variable_12'
p7438
aS'->'
p7439
aS'variable_58'
p7440
ag10
aS'16'
p7441
ag13
aS'=='
p7442
aS'variable_3'
p7443
aS'->'
p7444
aS'variable_58'
p7445
aS'&&'
p7446
aS'func_7'
p7447
ag6
aS'variable_3'
p7448
aS'->'
p7449
aS'variable_12'
p7450
aS'->'
p7451
aS'variable_59'
p7452
ag10
aS'16'
p7453
ag8
ag6
ag222
ag223
aS'variable_1'
p7454
aS'->'
p7455
aS'variable_36'
p7456
ag63
aS'variable_46'
p7457
ag13
ag13
aS'=='
p7458
aS'variable_3'
p7459
aS'->'
p7460
aS'variable_59'
p7461
aS'&&'
p7462
ag52
aS'variable_1'
p7463
aS'->'
p7464
aS'variable_36'
p7465
ag63
aS'variable_61'
p7466
aS'&&'
p7467
ag52
aS'variable_1'
p7468
aS'->'
p7469
aS'variable_36'
p7470
ag63
aS'variable_62'
p7471
aS'&&'
p7472
ag6
aS'variable_3'
p7473
aS'->'
p7474
aS'variable_12'
p7475
aS'->'
p7476
aS'variable_58'
p7477
aS'!='
p7478
aS'variable_3'
p7479
aS'->'
p7480
aS'variable_58'
p7481
aS'||'
p7482
aS'variable_3'
p7483
aS'->'
p7484
aS'variable_12'
p7485
aS'->'
p7486
aS'variable_59'
p7487
aS'&&'
p7488
aS'variable_3'
p7489
aS'->'
p7490
aS'variable_59'
p7491
ag13
ag13
aS'variable_3'
p7492
aS'->'
p7493
aS'variable_12'
p7494
aS'->'
p7495
aS'variable_58'
p7496
aS'-='
p7497
ag6
ag222
aS'>>'
p7498
aS'variable_63'
p7499
ag13
ag8
aS'func_8'
p7500
ag6
aS'variable_1'
p7501
aS'->'
p7502
aS'variable_36'
p7503
ag63
aS'variable_61'
p7504
ag10
ag6
ag412
aS'<<'
p7505
aS'variable_63'
p7506
ag13
ag223
ag310
ag13
ag29
aS'variable_3'
p7507
aS'->'
p7508
aS'variable_12'
p7509
aS'->'
p7510
aS'variable_59'
p7511
aS'-='
p7512
ag6
ag310
aS'<<'
p7513
aS'variable_3'
p7514
aS'->'
p7515
aS'variable_57'
p7516
ag13
ag8
aS'func_9'
p7517
ag6
aS'variable_1'
p7518
aS'->'
p7519
aS'variable_36'
p7520
ag63
aS'variable_62'
p7521
ag10
ag6
aS'16'
p7522
aS'>>'
p7523
aS'variable_3'
p7524
aS'->'
p7525
aS'variable_57'
p7526
ag13
ag223
ag310
ag13
ag8
ag6
ag222
ag223
aS'variable_1'
p7527
aS'->'
p7528
aS'variable_36'
p7529
ag63
aS'variable_46'
p7530
ag13
ag29
aS'variable_3'
p7531
aS'->'
p7532
aS'variable_12'
p7533
aS'->'
p7534
aS'variable_53'
p7535
ag17
aS'variable_1'
p7536
aS'->'
p7537
aS'variable_36'
p7538
ag63
aS'variable_52'
p7539
ag29
aS'if'
p7540
ag6
aS'variable_3'
p7541
aS'->'
p7542
aS'variable_12'
p7543
aS'->'
p7544
aS'variable_64'
p7545
aS'->'
p7546
aS'variable_65'
p7547
ag18
aS'variable_66'
p7548
aS'&&'
p7549
ag6
aS'variable_1'
p7550
aS'->'
p7551
aS'variable_36'
p7552
ag63
aS'variable_49'
p7553
aS'!='
p7554
ag412
aS'||'
p7555
aS'variable_1'
p7556
aS'->'
p7557
aS'variable_36'
p7558
ag63
aS'variable_51'
p7559
ag104
ag310
ag13
ag13
aS'if'
p7560
ag6
aS'variable_3'
p7561
aS'->'
p7562
aS'variable_12'
p7563
aS'->'
p7564
aS'variable_48'
p7565
aS'!='
p7566
aS'variable_1'
p7567
aS'->'
p7568
aS'variable_36'
p7569
ag63
aS'variable_49'
p7570
aS'||'
p7571
aS'variable_1'
p7572
aS'->'
p7573
aS'variable_50'
p7574
aS'!='
p7575
aS'variable_1'
p7576
aS'->'
p7577
aS'variable_36'
p7578
ag63
aS'variable_51'
p7579
ag13
aS'if'
p7580
ag6
aS'variable_1'
p7581
aS'->'
p7582
aS'variable_36'
p7583
ag63
aS'variable_49'
p7584
ag104
ag17
ag412
aS'&&'
p7585
aS'variable_1'
p7586
aS'->'
p7587
aS'variable_36'
p7588
ag63
aS'variable_49'
p7589
ag309
ag17
aS'14'
p7590
aS'&&'
p7591
aS'variable_1'
p7592
aS'->'
p7593
aS'variable_36'
p7594
ag63
aS'variable_49'
p7595
aS'!='
p7596
aS'11'
p7597
aS'&&'
p7598
aS'variable_1'
p7599
aS'->'
p7600
aS'variable_36'
p7601
ag63
aS'variable_49'
p7602
aS'!='
p7603
aS'13'
p7604
aS'&&'
p7605
ag6
aS'variable_1'
p7606
aS'->'
p7607
aS'variable_36'
p7608
ag63
aS'variable_49'
p7609
aS'!='
p7610
ag105
aS'||'
p7611
ag52
aS'variable_67'
p7612
ag13
ag13
aS'variable_3'
p7613
aS'->'
p7614
aS'variable_12'
p7615
aS'->'
p7616
aS'variable_48'
p7617
ag17
aS'variable_1'
p7618
aS'->'
p7619
aS'variable_36'
p7620
ag63
aS'variable_49'
p7621
ag29
aS'variable_1'
p7622
aS'->'
p7623
aS'variable_50'
p7624
ag17
aS'variable_1'
p7625
aS'->'
p7626
aS'variable_36'
p7627
ag63
aS'variable_51'
p7628
ag29
aS'variable_1'
p7629
aS'->'
p7630
aS'variable_16'
p7631
ag17
aS'variable_1'
p7632
aS'->'
p7633
aS'variable_36'
p7634
ag63
aS'variable_49'
p7635
ag104
ag412
ag29
aS'variable_3'
p7636
aS'->'
p7637
aS'variable_19'
p7638
ag63
aS'variable_68'
p7639
ag17
aS'variable_1'
p7640
aS'->'
p7641
aS'variable_36'
p7642
ag63
aS'variable_49'
p7643
ag104
ag412
ag552
aS'32'
p7644
ag554
aS'16'
p7645
ag29
aS'if'
p7646
ag6
aS'variable_1'
p7647
aS'->'
p7648
aS'variable_36'
p7649
ag63
aS'variable_69'
p7650
ag13
aS'variable_3'
p7651
aS'->'
p7652
aS'variable_12'
p7653
aS'->'
p7654
aS'variable_70'
p7655
ag17
aS'variable_1'
p7656
aS'->'
p7657
aS'variable_36'
p7658
ag63
aS'variable_71'
p7659
ag104
ag85
ag552
aS'variable_72'
p7660
ag554
aS'variable_73'
p7661
ag29
aS'if'
p7662
ag6
aS'variable_1'
p7663
aS'->'
p7664
aS'variable_36'
p7665
ag63
aS'variable_74'
p7666
ag13
aS'variable_3'
p7667
aS'->'
p7668
aS'variable_12'
p7669
aS'->'
p7670
aS'variable_75'
p7671
ag17
aS'variable_1'
p7672
aS'->'
p7673
aS'variable_36'
p7674
ag63
aS'variable_75'
p7675
ag29
aS'variable_3'
p7676
aS'->'
p7677
aS'variable_12'
p7678
aS'->'
p7679
aS'variable_76'
p7680
ag17
aS'variable_1'
p7681
aS'->'
p7682
aS'variable_36'
p7683
ag63
aS'variable_76'
p7684
ag29
aS'variable_3'
p7685
aS'->'
p7686
aS'variable_12'
p7687
aS'->'
p7688
aS'variable_77'
p7689
ag17
aS'variable_1'
p7690
aS'->'
p7691
aS'variable_36'
p7692
ag63
aS'variable_77'
p7693
ag29
aS'switch'
p7694
ag6
aS'variable_1'
p7695
aS'->'
p7696
aS'variable_36'
p7697
ag63
aS'variable_49'
p7698
ag13
aS'if'
p7699
ag6
aS'variable_63'
p7700
ag13
aS'if'
p7701
ag6
aS'variable_3'
p7702
aS'->'
p7703
aS'variable_12'
p7704
aS'->'
p7705
aS'variable_77'
p7706
aS'=='
p7707
aS'variable_78'
p7708
ag13
aS'variable_3'
p7709
aS'->'
p7710
aS'variable_12'
p7711
aS'->'
p7712
aS'variable_79'
p7713
ag17
aS'variable_80'
p7714
ag29
aS'variable_3'
p7715
aS'->'
p7716
aS'variable_12'
p7717
aS'->'
p7718
aS'variable_79'
p7719
ag17
aS'variable_81'
p7720
ag29
aS'if'
p7721
ag6
aS'variable_67'
p7722
ag13
aS'variable_3'
p7723
aS'->'
p7724
aS'variable_12'
p7725
aS'->'
p7726
aS'variable_79'
p7727
ag17
aS'variable_82'
p7728
ag29
aS'variable_3'
p7729
aS'->'
p7730
aS'variable_12'
p7731
aS'->'
p7732
aS'variable_79'
p7733
ag17
aS'variable_83'
p7734
ag29
aS'if'
p7735
ag6
aS'variable_63'
p7736
ag13
aS'if'
p7737
ag6
aS'variable_3'
p7738
aS'->'
p7739
aS'variable_12'
p7740
aS'->'
p7741
aS'variable_77'
p7742
aS'=='
p7743
aS'variable_78'
p7744
ag13
aS'variable_3'
p7745
aS'->'
p7746
aS'variable_12'
p7747
aS'->'
p7748
aS'variable_79'
p7749
ag17
aS'variable_84'
p7750
ag29
aS'variable_3'
p7751
aS'->'
p7752
aS'variable_12'
p7753
aS'->'
p7754
aS'variable_79'
p7755
ag17
aS'variable_85'
p7756
ag29
aS'if'
p7757
ag6
aS'variable_67'
p7758
ag13
aS'variable_3'
p7759
aS'->'
p7760
aS'variable_12'
p7761
aS'->'
p7762
aS'variable_79'
p7763
ag17
aS'variable_86'
p7764
ag29
aS'variable_3'
p7765
aS'->'
p7766
aS'variable_12'
p7767
aS'->'
p7768
aS'variable_79'
p7769
ag17
aS'variable_87'
p7770
ag29
aS'if'
p7771
ag6
aS'variable_63'
p7772
ag13
aS'if'
p7773
ag6
aS'variable_3'
p7774
aS'->'
p7775
aS'variable_12'
p7776
aS'->'
p7777
aS'variable_77'
p7778
aS'=='
p7779
aS'variable_78'
p7780
ag13
aS'variable_3'
p7781
aS'->'
p7782
aS'variable_12'
p7783
aS'->'
p7784
aS'variable_79'
p7785
ag17
aS'variable_88'
p7786
ag29
aS'variable_3'
p7787
aS'->'
p7788
aS'variable_12'
p7789
aS'->'
p7790
aS'variable_79'
p7791
ag17
aS'variable_89'
p7792
ag29
aS'if'
p7793
ag6
aS'variable_67'
p7794
ag13
aS'variable_3'
p7795
aS'->'
p7796
aS'variable_12'
p7797
aS'->'
p7798
aS'variable_79'
p7799
ag17
aS'variable_90'
p7800
ag29
aS'variable_3'
p7801
aS'->'
p7802
aS'variable_12'
p7803
aS'->'
p7804
aS'variable_79'
p7805
ag17
aS'variable_91'
p7806
ag29
aS'if'
p7807
ag6
aS'variable_63'
p7808
ag13
aS'if'
p7809
ag6
aS'variable_3'
p7810
aS'->'
p7811
aS'variable_12'
p7812
aS'->'
p7813
aS'variable_77'
p7814
aS'=='
p7815
aS'variable_78'
p7816
ag13
aS'variable_3'
p7817
aS'->'
p7818
aS'variable_12'
p7819
aS'->'
p7820
aS'variable_79'
p7821
ag17
aS'variable_92'
p7822
ag29
aS'variable_3'
p7823
aS'->'
p7824
aS'variable_12'
p7825
aS'->'
p7826
aS'variable_79'
p7827
ag17
aS'variable_93'
p7828
ag29
aS'if'
p7829
ag6
aS'variable_67'
p7830
ag13
aS'variable_3'
p7831
aS'->'
p7832
aS'variable_12'
p7833
aS'->'
p7834
aS'variable_79'
p7835
ag17
aS'variable_94'
p7836
ag29
aS'variable_3'
p7837
aS'->'
p7838
aS'variable_12'
p7839
aS'->'
p7840
aS'variable_79'
p7841
ag17
aS'variable_95'
p7842
ag29
aS'if'
p7843
ag6
aS'variable_63'
p7844
ag13
aS'variable_3'
p7845
aS'->'
p7846
aS'variable_12'
p7847
aS'->'
p7848
aS'variable_79'
p7849
ag17
aS'variable_3'
p7850
aS'->'
p7851
aS'variable_12'
p7852
aS'->'
p7853
aS'variable_70'
p7854
aS'=='
p7855
aS'variable_72'
p7856
ag552
aS'variable_96'
p7857
ag554
aS'variable_97'
p7858
ag29
aS'if'
p7859
ag6
aS'variable_3'
p7860
aS'->'
p7861
aS'variable_12'
p7862
aS'->'
p7863
aS'variable_77'
p7864
aS'=='
p7865
aS'variable_78'
p7866
ag13
aS'variable_3'
p7867
aS'->'
p7868
aS'variable_12'
p7869
aS'->'
p7870
aS'variable_79'
p7871
ag17
aS'variable_98'
p7872
ag29
aS'if'
p7873
ag6
aS'variable_67'
p7874
ag13
aS'variable_3'
p7875
aS'->'
p7876
aS'variable_12'
p7877
aS'->'
p7878
aS'variable_79'
p7879
ag17
aS'variable_3'
p7880
aS'->'
p7881
aS'variable_12'
p7882
aS'->'
p7883
aS'variable_70'
p7884
aS'=='
p7885
aS'variable_72'
p7886
ag552
aS'variable_99'
p7887
ag554
aS'variable_100'
p7888
ag29
aS'variable_3'
p7889
aS'->'
p7890
aS'variable_12'
p7891
aS'->'
p7892
aS'variable_79'
p7893
ag17
aS'variable_3'
p7894
aS'->'
p7895
aS'variable_12'
p7896
aS'->'
p7897
aS'func_10'
p7898
ag6
aS'variable_3'
p7899
aS'->'
p7900
aS'variable_12'
p7901
ag10
aS'variable_3'
p7902
aS'->'
p7903
aS'variable_12'
p7904
aS'->'
p7905
aS'variable_64'
p7906
aS'->'
p7907
aS'variable_101'
p7908
ag552
aS'variable_3'
p7909
aS'->'
p7910
aS'variable_12'
p7911
aS'->'
p7912
aS'variable_64'
p7913
aS'->'
p7914
aS'variable_101'
p7915
ag554
aS'variable_3'
p7916
aS'->'
p7917
aS'variable_12'
p7918
aS'->'
p7919
aS'variable_70'
p7920
aS'=='
p7921
aS'variable_72'
p7922
ag552
aS'variable_102'
p7923
ag554
aS'variable_103'
p7924
ag13
ag29
aS'variable_3'
p7925
aS'->'
p7926
aS'variable_12'
p7927
aS'->'
p7928
aS'variable_104'
p7929
ag17
aS'func_11'
p7930
ag6
aS'variable_3'
p7931
aS'->'
p7932
aS'variable_12'
p7933
aS'->'
p7934
aS'variable_64'
p7935
aS'->'
p7936
aS'variable_105'
p7937
ag10
aS'variable_3'
p7938
aS'->'
p7939
aS'variable_12'
p7940
aS'->'
p7941
aS'variable_79'
p7942
ag13
ag29
aS'if'
p7943
ag6
aS'func_12'
p7944
ag6
aS'variable_3'
p7945
ag13
ag309
ag85
ag13
aS'variable_3'
p7946
aS'->'
p7947
aS'variable_25'
p7948
ag17
ag85
ag29
aS'variable_1'
p7949
aS'->'
p7950
aS'variable_106'
p7951
ag17
ag310
ag29
aS'if'
p7952
ag6
aS'func_13'
p7953
ag6
aS'variable_1'
p7954
ag13
ag309
ag85
ag13
aS'if'
p7955
ag6
ag52
aS'variable_107'
p7956
aS'||'
p7957
ag52
ag6
aS'variable_3'
p7958
aS'->'
p7959
aS'variable_12'
p7960
aS'->'
p7961
aS'variable_54'
p7962
ag18
aS'variable_108'
p7963
ag13
ag13
aS'if'
p7964
ag6
aS'func_14'
p7965
ag6
aS'variable_1'
p7966
ag13
ag309
ag85
ag13
aS'for'
p7967
ag6
aS'variable_9'
p7968
ag17
ag310
ag29
aS'variable_9'
p7969
ag309
aS'variable_3'
p7970
aS'->'
p7971
aS'variable_109'
p7972
ag29
aS'variable_9'
p7973
aS'++'
p7974
ag13
aS'variable_0'
p7975
ag8
aS'variable_110'
p7976
ag29
aS'variable_110'
p7977
ag17
aS'variable_1'
p7978
aS'->'
p7979
aS'variable_111'
p7980
ag117
aS'variable_9'
p7981
ag119
ag17
aS'func_15'
p7982
ag6
aS'sizeof'
p7983
ag6
aS'variable_0'
p7984
ag13
ag13
ag29
aS'for'
p7985
ag6
aS'variable_9'
p7986
ag17
ag85
ag29
aS'variable_9'
p7987
ag309
aS'variable_3'
p7988
aS'->'
p7989
aS'variable_109'
p7990
ag29
aS'variable_9'
p7991
aS'++'
p7992
ag13
aS'if'
p7993
ag6
aS'func_16'
p7994
ag6
aS'variable_1'
p7995
aS'->'
p7996
aS'variable_111'
p7997
ag117
aS'variable_9'
p7998
ag119
ag13
ag309
ag85
ag13
aS'if'
p7999
ag6
aS'variable_1'
p8000
aS'=='
p8001
aS'variable_2'
p8002
aS'&&'
p8003
aS'variable_1'
p8004
aS'->'
p8005
aS'variable_112'
p8006
aS'!='
p8007
aS'variable_6'
p8008
ag13
aS'variable_1'
p8009
aS'->'
p8010
aS'variable_112'
p8011
ag17
aS'variable_6'
p8012
ag29
aS'variable_1'
p8013
aS'->'
p8014
aS'variable_113'
p8015
ag17
aS'func_17'
p8016
ag6
ag18
aS'variable_3'
p8017
aS'->'
p8018
aS'variable_23'
p8019
ag10
aS'variable_1'
p8020
aS'->'
p8021
aS'variable_36'
p8022
ag63
aS'variable_114'
p8023
ag13
ag29
aS'variable_1'
p8024
aS'->'
p8025
aS'variable_115'
p8026
ag17
ag85
ag29
aS'variable_1'
p8027
aS'->'
p8028
aS'variable_116'
p8029
ag17
ag85
ag29
aS'if'
p8030
ag6
aS'variable_1'
p8031
aS'->'
p8032
aS'variable_36'
p8033
ag63
aS'variable_46'
p8034
ag13
aS'if'
p8035
ag6
ag52
aS'variable_1'
p8036
aS'->'
p8037
aS'variable_36'
p8038
ag63
aS'variable_117'
p8039
aS'&&'
p8040
aS'variable_7'
p8041
aS'=='
p8042
aS'variable_118'
p8043
ag13
aS'if'
p8044
ag6
aS'variable_2'
p8045
aS'->'
p8046
aS'variable_24'
p8047
aS'!='
p8048
ag85
ag13
aS'if'
p8049
ag6
aS'variable_4'
p8050
aS'->'
p8051
aS'variable_25'
p8052
ag13
aS'assert'
p8053
ag6
aS'variable_4'
p8054
aS'->'
p8055
aS'variable_26'
p8056
aS'->'
p8057
aS'variable_119'
p8058
ag63
aS'variable_120'
p8059
ag117
ag85
ag119
ag13
ag29
aa(lp8060
S'static'
p8061
aS'int'
p8062
aS'func_0'
p8063
ag6
aS'variable_0'
p8064
ag8
aS'variable_1'
p8065
ag10
aS'variable_0'
p8066
ag8
aS'variable_2'
p8067
ag13
aS'MpegEncContext'
p8068
ag8
aS'const'
p8069
aS'variable_3'
p8070
ag17
ag18
aS'variable_1'
p8071
aS'->'
p8072
aS'MpegEncContext'
p8073
ag8
aS'const'
p8074
aS'variable_4'
p8075
ag17
ag18
aS'variable_2'
p8076
aS'->'
p8077
aS'unsigned'
p8078
aS'int'
p8079
aS'variable_5'
p8080
ag29
aS'unsigned'
p8081
aS'int'
p8082
aS'variable_6'
p8083
ag29
aS'unsigned'
p8084
aS'int'
p8085
aS'variable_7'
p8086
ag10
aS'variable_8'
p8087
ag10
aS'variable_9'
p8088
ag10
aS'variable_10'
p8089
ag29
aS'int'
p8090
aS'variable_11'
p8091
ag29
aS'if'
p8092
ag6
ag6
aS'variable_3'
p8093
aS'->'
p8094
aS'variable_12'
p8095
aS'->'
p8096
aS'variable_13'
p8097
ag18
aS'variable_14'
p8098
ag13
aS'&&'
p8099
ag52
aS'variable_1'
p8100
aS'->'
p8101
aS'variable_15'
p8102
aS'&&'
p8103
ag52
aS'variable_1'
p8104
aS'->'
p8105
aS'variable_16'
p8106
ag13
aS'variable_3'
p8107
aS'->'
p8108
aS'variable_17'
p8109
ag63
aS'variable_18'
p8110
ag17
aS'variable_3'
p8111
aS'->'
p8112
aS'variable_19'
p8113
ag63
aS'variable_20'
p8114
ag29
aS'variable_3'
p8115
aS'->'
p8116
aS'variable_17'
p8117
ag63
aS'variable_21'
p8118
ag17
aS'variable_3'
p8119
aS'->'
p8120
aS'variable_19'
p8121
ag63
aS'variable_22'
p8122
ag29
aS'variable_5'
p8123
ag17
aS'func_1'
p8124
ag6
ag18
aS'variable_3'
p8125
aS'->'
p8126
aS'variable_23'
p8127
ag13
ag29
aS'if'
p8128
ag6
aS'variable_5'
p8129
aS'=='
p8130
ag85
ag13
aS'variable_2'
p8131
aS'->'
p8132
aS'variable_24'
p8133
ag17
ag85
ag29
aS'if'
p8134
ag6
ag52
aS'variable_4'
p8135
aS'->'
p8136
aS'variable_25'
p8137
ag13
aS'variable_3'
p8138
aS'->'
p8139
aS'variable_26'
p8140
ag17
aS'NULL'
p8141
ag29
aS'variable_7'
p8142
ag17
aS'func_2'
p8143
ag6
ag18
aS'variable_3'
p8144
aS'->'
p8145
aS'variable_23'
p8146
ag13
ag29
aS'if'
p8147
ag6
aS'variable_7'
p8148
ag104
ag105
ag13
aS'if'
p8149
ag6
aS'variable_7'
p8150
ag104
ag108
ag13
aS'variable_7'
p8151
aS'-='
p8152
ag111
ag29
aS'variable_1'
p8153
aS'->'
p8154
aS'variable_27'
p8155
ag17
ag85
ag29
aS'variable_7'
p8156
ag17
aS'variable_28'
p8157
ag117
aS'variable_7'
p8158
ag119
ag29
aS'variable_1'
p8159
aS'->'
p8160
aS'variable_7'
p8161
ag17
aS'variable_7'
p8162
ag29
aS'variable_1'
p8163
aS'->'
p8164
aS'variable_29'
p8165
ag17
aS'variable_7'
p8166
ag18
ag128
ag29
aS'variable_3'
p8167
aS'->'
p8168
aS'variable_30'
p8169
ag17
aS'variable_1'
p8170
aS'->'
p8171
aS'variable_7'
p8172
ag29
aS'variable_6'
p8173
ag17
aS'func_3'
p8174
ag6
ag18
aS'variable_3'
p8175
aS'->'
p8176
aS'variable_23'
p8177
ag13
ag29
aS'if'
p8178
ag6
aS'variable_6'
p8179
ag104
ag17
aS'variable_31'
p8180
ag13
aS'if'
p8181
ag6
ag52
aS'variable_2'
p8182
aS'->'
p8183
aS'variable_32'
p8184
ag117
aS'variable_6'
p8185
ag119
ag13
aS'variable_1'
p8186
aS'->'
p8187
aS'variable_33'
p8188
ag17
ag8
aS'variable_2'
p8189
aS'->'
p8190
aS'variable_32'
p8191
ag117
aS'variable_6'
p8192
ag119
ag29
aS'if'
p8193
ag6
ag52
aS'variable_2'
p8194
aS'->'
p8195
aS'variable_34'
p8196
ag117
aS'variable_1'
p8197
aS'->'
p8198
aS'variable_33'
p8199
ag63
aS'variable_35'
p8200
ag119
ag13
aS'variable_1'
p8201
aS'->'
p8202
aS'variable_36'
p8203
ag17
ag8
aS'variable_2'
p8204
aS'->'
p8205
aS'variable_34'
p8206
ag117
aS'variable_1'
p8207
aS'->'
p8208
aS'variable_33'
p8209
ag63
aS'variable_35'
p8210
ag119
ag29
aS'variable_3'
p8211
aS'->'
p8212
aS'variable_12'
p8213
aS'->'
p8214
aS'variable_37'
p8215
ag17
aS'func_4'
p8216
ag6
ag18
aS'variable_1'
p8217
aS'->'
p8218
aS'variable_36'
p8219
ag13
ag29
aS'variable_3'
p8220
aS'->'
p8221
aS'variable_12'
p8222
aS'->'
p8223
aS'variable_38'
p8224
ag17
aS'variable_1'
p8225
aS'->'
p8226
aS'variable_36'
p8227
ag63
aS'variable_39'
p8228
ag29
aS'variable_3'
p8229
aS'->'
p8230
aS'variable_12'
p8231
aS'->'
p8232
aS'variable_40'
p8233
ag17
aS'variable_1'
p8234
aS'->'
p8235
aS'variable_36'
p8236
ag63
aS'variable_41'
p8237
ag29
aS'variable_11'
p8238
ag17
ag6
aS'variable_3'
p8239
aS'->'
p8240
aS'variable_42'
p8241
aS'&&'
p8242
ag6
aS'16'
p8243
ag8
aS'variable_1'
p8244
aS'->'
p8245
aS'variable_36'
p8246
ag63
aS'variable_43'
p8247
aS'!='
p8248
aS'variable_3'
p8249
aS'->'
p8250
aS'variable_12'
p8251
aS'->'
p8252
aS'variable_44'
p8253
aS'||'
p8254
aS'16'
p8255
ag8
aS'variable_1'
p8256
aS'->'
p8257
aS'variable_36'
p8258
ag63
aS'variable_45'
p8259
ag8
ag6
ag222
ag223
aS'variable_1'
p8260
aS'->'
p8261
aS'variable_36'
p8262
ag63
aS'variable_46'
p8263
ag13
aS'!='
p8264
aS'variable_3'
p8265
aS'->'
p8266
aS'variable_12'
p8267
aS'->'
p8268
aS'variable_47'
p8269
aS'||'
p8270
aS'variable_3'
p8271
aS'->'
p8272
aS'variable_12'
p8273
aS'->'
p8274
aS'variable_48'
p8275
aS'!='
p8276
aS'variable_1'
p8277
aS'->'
p8278
aS'variable_36'
p8279
ag63
aS'variable_49'
p8280
aS'||'
p8281
aS'variable_1'
p8282
aS'->'
p8283
aS'variable_50'
p8284
aS'!='
p8285
aS'variable_1'
p8286
aS'->'
p8287
aS'variable_36'
p8288
ag63
aS'variable_51'
p8289
aS'||'
p8290
aS'func_5'
p8291
ag6
aS'variable_1'
p8292
aS'->'
p8293
aS'variable_36'
p8294
ag63
aS'variable_52'
p8295
ag10
aS'variable_3'
p8296
aS'->'
p8297
aS'variable_12'
p8298
aS'->'
p8299
aS'variable_53'
p8300
ag13
ag13
ag13
ag29
aS'if'
p8301
ag6
aS'variable_11'
p8302
aS'&&'
p8303
ag6
aS'variable_1'
p8304
aS'!='
p8305
aS'variable_2'
p8306
aS'||'
p8307
ag6
aS'variable_3'
p8308
aS'->'
p8309
aS'variable_12'
p8310
aS'->'
p8311
aS'variable_54'
p8312
ag18
aS'variable_55'
p8313
ag13
ag13
ag13
aS'variable_3'
p8314
aS'->'
p8315
aS'variable_43'
p8316
ag17
aS'variable_1'
p8317
aS'->'
p8318
aS'variable_36'
p8319
ag63
aS'variable_43'
p8320
ag29
aS'variable_3'
p8321
aS'->'
p8322
aS'variable_45'
p8323
ag17
aS'variable_1'
p8324
aS'->'
p8325
aS'variable_36'
p8326
ag63
aS'variable_45'
p8327
ag8
ag6
ag222
ag223
aS'variable_1'
p8328
aS'->'
p8329
aS'variable_36'
p8330
ag63
aS'variable_46'
p8331
ag13
ag29
aS'variable_1'
p8332
aS'->'
p8333
aS'variable_56'
p8334
ag17
aS'variable_3'
p8335
aS'->'
p8336
aS'variable_43'
p8337
ag8
ag108
ag29
aS'variable_3'
p8338
aS'->'
p8339
aS'variable_57'
p8340
ag17
aS'variable_1'
p8341
aS'->'
p8342
aS'variable_36'
p8343
ag63
aS'variable_51'
p8344
ag309
ag17
ag310
ag29
aS'variable_3'
p8345
aS'->'
p8346
aS'variable_58'
p8347
ag17
aS'16'
p8348
ag8
aS'variable_3'
p8349
aS'->'
p8350
aS'variable_43'
p8351
ag29
aS'variable_3'
p8352
aS'->'
p8353
aS'variable_59'
p8354
ag17
aS'16'
p8355
ag8
aS'variable_3'
p8356
aS'->'
p8357
aS'variable_45'
p8358
ag29
aS'if'
p8359
ag6
aS'variable_11'
p8360
ag13
aS'variable_1'
p8361
aS'->'
p8362
aS'variable_60'
p8363
ag17
ag85
ag29
aS'variable_1'
p8364
aS'->'
p8365
aS'variable_24'
p8366
ag17
ag85
ag29
aS'if'
p8367
ag6
ag52
aS'variable_3'
p8368
aS'->'
p8369
aS'variable_42'
p8370
ag13
aS'if'
p8371
ag6
aS'variable_1'
p8372
aS'!='
p8373
aS'variable_2'
p8374
ag13
aS'if'
p8375
ag6
aS'func_6'
p8376
ag6
aS'variable_3'
p8377
aS'->'
p8378
aS'variable_12'
p8379
aS'->'
p8380
aS'variable_58'
p8381
ag10
aS'16'
p8382
ag13
aS'=='
p8383
aS'variable_3'
p8384
aS'->'
p8385
aS'variable_58'
p8386
aS'&&'
p8387
aS'func_7'
p8388
ag6
aS'variable_3'
p8389
aS'->'
p8390
aS'variable_12'
p8391
aS'->'
p8392
aS'variable_59'
p8393
ag10
aS'16'
p8394
ag8
ag6
ag222
ag223
aS'variable_1'
p8395
aS'->'
p8396
aS'variable_36'
p8397
ag63
aS'variable_46'
p8398
ag13
ag13
aS'=='
p8399
aS'variable_3'
p8400
aS'->'
p8401
aS'variable_59'
p8402
aS'&&'
p8403
ag52
aS'variable_1'
p8404
aS'->'
p8405
aS'variable_36'
p8406
ag63
aS'variable_61'
p8407
aS'&&'
p8408
ag52
aS'variable_1'
p8409
aS'->'
p8410
aS'variable_36'
p8411
ag63
aS'variable_62'
p8412
aS'&&'
p8413
ag6
aS'variable_3'
p8414
aS'->'
p8415
aS'variable_12'
p8416
aS'->'
p8417
aS'variable_58'
p8418
aS'!='
p8419
aS'variable_3'
p8420
aS'->'
p8421
aS'variable_58'
p8422
aS'||'
p8423
aS'variable_3'
p8424
aS'->'
p8425
aS'variable_12'
p8426
aS'->'
p8427
aS'variable_59'
p8428
aS'&&'
p8429
aS'variable_3'
p8430
aS'->'
p8431
aS'variable_59'
p8432
ag13
ag13
aS'variable_3'
p8433
aS'->'
p8434
aS'variable_12'
p8435
aS'->'
p8436
aS'variable_58'
p8437
aS'-='
p8438
ag6
ag222
aS'>>'
p8439
aS'variable_63'
p8440
ag13
ag8
aS'func_8'
p8441
ag6
aS'variable_1'
p8442
aS'->'
p8443
aS'variable_36'
p8444
ag63
aS'variable_61'
p8445
ag10
ag6
ag412
aS'<<'
p8446
aS'variable_63'
p8447
ag13
ag223
ag310
ag13
ag29
aS'variable_3'
p8448
aS'->'
p8449
aS'variable_12'
p8450
aS'->'
p8451
aS'variable_59'
p8452
aS'-='
p8453
ag6
ag310
aS'<<'
p8454
aS'variable_3'
p8455
aS'->'
p8456
aS'variable_57'
p8457
ag13
ag8
aS'func_9'
p8458
ag6
aS'variable_1'
p8459
aS'->'
p8460
aS'variable_36'
p8461
ag63
aS'variable_62'
p8462
ag10
ag6
aS'16'
p8463
aS'>>'
p8464
aS'variable_3'
p8465
aS'->'
p8466
aS'variable_57'
p8467
ag13
ag223
ag310
ag13
ag8
ag6
ag222
ag223
aS'variable_1'
p8468
aS'->'
p8469
aS'variable_36'
p8470
ag63
aS'variable_46'
p8471
ag13
ag29
aS'variable_3'
p8472
aS'->'
p8473
aS'variable_12'
p8474
aS'->'
p8475
aS'variable_53'
p8476
ag17
aS'variable_1'
p8477
aS'->'
p8478
aS'variable_36'
p8479
ag63
aS'variable_52'
p8480
ag29
aS'if'
p8481
ag6
aS'variable_3'
p8482
aS'->'
p8483
aS'variable_12'
p8484
aS'->'
p8485
aS'variable_64'
p8486
aS'->'
p8487
aS'variable_65'
p8488
ag18
aS'variable_66'
p8489
aS'&&'
p8490
ag6
aS'variable_1'
p8491
aS'->'
p8492
aS'variable_36'
p8493
ag63
aS'variable_49'
p8494
aS'!='
p8495
ag412
aS'||'
p8496
aS'variable_1'
p8497
aS'->'
p8498
aS'variable_36'
p8499
ag63
aS'variable_51'
p8500
ag104
ag310
ag13
ag13
aS'if'
p8501
ag6
aS'variable_3'
p8502
aS'->'
p8503
aS'variable_12'
p8504
aS'->'
p8505
aS'variable_48'
p8506
aS'!='
p8507
aS'variable_1'
p8508
aS'->'
p8509
aS'variable_36'
p8510
ag63
aS'variable_49'
p8511
aS'||'
p8512
aS'variable_1'
p8513
aS'->'
p8514
aS'variable_50'
p8515
aS'!='
p8516
aS'variable_1'
p8517
aS'->'
p8518
aS'variable_36'
p8519
ag63
aS'variable_51'
p8520
ag13
aS'if'
p8521
ag6
aS'variable_1'
p8522
aS'->'
p8523
aS'variable_36'
p8524
ag63
aS'variable_49'
p8525
ag104
ag17
ag412
aS'&&'
p8526
aS'variable_1'
p8527
aS'->'
p8528
aS'variable_36'
p8529
ag63
aS'variable_49'
p8530
ag309
ag17
aS'14'
p8531
aS'&&'
p8532
aS'variable_1'
p8533
aS'->'
p8534
aS'variable_36'
p8535
ag63
aS'variable_49'
p8536
aS'!='
p8537
aS'11'
p8538
aS'&&'
p8539
aS'variable_1'
p8540
aS'->'
p8541
aS'variable_36'
p8542
ag63
aS'variable_49'
p8543
aS'!='
p8544
aS'13'
p8545
aS'&&'
p8546
ag6
aS'variable_1'
p8547
aS'->'
p8548
aS'variable_36'
p8549
ag63
aS'variable_49'
p8550
aS'!='
p8551
ag105
aS'||'
p8552
ag52
aS'variable_67'
p8553
ag13
ag13
aS'variable_3'
p8554
aS'->'
p8555
aS'variable_12'
p8556
aS'->'
p8557
aS'variable_48'
p8558
ag17
aS'variable_1'
p8559
aS'->'
p8560
aS'variable_36'
p8561
ag63
aS'variable_49'
p8562
ag29
aS'variable_1'
p8563
aS'->'
p8564
aS'variable_50'
p8565
ag17
aS'variable_1'
p8566
aS'->'
p8567
aS'variable_36'
p8568
ag63
aS'variable_51'
p8569
ag29
aS'variable_1'
p8570
aS'->'
p8571
aS'variable_16'
p8572
ag17
aS'variable_1'
p8573
aS'->'
p8574
aS'variable_36'
p8575
ag63
aS'variable_49'
p8576
ag104
ag412
ag29
aS'variable_3'
p8577
aS'->'
p8578
aS'variable_19'
p8579
ag63
aS'variable_68'
p8580
ag17
aS'variable_1'
p8581
aS'->'
p8582
aS'variable_36'
p8583
ag63
aS'variable_49'
p8584
ag104
ag412
ag552
aS'32'
p8585
ag554
aS'16'
p8586
ag29
aS'if'
p8587
ag6
aS'variable_1'
p8588
aS'->'
p8589
aS'variable_36'
p8590
ag63
aS'variable_69'
p8591
ag13
aS'variable_3'
p8592
aS'->'
p8593
aS'variable_12'
p8594
aS'->'
p8595
aS'variable_70'
p8596
ag17
aS'variable_1'
p8597
aS'->'
p8598
aS'variable_36'
p8599
ag63
aS'variable_71'
p8600
ag104
ag85
ag552
aS'variable_72'
p8601
ag554
aS'variable_73'
p8602
ag29
aS'if'
p8603
ag6
aS'variable_1'
p8604
aS'->'
p8605
aS'variable_36'
p8606
ag63
aS'variable_74'
p8607
ag13
aS'variable_3'
p8608
aS'->'
p8609
aS'variable_12'
p8610
aS'->'
p8611
aS'variable_75'
p8612
ag17
aS'variable_1'
p8613
aS'->'
p8614
aS'variable_36'
p8615
ag63
aS'variable_75'
p8616
ag29
aS'variable_3'
p8617
aS'->'
p8618
aS'variable_12'
p8619
aS'->'
p8620
aS'variable_76'
p8621
ag17
aS'variable_1'
p8622
aS'->'
p8623
aS'variable_36'
p8624
ag63
aS'variable_76'
p8625
ag29
aS'variable_3'
p8626
aS'->'
p8627
aS'variable_12'
p8628
aS'->'
p8629
aS'variable_77'
p8630
ag17
aS'variable_1'
p8631
aS'->'
p8632
aS'variable_36'
p8633
ag63
aS'variable_77'
p8634
ag29
aS'switch'
p8635
ag6
aS'variable_1'
p8636
aS'->'
p8637
aS'variable_36'
p8638
ag63
aS'variable_49'
p8639
ag13
aS'if'
p8640
ag6
aS'variable_63'
p8641
ag13
aS'if'
p8642
ag6
aS'variable_3'
p8643
aS'->'
p8644
aS'variable_12'
p8645
aS'->'
p8646
aS'variable_77'
p8647
aS'=='
p8648
aS'variable_78'
p8649
ag13
aS'variable_3'
p8650
aS'->'
p8651
aS'variable_12'
p8652
aS'->'
p8653
aS'variable_79'
p8654
ag17
aS'variable_80'
p8655
ag29
aS'variable_3'
p8656
aS'->'
p8657
aS'variable_12'
p8658
aS'->'
p8659
aS'variable_79'
p8660
ag17
aS'variable_81'
p8661
ag29
aS'if'
p8662
ag6
aS'variable_67'
p8663
ag13
aS'variable_3'
p8664
aS'->'
p8665
aS'variable_12'
p8666
aS'->'
p8667
aS'variable_79'
p8668
ag17
aS'variable_82'
p8669
ag29
aS'variable_3'
p8670
aS'->'
p8671
aS'variable_12'
p8672
aS'->'
p8673
aS'variable_79'
p8674
ag17
aS'variable_83'
p8675
ag29
aS'if'
p8676
ag6
aS'variable_63'
p8677
ag13
aS'if'
p8678
ag6
aS'variable_3'
p8679
aS'->'
p8680
aS'variable_12'
p8681
aS'->'
p8682
aS'variable_77'
p8683
aS'=='
p8684
aS'variable_78'
p8685
ag13
aS'variable_3'
p8686
aS'->'
p8687
aS'variable_12'
p8688
aS'->'
p8689
aS'variable_79'
p8690
ag17
aS'variable_84'
p8691
ag29
aS'variable_3'
p8692
aS'->'
p8693
aS'variable_12'
p8694
aS'->'
p8695
aS'variable_79'
p8696
ag17
aS'variable_85'
p8697
ag29
aS'if'
p8698
ag6
aS'variable_67'
p8699
ag13
aS'variable_3'
p8700
aS'->'
p8701
aS'variable_12'
p8702
aS'->'
p8703
aS'variable_79'
p8704
ag17
aS'variable_86'
p8705
ag29
aS'variable_3'
p8706
aS'->'
p8707
aS'variable_12'
p8708
aS'->'
p8709
aS'variable_79'
p8710
ag17
aS'variable_87'
p8711
ag29
aS'if'
p8712
ag6
aS'variable_63'
p8713
ag13
aS'if'
p8714
ag6
aS'variable_3'
p8715
aS'->'
p8716
aS'variable_12'
p8717
aS'->'
p8718
aS'variable_77'
p8719
aS'=='
p8720
aS'variable_78'
p8721
ag13
aS'variable_3'
p8722
aS'->'
p8723
aS'variable_12'
p8724
aS'->'
p8725
aS'variable_79'
p8726
ag17
aS'variable_88'
p8727
ag29
aS'variable_3'
p8728
aS'->'
p8729
aS'variable_12'
p8730
aS'->'
p8731
aS'variable_79'
p8732
ag17
aS'variable_89'
p8733
ag29
aS'if'
p8734
ag6
aS'variable_67'
p8735
ag13
aS'variable_3'
p8736
aS'->'
p8737
aS'variable_12'
p8738
aS'->'
p8739
aS'variable_79'
p8740
ag17
aS'variable_90'
p8741
ag29
aS'variable_3'
p8742
aS'->'
p8743
aS'variable_12'
p8744
aS'->'
p8745
aS'variable_79'
p8746
ag17
aS'variable_91'
p8747
ag29
aS'if'
p8748
ag6
aS'variable_63'
p8749
ag13
aS'if'
p8750
ag6
aS'variable_3'
p8751
aS'->'
p8752
aS'variable_12'
p8753
aS'->'
p8754
aS'variable_77'
p8755
aS'=='
p8756
aS'variable_78'
p8757
ag13
aS'variable_3'
p8758
aS'->'
p8759
aS'variable_12'
p8760
aS'->'
p8761
aS'variable_79'
p8762
ag17
aS'variable_92'
p8763
ag29
aS'variable_3'
p8764
aS'->'
p8765
aS'variable_12'
p8766
aS'->'
p8767
aS'variable_79'
p8768
ag17
aS'variable_93'
p8769
ag29
aS'if'
p8770
ag6
aS'variable_67'
p8771
ag13
aS'variable_3'
p8772
aS'->'
p8773
aS'variable_12'
p8774
aS'->'
p8775
aS'variable_79'
p8776
ag17
aS'variable_94'
p8777
ag29
aS'variable_3'
p8778
aS'->'
p8779
aS'variable_12'
p8780
aS'->'
p8781
aS'variable_79'
p8782
ag17
aS'variable_95'
p8783
ag29
aS'if'
p8784
ag6
aS'variable_63'
p8785
ag13
aS'variable_3'
p8786
aS'->'
p8787
aS'variable_12'
p8788
aS'->'
p8789
aS'variable_79'
p8790
ag17
aS'variable_3'
p8791
aS'->'
p8792
aS'variable_12'
p8793
aS'->'
p8794
aS'variable_70'
p8795
aS'=='
p8796
aS'variable_72'
p8797
ag552
aS'variable_96'
p8798
ag554
aS'variable_97'
p8799
ag29
aS'if'
p8800
ag6
aS'variable_3'
p8801
aS'->'
p8802
aS'variable_12'
p8803
aS'->'
p8804
aS'variable_77'
p8805
aS'=='
p8806
aS'variable_78'
p8807
ag13
aS'variable_3'
p8808
aS'->'
p8809
aS'variable_12'
p8810
aS'->'
p8811
aS'variable_79'
p8812
ag17
aS'variable_98'
p8813
ag29
aS'if'
p8814
ag6
aS'variable_67'
p8815
ag13
aS'variable_3'
p8816
aS'->'
p8817
aS'variable_12'
p8818
aS'->'
p8819
aS'variable_79'
p8820
ag17
aS'variable_3'
p8821
aS'->'
p8822
aS'variable_12'
p8823
aS'->'
p8824
aS'variable_70'
p8825
aS'=='
p8826
aS'variable_72'
p8827
ag552
aS'variable_99'
p8828
ag554
aS'variable_100'
p8829
ag29
aS'variable_3'
p8830
aS'->'
p8831
aS'variable_12'
p8832
aS'->'
p8833
aS'variable_79'
p8834
ag17
aS'variable_3'
p8835
aS'->'
p8836
aS'variable_12'
p8837
aS'->'
p8838
aS'func_10'
p8839
ag6
aS'variable_3'
p8840
aS'->'
p8841
aS'variable_12'
p8842
ag10
aS'variable_3'
p8843
aS'->'
p8844
aS'variable_12'
p8845
aS'->'
p8846
aS'variable_64'
p8847
aS'->'
p8848
aS'variable_101'
p8849
ag552
aS'variable_3'
p8850
aS'->'
p8851
aS'variable_12'
p8852
aS'->'
p8853
aS'variable_64'
p8854
aS'->'
p8855
aS'variable_101'
p8856
ag554
aS'variable_3'
p8857
aS'->'
p8858
aS'variable_12'
p8859
aS'->'
p8860
aS'variable_70'
p8861
aS'=='
p8862
aS'variable_72'
p8863
ag552
aS'variable_102'
p8864
ag554
aS'variable_103'
p8865
ag13
ag29
aS'variable_3'
p8866
aS'->'
p8867
aS'variable_12'
p8868
aS'->'
p8869
aS'variable_104'
p8870
ag17
aS'func_11'
p8871
ag6
aS'variable_3'
p8872
aS'->'
p8873
aS'variable_12'
p8874
aS'->'
p8875
aS'variable_64'
p8876
aS'->'
p8877
aS'variable_105'
p8878
ag10
aS'variable_3'
p8879
aS'->'
p8880
aS'variable_12'
p8881
aS'->'
p8882
aS'variable_79'
p8883
ag13
ag29
aS'if'
p8884
ag6
aS'func_12'
p8885
ag6
aS'variable_3'
p8886
ag13
ag309
ag85
ag13
aS'variable_3'
p8887
aS'->'
p8888
aS'variable_25'
p8889
ag17
ag85
ag29
aS'variable_1'
p8890
aS'->'
p8891
aS'variable_106'
p8892
ag17
ag310
ag29
aS'if'
p8893
ag6
aS'func_13'
p8894
ag6
aS'variable_1'
p8895
ag13
ag309
ag85
ag13
aS'if'
p8896
ag6
ag52
aS'variable_107'
p8897
aS'||'
p8898
ag52
ag6
aS'variable_3'
p8899
aS'->'
p8900
aS'variable_12'
p8901
aS'->'
p8902
aS'variable_54'
p8903
ag18
aS'variable_108'
p8904
ag13
ag13
aS'if'
p8905
ag6
aS'func_14'
p8906
ag6
aS'variable_1'
p8907
ag13
ag309
ag85
ag13
aS'for'
p8908
ag6
aS'variable_9'
p8909
ag17
ag310
ag29
aS'variable_9'
p8910
ag309
aS'variable_3'
p8911
aS'->'
p8912
aS'variable_109'
p8913
ag29
aS'variable_9'
p8914
aS'++'
p8915
ag13
aS'variable_0'
p8916
ag8
aS'variable_110'
p8917
ag29
aS'variable_110'
p8918
ag17
aS'variable_1'
p8919
aS'->'
p8920
aS'variable_111'
p8921
ag117
aS'variable_9'
p8922
ag119
ag17
aS'func_15'
p8923
ag6
aS'sizeof'
p8924
ag6
aS'variable_0'
p8925
ag13
ag13
ag29
aS'for'
p8926
ag6
aS'variable_9'
p8927
ag17
ag85
ag29
aS'variable_9'
p8928
ag309
aS'variable_3'
p8929
aS'->'
p8930
aS'variable_109'
p8931
ag29
aS'variable_9'
p8932
aS'++'
p8933
ag13
aS'if'
p8934
ag6
aS'func_16'
p8935
ag6
aS'variable_1'
p8936
aS'->'
p8937
aS'variable_111'
p8938
ag117
aS'variable_9'
p8939
ag119
ag13
ag309
ag85
ag13
aS'if'
p8940
ag6
aS'variable_1'
p8941
aS'=='
p8942
aS'variable_2'
p8943
aS'&&'
p8944
aS'variable_1'
p8945
aS'->'
p8946
aS'variable_112'
p8947
aS'!='
p8948
aS'variable_6'
p8949
ag13
aS'variable_1'
p8950
aS'->'
p8951
aS'variable_112'
p8952
ag17
aS'variable_6'
p8953
ag29
aS'variable_1'
p8954
aS'->'
p8955
aS'variable_113'
p8956
ag17
aS'func_17'
p8957
ag6
ag18
aS'variable_3'
p8958
aS'->'
p8959
aS'variable_23'
p8960
ag10
aS'variable_1'
p8961
aS'->'
p8962
aS'variable_36'
p8963
ag63
aS'variable_114'
p8964
ag13
ag29
aS'variable_1'
p8965
aS'->'
p8966
aS'variable_115'
p8967
ag17
ag85
ag29
aS'variable_1'
p8968
aS'->'
p8969
aS'variable_116'
p8970
ag17
ag85
ag29
aS'if'
p8971
ag6
aS'variable_1'
p8972
aS'->'
p8973
aS'variable_36'
p8974
ag63
aS'variable_46'
p8975
ag13
aS'if'
p8976
ag6
ag52
aS'variable_1'
p8977
aS'->'
p8978
aS'variable_36'
p8979
ag63
aS'variable_117'
p8980
aS'&&'
p8981
aS'variable_7'
p8982
aS'=='
p8983
aS'variable_118'
p8984
ag13
aS'if'
p8985
ag6
aS'variable_2'
p8986
aS'->'
p8987
aS'variable_24'
p8988
aS'!='
p8989
ag85
ag13
aS'if'
p8990
ag6
aS'variable_4'
p8991
aS'->'
p8992
aS'variable_25'
p8993
ag13
aS'assert'
p8994
ag6
aS'variable_4'
p8995
aS'->'
p8996
aS'variable_26'
p8997
ag13
ag29
aaa(lp8998
I0
aI0
aI0
aI0
aI0
aI0
aI0
aI0
aa(lp8999
I2019
aI1949
aI1793
aI1793
aI1793
aI1429
aI1429
aI1429
aa(lp9000
(lp9001
S'main'
p9002
aa(lp9003
g9002
aa(lp9004
g9002
aa(lp9005
g9002
aa(lp9006
g9002
aa(lp9007
g9002
aa(lp9008
g9002
aa(lp9009
g9002
aaa(lp9010
S'120 ../data/NVD/CVE_2013_0850_PATCHED_decode_slice_header.c assert 520'
p9011
aS'121 ../data/NVD/CVE_2013_0850_PATCHED_decode_slice_header.c assert 510'
p9012
aS'122 ../data/NVD/CVE_2013_0850_PATCHED_decode_slice_header.c assert 469'
p9013
aS'123 ../data/NVD/CVE_2013_0850_PATCHED_decode_slice_header.c assert 468'
p9014
aS'124 ../data/NVD/CVE_2013_0850_PATCHED_decode_slice_header.c assert 467'
p9015
aS'125 ../data/NVD/CVE_2013_0850_PATCHED_decode_slice_header.c assert 372'
p9016
aS'126 ../data/NVD/CVE_2013_0850_PATCHED_decode_slice_header.c assert 371'
p9017
aS'127 ../data/NVD/CVE_2013_0850_PATCHED_decode_slice_header.c assert 370'
p9018
aa.