(lp0
(lp1
(lp2
S'func_0'
p3
aS'('
p4
aS'DWORD'
p5
aS'variable_0'
p6
aS','
p7
aS'variable_1'
p8
aS'*'
p9
aS'variable_2'
p10
aS')'
p11
aS'if'
p12
ag4
aS'variable_0'
p13
aS'<'
p14
aS'3'
p15
ag11
aS'WCHAR'
p16
aS'variable_3'
p17
aS'['
p18
aS'variable_4'
p19
aS'+'
p20
aS'1'
p21
aS']'
p22
aS'='
p23
aS'variable_5'
p24
aS"'"
p25
aS'\\'
p26
aS'0'
p27
ag25
aS'if'
p28
ag4
aS'!'
p29
aS'func_1'
p30
ag4
aS'variable_0'
p31
ag7
aS'variable_2'
p32
ag7
aS'variable_3'
p33
ag11
ag11
aS'BOOL'
p34
aS'variable_6'
p35
ag23
aS'variable_7'
p36
aS';'
p37
aS'if'
p38
ag4
ag29
aS'func_2'
p39
ag4
aS'variable_2'
p40
ag18
ag27
ag22
ag7
aS'variable_6'
p41
ag11
aS'||'
p42
ag29
aS'variable_6'
p43
ag11
aS'nsAutoHandle'
p44
aS'func_3'
p45
ag4
aS'func_4'
p46
ag4
aS'variable_2'
p47
ag18
ag27
ag22
ag7
aS'variable_8'
p48
ag7
aS'variable_9'
p49
ag7
aS'NULL'
p50
ag7
aS'variable_10'
p51
ag7
ag27
ag7
aS'NULL'
p52
ag11
ag11
ag37
aS'if'
p53
ag4
aS'variable_11'
p54
aS'=='
p55
aS'variable_12'
p56
ag11
aS'WCHAR'
p57
aS'variable_13'
p58
ag18
aS'variable_4'
p59
ag20
ag21
ag22
ag23
aS'variable_5'
p60
ag25
ag26
ag27
ag25
aS'wcsncpy'
p61
ag4
aS'variable_13'
p62
ag7
aS'variable_3'
p63
ag7
aS'variable_4'
p64
ag11
ag37
aS'variable_14'
p65
ag23
aS'variable_7'
p66
ag37
aS'BOOL'
p67
aS'variable_15'
p68
ag37
aS'if'
p69
ag4
aS'variable_14'
p70
aS'&&'
p71
ag29
aS'func_5'
p72
ag4
aS'variable_2'
p73
ag18
ag27
ag22
ag7
aS'variable_13'
p74
ag7
aS'variable_15'
p75
ag11
ag11
aS'variable_14'
p76
ag23
aS'variable_7'
p77
ag37
aS'if'
p78
ag4
aS'variable_14'
p79
aS'&&'
p80
ag29
aS'variable_15'
p81
ag11
aS'variable_14'
p82
ag23
aS'variable_7'
p83
ag37
aS'if'
p84
ag4
aS'variable_14'
p85
ag11
aS'HMODULE'
p86
aS'variable_16'
p87
ag23
aS'LoadLibraryEx'
p88
ag4
aS'variable_2'
p89
ag18
ag27
ag22
ag7
aS'NULL'
p90
ag7
aS'variable_17'
p91
ag11
ag37
aS'if'
p92
ag4
ag29
aS'variable_16'
p93
ag11
aS'char'
p94
aS'variable_18'
p95
ag18
aS'64'
p96
ag22
ag37
aS'if'
p97
ag4
aS'strcmp'
p98
ag4
aS'variable_18'
p99
ag7
aS'variable_19'
p100
ag11
ag11
aaa(lp101
I0
aa(lp102
I184
aa(lp103
(lp104
S'main'
p105
aaa(lp106
S'150 ../data/NVD/CVE_2013_0799_PATCHED_ProcessSoftwareUpdateCommand.c strcmp 109'
p107
aa.