(lp0
(lp1
(lp2
S'func_0'
p3
aS'('
p4
aS'LPCWSTR'
p5
aS'variable_0'
p6
aS','
p7
aS'variable_1'
p8
aS'&'
p9
aS'variable_2'
p10
aS')'
p11
aS'WCHAR'
p12
aS'variable_3'
p13
aS'['
p14
aS'variable_4'
p15
aS'+'
p16
aS'1'
p17
aS']'
p18
aS'='
p19
aS'variable_5'
p20
aS"'"
p21
aS'\\'
p22
aS'0'
p23
ag21
aS'wcsncpy'
p24
ag4
aS'variable_3'
p25
ag7
aS'variable_0'
p26
ag7
aS'variable_4'
p27
ag11
aS';'
p28
aS'if'
p29
ag4
aS'!'
p30
aS'func_1'
p31
ag4
aS'variable_3'
p32
ag7
aS'variable_5'
p33
aS'"'
p34
aS'update'
p35
aS'.'
p36
aS'status'
p37
ag34
ag11
ag11
aS'nsAutoHandle'
p38
aS'func_2'
p39
ag4
aS'func_3'
p40
ag4
aS'variable_3'
p41
ag7
aS'variable_6'
p42
ag7
aS'variable_7'
p43
aS'|'
p44
aS'variable_8'
p45
ag44
aS'variable_9'
p46
ag7
aS'NULL'
p47
ag7
aS'variable_10'
p48
ag7
ag23
ag7
aS'NULL'
p49
ag11
ag11
ag28
aS'if'
p50
ag4
aS'variable_11'
p51
aS'=='
p52
aS'variable_12'
p53
ag11
aS'if'
p54
ag4
ag30
aS'ReadFile'
p55
ag4
aS'variable_12'
p56
ag7
aS'variable_13'
p57
ag7
aS'sizeof'
p58
ag4
aS'variable_13'
p59
ag11
ag7
ag9
aS'variable_14'
p60
ag7
aS'NULL'
p61
ag11
ag11
aaa(lp62
I0
aa(lp63
I22
aa(lp64
(lp65
S'main'
p66
aaa(lp67
S'46 ../data/NVD/CVE_2013_0799_PATCHED_IsStatusApplying.c wcsncpy 6'
p68
aa.