(lp0
(lp1
(lp2
S'func_0'
p3
aS'('
p4
aS'variable_0'
p5
aS'*'
p6
aS'variable_1'
p7
aS','
p8
aS'variable_2'
p9
ag6
aS'variable_3'
p10
ag8
aS'size_t'
p11
aS'variable_4'
p12
ag8
aS'void'
p13
ag6
aS'variable_5'
p14
aS')'
p15
aS'variable_6'
p16
aS'&'
p17
aS'variable_7'
p18
aS'='
p19
ag6
aS'variable_8'
p20
aS'<'
p21
aS'variable_6'
p22
ag6
aS'>'
p23
aS'variable_7'
p24
aS'.'
p25
aS'variable_9'
p26
ag19
aS'true'
p27
aS';'
p28
aS'size_t'
p29
aS'variable_10'
p30
ag19
aS'variable_7'
p31
ag25
aS'variable_11'
p32
ag28
aS'size_t'
p33
aS'variable_12'
p34
ag19
aS'variable_3'
p35
aS'->'
p36
aS'func_1'
p37
ag4
ag15
aS'-'
p38
aS'variable_10'
p39
ag28
aS'variable_7'
p40
ag25
aS'variable_11'
p41
ag19
aS'variable_3'
p42
aS'->'
p43
aS'func_2'
p44
ag4
ag15
ag28
aS'size_t'
p45
aS'variable_13'
p46
ag19
aS'0'
p47
ag28
aS'if'
p48
ag4
aS'!'
p49
aS'func_3'
p50
ag4
aS'variable_1'
p51
ag8
aS'variable_3'
p52
ag8
aS'variable_7'
p53
ag8
ag17
aS'variable_13'
p54
ag15
ag15
aS'size_t'
p55
aS'variable_14'
p56
ag19
aS'variable_12'
p57
aS'+'
p58
aS'variable_13'
p59
ag28
aS'if'
p60
ag4
ag49
aS'variable_7'
p61
ag25
aS'variable_15'
p62
ag25
aS'func_4'
p63
ag4
aS'variable_7'
p64
ag25
aS'variable_15'
p65
ag25
aS'func_5'
p66
ag4
ag15
ag58
aS'variable_14'
p67
ag15
ag15
aaa(lp68
I0
aa(lp69
I87
aa(lp70
(lp71
S'main'
p72
aaa(lp73
S'202 ../data/NVD/CVE_2013_0750_VULN_ReplaceRegExpCallback.c size_t growth = leftlen + replen ; 15'
p74
aa.