(lp0
(lp1
(lp2
S'func_0'
p3
aS'('
p4
aS'int'
p5
aS'variable_0'
p6
aS','
p7
aS'variable_1'
p8
aS'*'
p9
aS'variable_2'
p10
ag7
aS'WCHAR'
p11
aS'variable_3'
p12
aS'['
p13
aS'variable_4'
p14
aS']'
p15
aS')'
p16
aS'if'
p17
ag4
aS'variable_0'
p18
aS'<'
p19
aS'2'
p20
ag16
aS'wcscpy'
p21
ag4
aS'variable_3'
p22
ag7
aS'variable_2'
p23
ag13
ag20
ag15
ag16
aS';'
p24
aS'variable_5'
p25
ag9
aS'variable_6'
p26
aS'='
p27
aS'wcsrchr'
p28
ag4
aS'variable_3'
p29
ag7
aS'variable_7'
p30
aS"'"
p31
aS'\\'
p32
ag32
ag31
ag16
aS'bool'
p33
aS'variable_8'
p34
ag27
ag4
aS'variable_0'
p35
aS'>'
p36
ag27
aS'4'
p37
aS'&&'
p38
aS'wcsstr'
p39
ag4
aS'variable_2'
p40
ag13
aS'3'
p41
ag15
ag7
aS'variable_7'
p42
aS'"'
p43
aS'/'
p44
aS'replace'
p45
ag43
ag16
ag16
aS'if'
p46
ag4
aS'variable_9'
p47
aS'||'
p48
aS'variable_8'
p49
ag16
aS'return'
p50
aS'func_1'
p51
ag4
aS'variable_3'
p52
ag16
ag24
aaa(lp53
I0
aa(lp54
I21
aa(lp55
(lp56
S'main'
p57
aaa(lp58
S'76 ../data/NVD/CVE_2013_0799_VULN_GetInstallationDir.c wcscpy 7'
p59
aa.