(lp0
(lp1
(lp2
S'uint32_t'
p3
aS'variable_0'
p4
aS':'
p5
ag5
aS'func_0'
p6
aS'('
p7
aS')'
p8
aS'int'
p9
aS'variable_1'
p10
aS','
p11
aS'variable_2'
p12
aS';'
p13
aS'variable_1'
p14
aS'='
p15
aS'variable_2'
p16
ag15
aS'variable_3'
p17
aS'.'
p18
aS'variable_4'
p19
ag13
aS'if'
p20
ag7
ag7
aS'unsigned'
p21
ag8
aS'variable_1'
p22
aS'>'
p23
ag15
aS'variable_3'
p24
ag18
aS'variable_5'
p25
ag8
aS'if'
p26
ag7
aS'!'
p27
aS'variable_3'
p28
ag18
aS'variable_6'
p29
ag8
aS'if'
p30
ag7
aS'variable_3'
p31
ag18
aS'variable_7'
p32
aS'&&'
p33
aS'variable_3'
p34
ag18
aS'variable_8'
p35
aS'&&'
p36
ag7
aS'variable_3'
p37
ag18
aS'variable_9'
p38
aS'<'
p39
aS'4'
p40
ag8
ag8
aS'const'
p41
aS'uint32_t'
p42
aS'variable_10'
p43
ag15
aS'15'
p44
aS'>>'
p45
aS'variable_3'
p46
ag18
aS'variable_9'
p47
ag13
aS'const'
p48
aS'uint32_t'
p49
aS'variable_11'
p50
ag15
aS'variable_10'
p51
aS'>>'
p52
aS'1'
p53
ag13
aS'variable_1'
p54
aS'-='
p55
aS'variable_11'
p56
ag13
aS'variable_2'
p57
ag15
aS'variable_1'
p58
aS'+'
p59
aS'variable_10'
p60
ag13
aS'if'
p61
ag7
ag7
ag7
aS'variable_3'
p62
ag18
aS'variable_5'
p63
aS'-'
p64
ag53
ag8
ag64
aS'variable_2'
p65
ag8
ag39
ag15
aS'variable_11'
p66
ag8
aS'variable_2'
p67
ag15
aS'variable_3'
p68
ag18
aS'variable_5'
p69
ag64
ag53
ag13
aS'if'
p70
ag7
aS'variable_1'
p71
ag39
aS'0'
p72
ag8
aS'variable_1'
p73
ag15
ag72
ag13
aS'if'
p74
ag7
ag7
aS'unsigned'
p75
ag8
aS'variable_2'
p76
ag23
ag15
aS'variable_3'
p77
ag18
aS'variable_5'
p78
ag8
aS'variable_2'
p79
ag15
aS'variable_3'
p80
ag18
aS'variable_5'
p81
ag64
ag53
ag13
aS'const'
p82
aS'uint32_t'
p83
aS'variable_12'
p84
ag15
aS'sizeof'
p85
ag7
aS'variable_13'
p86
ag8
aS'*'
p87
aS'variable_3'
p88
ag18
aS'variable_14'
p89
ag13
aS'variable_15'
p90
ag87
aS'variable_16'
p91
ag15
aS'variable_17'
p92
ag59
ag7
aS'variable_3'
p93
ag18
aS'variable_4'
p94
ag87
aS'variable_12'
p95
ag8
ag13
aS'if'
p96
ag7
aS'variable_2'
p97
ag23
aS'variable_1'
p98
ag8
aS'for'
p99
ag7
aS'int'
p100
aS'variable_18'
p101
ag15
aS'variable_1'
p102
ag13
aS'variable_18'
p103
ag39
ag15
aS'variable_2'
p104
ag13
aS'variable_18'
p105
aS'++'
p106
ag8
aS'if'
p107
ag7
aS'variable_18'
p108
aS'!='
p109
aS'int'
p110
ag7
aS'variable_3'
p111
ag18
aS'variable_4'
p112
ag8
ag8
aS'memcpy'
p113
ag7
aS'variable_17'
p114
ag59
ag7
aS'variable_18'
p115
ag87
aS'variable_12'
p116
ag8
ag11
aS'variable_16'
p117
ag11
aS'variable_12'
p118
ag8
ag13
aaa(lp119
I0
aa(lp120
I195
aa(lp121
(lp122
S'main'
p123
aaa(lp124
S'95 ../data/NVD/CVE_2013_0772_VULN_nsGIFDecoder2__OutputRow.c memcpy 74'
p125
aa.