(lp0
(lp1
(lp2
S'uint32_t'
p3
aS'variable_0'
p4
aS':'
p5
ag5
aS'func_0'
p6
aS'('
p7
aS')'
p8
aS'int'
p9
aS'variable_1'
p10
aS','
p11
aS'variable_2'
p12
aS';'
p13
aS'variable_1'
p14
aS'='
p15
aS'variable_2'
p16
ag15
aS'variable_3'
p17
aS'.'
p18
aS'variable_4'
p19
ag13
aS'if'
p20
ag7
ag7
aS'unsigned'
p21
ag8
aS'variable_1'
p22
aS'>'
p23
ag15
aS'variable_3'
p24
ag18
aS'variable_5'
p25
ag8
aS'if'
p26
ag7
aS'!'
p27
aS'variable_3'
p28
ag18
aS'variable_6'
p29
ag8
aS'const'
p30
aS'uint32_t'
p31
aS'variable_7'
p32
ag15
aS'sizeof'
p33
ag7
aS'variable_8'
p34
ag8
aS'*'
p35
aS'variable_3'
p36
ag18
aS'variable_9'
p37
ag13
aS'variable_10'
p38
ag35
aS'variable_11'
p39
ag15
aS'variable_12'
p40
aS'+'
p41
ag7
aS'variable_3'
p42
ag18
aS'variable_4'
p43
ag35
aS'variable_7'
p44
ag8
ag13
aS'variable_10'
p45
ag35
aS'variable_13'
p46
ag15
aS'variable_11'
p47
ag41
aS'variable_3'
p48
ag18
aS'variable_9'
p49
ag13
ag35
aS'--'
p50
aS'variable_14'
p51
ag15
aS'variable_15'
p52
aS'['
p53
ag35
aS'--'
p54
aS'variable_13'
p55
aS']'
p56
ag13
ag35
aS'--'
p57
aS'variable_14'
p58
ag15
aS'variable_15'
p59
ag53
ag7
ag35
aS'--'
p60
aS'variable_13'
p61
ag8
aS'&'
p62
aS'variable_16'
p63
ag56
ag13
aa(lp64
S'uint32_t'
p65
aS'variable_0'
p66
ag5
ag5
aS'func_0'
p67
ag7
ag8
aS'int'
p68
aS'variable_1'
p69
ag11
aS'variable_2'
p70
ag13
aS'variable_1'
p71
ag15
aS'variable_2'
p72
ag15
aS'variable_3'
p73
ag18
aS'variable_4'
p74
ag13
aS'if'
p75
ag7
ag7
aS'unsigned'
p76
ag8
aS'variable_1'
p77
ag23
ag15
aS'variable_3'
p78
ag18
aS'variable_5'
p79
ag8
aS'if'
p80
ag7
ag27
aS'variable_3'
p81
ag18
aS'variable_6'
p82
ag8
aS'const'
p83
aS'uint32_t'
p84
aS'variable_7'
p85
ag15
aS'sizeof'
p86
ag7
aS'variable_8'
p87
ag8
ag35
aS'variable_3'
p88
ag18
aS'variable_9'
p89
ag13
aS'variable_10'
p90
ag35
aS'variable_11'
p91
ag15
aS'variable_12'
p92
ag41
ag7
aS'variable_3'
p93
ag18
aS'variable_4'
p94
ag35
aS'variable_7'
p95
ag8
ag13
aS'variable_10'
p96
ag35
aS'variable_13'
p97
ag15
aS'variable_11'
p98
ag41
aS'variable_3'
p99
ag18
aS'variable_9'
p100
ag13
aS'variable_8'
p101
ag35
aS'variable_14'
p102
ag15
ag7
ag7
aS'uint32_t'
p103
ag35
ag8
aS'variable_11'
p104
ag8
ag41
aS'variable_3'
p105
ag18
aS'variable_9'
p106
ag13
ag35
aS'--'
p107
aS'variable_14'
p108
ag15
aS'variable_15'
p109
ag53
ag35
aS'--'
p110
aS'variable_13'
p111
ag56
ag13
ag35
aS'--'
p112
aS'variable_14'
p113
ag15
aS'variable_15'
p114
ag53
ag7
ag35
aS'--'
p115
aS'variable_13'
p116
ag8
ag62
aS'variable_16'
p117
ag56
ag13
aS'const'
p118
aS'uint32_t'
p119
ag35
aS'variable_17'
p120
ag15
ag7
aS'uint32_t'
p121
ag35
ag8
aS'variable_11'
p122
ag13
aS'if'
p123
ag7
ag35
aS'variable_17'
p124
aS'++'
p125
aS'=='
p126
aS'0'
p127
ag8
aS'memcpy'
p128
ag7
aS'variable_12'
p129
ag41
ag7
aS'variable_18'
p130
ag35
aS'variable_7'
p131
ag8
ag11
aS'variable_11'
p132
ag11
aS'variable_7'
p133
ag8
ag13
aaa(lp134
I0
aI0
aa(lp135
I74
aI64
aa(lp136
(lp137
S'main'
p138
aa(lp139
g138
aaa(lp140
S'215 ../data/NVD/CVE_2013_0772_VULN_nsGIFDecoder2__OutputRow.c uint8_t * from = rowp + mGIFStruct . width ; 43'
p141
aS'216 ../data/NVD/CVE_2013_0772_VULN_nsGIFDecoder2__OutputRow.c uint8_t * rowp = mImageData + ( mGIFStruct . irow * bpr ) ; 40'
p142
aa.