(lp0
(lp1
(lp2
S'func_0'
p3
aS'('
p4
aS'char'
p5
aS'*'
p6
aS'void'
p7
ag6
aS'void'
p8
ag6
aS'variable_0'
p9
aS')'
p10
aS'variable_1'
p11
ag6
aS'variable_2'
p12
aS';'
p13
aS'variable_3'
p14
ag6
aS'variable_4'
p15
ag13
aS'variable_5'
p16
ag6
aS'variable_6'
p17
ag13
aS'variable_2'
p18
aS'='
p19
ag4
aS'_bdf_parse_t'
p20
ag6
ag10
aS'variable_0'
p21
ag13
aS'variable_6'
p22
ag19
aS'variable_2'
p23
aS'->'
p24
aS'variable_6'
p25
ag13
aS'if'
p26
ag4
aS'func_1'
p27
ag4
aS'variable_7'
p28
aS','
p29
aS'"'
p30
aS'COMMENT'
p31
ag30
ag29
aS'7'
p32
ag10
aS'=='
p33
aS'0'
p34
ag10
aS'if'
p35
ag4
aS'!'
p36
ag4
aS'variable_2'
p37
aS'->'
p38
aS'variable_8'
p39
aS'&'
p40
aS'variable_9'
p41
ag10
ag10
aS'if'
p42
ag4
aS'func_2'
p43
ag4
aS'variable_7'
p44
ag29
ag30
aS'ENDFONT'
p45
ag30
ag29
ag32
ag10
aS'=='
p46
ag34
ag10
aS'if'
p47
ag4
aS'func_3'
p48
ag4
aS'variable_7'
p49
ag29
ag30
aS'ENDCHAR'
p50
ag30
ag29
ag32
ag10
aS'=='
p51
ag34
ag10
aS'if'
p52
ag4
ag4
aS'variable_2'
p53
aS'->'
p54
aS'variable_8'
p55
ag40
aS'variable_10'
p56
ag10
aS'&&'
p57
aS'variable_2'
p58
aS'->'
p59
aS'variable_11'
p60
aS'=='
p61
aS'-'
p62
aS'1'
p63
aS'&&'
p64
aS'variable_2'
p65
aS'->'
p66
aS'variable_12'
p67
aS'->'
p68
aS'variable_13'
p69
aS'=='
p70
ag34
ag10
aS'if'
p71
ag4
aS'func_4'
p72
ag4
aS'variable_7'
p73
ag29
ag30
aS'STARTCHAR'
p74
ag30
ag29
aS'9'
p75
ag10
aS'=='
p76
ag34
ag10
aS'if'
p77
ag4
aS'func_5'
p78
ag4
aS'variable_7'
p79
ag29
ag30
aS'ENCODING'
p80
ag30
ag29
aS'8'
p81
ag10
aS'=='
p82
ag34
ag10
aS'if'
p83
ag4
ag36
ag4
aS'variable_2'
p84
aS'->'
p85
aS'variable_8'
p86
ag40
aS'variable_10'
p87
ag10
ag10
aS'variable_14'
p88
ag19
aS'variable_15'
p89
ag13
aS'variable_14'
p90
ag19
aS'func_6'
p91
ag4
ag40
aS'variable_2'
p92
aS'->'
p93
aS'variable_16'
p94
ag29
ag4
aS'char'
p95
ag6
ag10
ag30
aS'+'
p96
ag30
ag29
aS'variable_7'
p97
ag29
aS'variable_17'
p98
ag10
ag13
aS'if'
p99
ag4
aS'variable_14'
p100
ag10
aS'variable_2'
p101
aS'->'
p102
aS'variable_11'
p103
ag19
aS'func_7'
p104
ag4
aS'variable_2'
p105
aS'->'
p106
aS'variable_16'
p107
aS'.'
p108
aS'variable_18'
p109
aS'['
p110
ag63
aS']'
p111
ag29
ag34
ag29
aS'10'
p112
ag10
ag13
aS'if'
p113
ag4
aS'variable_2'
p114
aS'->'
p115
aS'variable_11'
p116
aS'<'
p117
ag62
ag63
ag10
aS'variable_2'
p118
aS'->'
p119
aS'variable_11'
p120
ag19
ag62
ag63
ag13
aS'if'
p121
ag4
aS'variable_2'
p122
aS'->'
p123
aS'variable_11'
p124
aS'=='
p125
ag62
ag63
aS'&&'
p126
aS'variable_2'
p127
aS'->'
p128
aS'variable_16'
p129
ag108
aS'variable_19'
p130
aS'>'
p131
aS'2'
p132
ag10
aS'variable_2'
p133
aS'->'
p134
aS'variable_11'
p135
ag19
aS'func_8'
p136
ag4
aS'variable_2'
p137
aS'->'
p138
aS'variable_16'
p139
ag108
aS'variable_18'
p140
ag110
ag132
ag111
ag29
ag34
ag29
aS'10'
p141
ag10
ag13
aS'if'
p142
ag4
aS'variable_2'
p143
aS'->'
p144
aS'variable_11'
p145
ag131
ag34
aS'&&'
p146
ag4
aS'size_t'
p147
ag10
aS'variable_2'
p148
aS'->'
p149
aS'variable_11'
p150
ag131
ag19
aS'sizeof'
p151
ag4
aS'variable_2'
p152
aS'->'
p153
aS'variable_20'
p154
ag10
ag6
ag81
ag10
aS'if'
p155
ag4
aS'variable_2'
p156
aS'->'
p157
aS'variable_11'
p158
ag131
ag19
ag34
ag10
aS'if'
p159
ag4
aS'func_9'
p160
ag4
aS'variable_2'
p161
aS'->'
p162
aS'variable_20'
p163
ag29
aS'variable_2'
p164
aS'->'
p165
aS'variable_11'
p166
ag10
ag10
aS'variable_2'
p167
aS'->'
p168
aS'variable_11'
p169
ag19
ag62
ag63
ag13
aS'variable_6'
p170
aS'->'
p171
aS'variable_21'
p172
ag19
ag63
ag13
aS'if'
p173
ag4
aS'variable_2'
p174
aS'->'
p175
aS'variable_11'
p176
ag131
ag19
ag34
ag10
aS'if'
p177
ag4
aS'variable_2'
p178
aS'->'
p179
aS'variable_12'
p180
aS'->'
p181
aS'variable_13'
p182
aS'!='
p183
ag34
ag10
aS'if'
p184
ag4
aS'variable_6'
p185
aS'->'
p186
aS'variable_22'
p187
aS'=='
p188
aS'variable_6'
p189
aS'->'
p190
aS'variable_23'
p191
ag10
aS'if'
p192
ag4
aS'func_10'
p193
ag4
aS'variable_6'
p194
aS'->'
p195
aS'variable_24'
p196
ag29
aS'variable_6'
p197
aS'->'
p198
aS'variable_23'
p199
ag29
aS'variable_6'
p200
aS'->'
p201
aS'variable_23'
p202
ag96
aS'4'
p203
ag10
ag10
aS'variable_6'
p204
aS'->'
p205
aS'variable_23'
p206
aS'+='
p207
ag203
ag13
aS'variable_4'
p208
ag19
aS'variable_6'
p209
aS'->'
p210
aS'variable_24'
p211
ag96
aS'variable_6'
p212
aS'->'
p213
aS'variable_22'
p214
ag13
aS'variable_4'
p215
aS'->'
p216
aS'variable_25'
p217
ag19
aS'variable_2'
p218
aS'->'
p219
aS'variable_26'
p220
ag13
aS'variable_4'
p221
aS'->'
p222
aS'variable_27'
p223
ag19
aS'variable_6'
p224
aS'->'
p225
aS'variable_22'
p226
aS'++'
p227
ag13
aa(lp228
S'func_0'
p229
ag4
aS'char'
p230
ag6
aS'void'
p231
ag6
aS'void'
p232
ag6
aS'variable_0'
p233
ag10
aS'variable_1'
p234
ag6
aS'variable_2'
p235
ag13
aS'variable_3'
p236
ag6
aS'variable_4'
p237
ag13
aS'variable_5'
p238
ag6
aS'variable_6'
p239
ag13
aS'variable_2'
p240
ag19
ag4
aS'_bdf_parse_t'
p241
ag6
ag10
aS'variable_0'
p242
ag13
aS'variable_6'
p243
ag19
aS'variable_2'
p244
aS'->'
p245
aS'variable_6'
p246
ag13
aS'if'
p247
ag4
aS'func_1'
p248
ag4
aS'variable_7'
p249
ag29
ag30
aS'COMMENT'
p250
ag30
ag29
ag32
ag10
aS'=='
p251
ag34
ag10
aS'if'
p252
ag4
ag36
ag4
aS'variable_2'
p253
aS'->'
p254
aS'variable_8'
p255
ag40
aS'variable_9'
p256
ag10
ag10
aS'if'
p257
ag4
aS'func_2'
p258
ag4
aS'variable_7'
p259
ag29
ag30
aS'ENDFONT'
p260
ag30
ag29
ag32
ag10
aS'=='
p261
ag34
ag10
aS'if'
p262
ag4
aS'func_3'
p263
ag4
aS'variable_7'
p264
ag29
ag30
aS'ENDCHAR'
p265
ag30
ag29
ag32
ag10
aS'=='
p266
ag34
ag10
aS'if'
p267
ag4
ag4
aS'variable_2'
p268
aS'->'
p269
aS'variable_8'
p270
ag40
aS'variable_10'
p271
ag10
aS'&&'
p272
aS'variable_2'
p273
aS'->'
p274
aS'variable_11'
p275
aS'=='
p276
ag62
ag63
aS'&&'
p277
aS'variable_2'
p278
aS'->'
p279
aS'variable_12'
p280
aS'->'
p281
aS'variable_13'
p282
aS'=='
p283
ag34
ag10
aS'if'
p284
ag4
aS'func_4'
p285
ag4
aS'variable_7'
p286
ag29
ag30
aS'STARTCHAR'
p287
ag30
ag29
ag75
ag10
aS'=='
p288
ag34
ag10
aS'if'
p289
ag4
aS'func_5'
p290
ag4
aS'variable_7'
p291
ag29
ag30
aS'ENCODING'
p292
ag30
ag29
ag81
ag10
aS'=='
p293
ag34
ag10
aS'if'
p294
ag4
ag36
ag4
aS'variable_2'
p295
aS'->'
p296
aS'variable_8'
p297
ag40
aS'variable_10'
p298
ag10
ag10
aS'variable_14'
p299
ag19
aS'variable_15'
p300
ag13
aS'variable_14'
p301
ag19
aS'func_6'
p302
ag4
ag40
aS'variable_2'
p303
aS'->'
p304
aS'variable_16'
p305
ag29
ag4
aS'char'
p306
ag6
ag10
ag30
ag96
ag30
ag29
aS'variable_7'
p307
ag29
aS'variable_17'
p308
ag10
ag13
aS'if'
p309
ag4
aS'variable_14'
p310
ag10
aS'variable_2'
p311
aS'->'
p312
aS'variable_11'
p313
ag19
aS'func_7'
p314
ag4
aS'variable_2'
p315
aS'->'
p316
aS'variable_16'
p317
ag108
aS'variable_18'
p318
ag110
ag63
ag111
ag29
ag34
ag29
aS'10'
p319
ag10
ag13
aS'if'
p320
ag4
aS'variable_2'
p321
aS'->'
p322
aS'variable_11'
p323
ag117
ag62
ag63
ag10
aS'variable_2'
p324
aS'->'
p325
aS'variable_11'
p326
ag19
ag62
ag63
ag13
aS'if'
p327
ag4
aS'variable_2'
p328
aS'->'
p329
aS'variable_11'
p330
aS'=='
p331
ag62
ag63
aS'&&'
p332
aS'variable_2'
p333
aS'->'
p334
aS'variable_16'
p335
ag108
aS'variable_19'
p336
ag131
ag132
ag10
aS'variable_2'
p337
aS'->'
p338
aS'variable_11'
p339
ag19
aS'func_8'
p340
ag4
aS'variable_2'
p341
aS'->'
p342
aS'variable_16'
p343
ag108
aS'variable_18'
p344
ag110
ag132
ag111
ag29
ag34
ag29
aS'10'
p345
ag10
ag13
aS'if'
p346
ag4
aS'variable_2'
p347
aS'->'
p348
aS'variable_11'
p349
ag131
ag34
aS'&&'
p350
ag4
aS'size_t'
p351
ag10
aS'variable_2'
p352
aS'->'
p353
aS'variable_11'
p354
ag131
ag19
aS'sizeof'
p355
ag4
aS'variable_2'
p356
aS'->'
p357
aS'variable_20'
p358
ag10
ag6
ag81
ag10
aS'if'
p359
ag4
aS'variable_2'
p360
aS'->'
p361
aS'variable_11'
p362
ag131
ag19
ag34
ag10
aS'if'
p363
ag4
aS'func_9'
p364
ag4
aS'variable_2'
p365
aS'->'
p366
aS'variable_20'
p367
ag29
aS'variable_2'
p368
aS'->'
p369
aS'variable_11'
p370
ag10
ag10
aS'variable_2'
p371
aS'->'
p372
aS'variable_11'
p373
ag19
ag62
ag63
ag13
aS'variable_6'
p374
aS'->'
p375
aS'variable_21'
p376
ag19
ag63
ag13
aS'if'
p377
ag4
aS'variable_2'
p378
aS'->'
p379
aS'variable_11'
p380
ag131
ag19
ag34
ag10
aS'if'
p381
ag4
aS'variable_6'
p382
aS'->'
p383
aS'variable_22'
p384
aS'=='
p385
aS'variable_6'
p386
aS'->'
p387
aS'variable_23'
p388
ag10
aS'if'
p389
ag4
aS'func_10'
p390
ag4
aS'variable_6'
p391
aS'->'
p392
aS'variable_24'
p393
ag29
aS'variable_6'
p394
aS'->'
p395
aS'variable_23'
p396
ag29
aS'variable_6'
p397
aS'->'
p398
aS'variable_23'
p399
ag96
aS'64'
p400
ag10
ag10
aS'variable_6'
p401
aS'->'
p402
aS'variable_23'
p403
aS'+='
p404
aS'64'
p405
ag13
aS'variable_4'
p406
ag19
aS'variable_6'
p407
aS'->'
p408
aS'variable_24'
p409
ag96
aS'variable_6'
p410
aS'->'
p411
aS'variable_22'
p412
aS'++'
p413
ag13
aS'variable_4'
p414
aS'->'
p415
aS'variable_25'
p416
ag19
aS'variable_2'
p417
aS'->'
p418
aS'variable_26'
p419
ag13
aS'variable_4'
p420
aS'->'
p421
aS'variable_27'
p422
ag19
aS'variable_2'
p423
aS'->'
p424
aS'variable_11'
p425
ag13
aaa(lp426
I0
aI0
aa(lp427
I382
aI373
aa(lp428
(lp429
S'main'
p430
aa(lp431
g430
aaa(lp432
S'52 ../data/NVD/CVE_2012_5669_VULN__bdf_parse_glyphs.c glyph = font -> unencoded + font -> unencoded_used 238'
p433
aS'53 ../data/NVD/CVE_2012_5669_VULN__bdf_parse_glyphs.c glyph = font -> glyphs + font -> glyphs_used ++ 214'
p434
aa.