(lp0
(lp1
(lp2
S'static'
p3
aS'int'
p4
aS'func_0'
p5
aS'('
p6
aS'variable_0'
p7
aS'*'
p8
aS'variable_1'
p9
aS')'
p10
aS'uint16_t'
p11
aS'variable_2'
p12
aS','
p13
aS'variable_3'
p14
ag13
aS'variable_4'
p15
ag13
aS'variable_5'
p16
ag13
aS'variable_6'
p17
aS';'
p18
aS'variable_4'
p19
aS'='
p20
aS'func_1'
p21
ag6
aS'&'
p22
aS'variable_1'
p23
aS'->'
p24
aS'variable_7'
p25
ag10
ag18
aS'variable_3'
p26
ag20
aS'func_2'
p27
ag6
ag22
aS'variable_1'
p28
aS'->'
p29
aS'variable_7'
p30
ag10
ag18
aS'variable_5'
p31
ag20
aS'func_3'
p32
ag6
ag22
aS'variable_1'
p33
aS'->'
p34
aS'variable_7'
p35
ag10
ag18
aS'variable_6'
p36
ag20
aS'func_4'
p37
ag6
ag22
aS'variable_1'
p38
aS'->'
p39
aS'variable_7'
p40
ag10
ag18
aS'if'
p41
ag6
aS'variable_1'
p42
aS'->'
p43
aS'variable_8'
p44
aS'<'
p45
aS'variable_4'
p46
aS'+'
p47
aS'variable_5'
p48
aS'||'
p49
aS'variable_1'
p50
aS'->'
p51
aS'variable_9'
p52
ag45
aS'variable_3'
p53
ag47
aS'variable_6'
p54
ag10
aS'variable_1'
p55
aS'->'
p56
aS'variable_10'
p57
aS'->'
p58
aS'variable_8'
p59
ag20
aS'func_5'
p60
ag6
aS'variable_4'
p61
ag47
aS'variable_5'
p62
ag13
aS'variable_1'
p63
aS'->'
p64
aS'variable_8'
p65
ag10
ag18
aS'variable_1'
p66
aS'->'
p67
aS'variable_10'
p68
aS'->'
p69
aS'variable_9'
p70
ag20
aS'func_6'
p71
ag6
aS'variable_3'
p72
ag47
aS'variable_6'
p73
ag13
aS'variable_1'
p74
aS'->'
p75
aS'variable_9'
p76
ag10
ag18
aS'func_7'
p77
ag6
aS'variable_1'
p78
ag13
aS'variable_4'
p79
ag47
aS'variable_5'
p80
ag13
aS'variable_3'
p81
ag47
aS'variable_6'
p82
ag10
ag18
aS'if'
p83
ag6
aS'func_8'
p84
ag6
aS'variable_1'
p85
ag10
ag10
aS'func_9'
p86
ag6
aS'variable_1'
p87
aS'->'
p88
aS'variable_10'
p89
ag13
aS'variable_11'
p90
ag13
aS'"'
p91
aS'error'
p92
aS'resizing'
p93
aS'buffers'
p94
aS'\\'
p95
aS'n'
p96
ag91
ag10
ag18
aaa(lp97
I0
aa(lp98
I109
aa(lp99
(lp100
S'main'
p101
aaa(lp102
S'183 ../data/NVD/CVE_2013_0862_VULN_process_frame_obj.c ctx -> avctx -> height = FFMAX ( top + h , ctx -> height ) 13'
p103
aa.