(lp0
(lp1
(lp2
S'variable_0'
p3
aS':'
p4
ag4
aS'func_0'
p5
aS'('
p6
aS')'
p7
aS'PRUint32'
p8
aS'variable_1'
p9
aS','
p10
aS'variable_2'
p11
ag10
aS'variable_3'
p12
ag10
aS'variable_4'
p13
ag10
aS'variable_5'
p14
aS';'
p15
aS'char'
p16
aS'variable_6'
p17
aS'['
p18
aS'variable_7'
p19
aS']'
p20
ag15
aS'const'
p21
aS'char'
p22
aS'*'
p23
aS'variable_8'
p24
aS'='
p25
aS'variable_6'
p26
ag15
aS'if'
p27
ag6
aS'!'
p28
aS'func_1'
p29
ag6
aS'variable_9'
p30
ag10
aS'&'
p31
aS'variable_1'
p32
ag7
ag7
aS'if'
p33
ag6
ag28
aS'func_2'
p34
ag6
aS'variable_6'
p35
ag10
aS'sizeof'
p36
ag6
aS'variable_6'
p37
ag7
ag7
ag7
aS'if'
p38
ag6
aS'func_3'
p39
ag6
ag31
aS'variable_8'
p40
ag7
aS'!='
p41
aS'variable_10'
p42
ag7
aS'variable_8'
p43
aS'+='
p44
aS'4'
p45
ag15
aS'if'
p46
ag6
aS'variable_1'
p47
aS'>'
p48
aS'variable_7'
p49
ag7
aS'char'
p50
aS'variable_11'
p51
ag18
aS'2'
p52
ag20
ag15
aS'if'
p53
ag6
ag28
aS'func_4'
p54
ag6
aS'variable_11'
p55
ag10
aS'sizeof'
p56
ag6
aS'variable_11'
p57
ag7
ag7
ag7
aS'PRUint16'
p58
aS'variable_12'
p59
ag25
aS'func_5'
p60
ag6
ag31
aS'variable_8'
p61
ag7
ag15
aS'if'
p62
ag6
aS'variable_1'
p63
aS'-'
p64
ag6
aS'variable_7'
p65
aS'+'
p66
ag52
ag7
aS'!='
p67
aS'variable_12'
p68
ag7
aS'variable_12'
p69
aS'+='
p70
aS'variable_12'
p71
aS'%'
p72
ag52
ag15
aS'if'
p73
ag6
aS'variable_12'
p74
ag48
aS'0'
p75
ag7
aS'func_6'
p76
ag6
aS'variable_13'
p77
ag66
ag6
aS'variable_13'
p78
ag72
ag52
ag7
aS'<'
p79
aS'variable_14'
p80
aS'/'
p81
aS'sizeof'
p82
ag6
aS'char'
p83
ag7
ag7
ag15
aaa(lp84
I0
aa(lp85
I134
aa(lp86
(lp87
S'main'
p88
aaa(lp89
S'2 ../data/NVD/CVE_2012_4186_VULN_nsWaveReader__LoadFormatChunk.c PR_STATIC_ASSERT ( PR_UINT16_MAX + ( PR_UINT16_MAX % 2 ) < UINT_MAX / sizeof ( char ) ) 65'
p90
aa.