(lp0
(lp1
(lp2
S'variable_0'
p3
aS':'
p4
ag4
aS'func_0'
p5
aS'('
p6
aS'const'
p7
aS'PRUnichar'
p8
aS'*'
p9
aS'variable_1'
p10
aS','
p11
aS'char'
p12
ag9
ag9
aS'variable_2'
p13
aS')'
p14
aS'nsresult'
p15
aS'variable_3'
p16
aS';'
p17
aS'int32_t'
p18
aS'variable_4'
p19
aS'='
p20
aS'func_1'
p21
ag6
aS'variable_1'
p22
ag14
ag17
aS'int32_t'
p23
aS'variable_5'
p24
ag17
aS'int32_t'
p25
aS'variable_6'
p26
ag20
aS'variable_4'
p27
ag17
aS'int32_t'
p28
aS'variable_7'
p29
ag17
aS'int32_t'
p30
aS'variable_8'
p31
ag11
aS'variable_9'
p32
ag17
aS'variable_3'
p33
ag20
aS'variable_10'
p34
aS'->'
p35
aS'func_2'
p36
ag6
aS'variable_1'
p37
ag11
aS'variable_4'
p38
ag11
aS'&'
p39
aS'variable_7'
p40
ag14
ag17
aS'if'
p41
ag6
aS'func_3'
p42
ag6
aS'variable_3'
p43
ag14
ag14
aS'variable_5'
p44
ag20
aS'variable_7'
p45
aS'+'
p46
aS'512'
p47
ag17
aS'char'
p48
ag9
aS'variable_11'
p49
ag20
ag6
aS'char'
p50
ag9
ag14
aS'func_4'
p51
ag6
aS'variable_5'
p52
ag14
ag17
aS'for'
p53
ag6
aS'variable_8'
p54
ag20
aS'0'
p55
ag11
aS'variable_9'
p56
ag20
ag55
ag17
aS'variable_8'
p57
aS'<'
p58
aS'variable_4'
p59
ag17
ag14
aS'variable_7'
p60
ag20
aS'variable_5'
p61
aS'-'
p62
aS'variable_9'
p63
ag17
aS'variable_3'
p64
ag20
aS'variable_10'
p65
aS'->'
p66
aS'func_5'
p67
ag6
ag39
aS'variable_1'
p68
aS'['
p69
aS'variable_8'
p70
aS']'
p71
ag11
ag39
aS'variable_6'
p72
ag11
ag39
aS'variable_11'
p73
ag69
aS'variable_9'
p74
ag71
ag11
ag39
aS'variable_7'
p75
ag14
ag17
aS'variable_8'
p76
aS'+='
p77
aS'variable_6'
p78
aS'?'
p79
aS'variable_6'
p80
ag4
aS'1'
p81
ag17
aS'variable_9'
p82
aS'+='
p83
aS'variable_7'
p84
ag17
aS'if'
p85
ag6
aS'variable_12'
p86
aS'!='
p87
aS'variable_3'
p88
ag14
aS'variable_3'
p89
ag20
aS'variable_13'
p90
ag17
aS'variable_7'
p91
ag20
aS'variable_5'
p92
ag62
aS'variable_9'
p93
ag17
aS'variable_3'
p94
ag20
aS'variable_10'
p95
aS'->'
p96
aS'func_6'
p97
ag6
ag39
aS'variable_11'
p98
ag69
aS'variable_9'
p99
ag71
ag11
ag39
aS'variable_7'
p100
ag14
ag17
aS'if'
p101
ag6
aS'func_7'
p102
ag6
aS'variable_3'
p103
ag14
ag14
aS'variable_9'
p104
aS'+='
p105
aS'variable_7'
p106
ag17
aS'variable_11'
p107
ag69
aS'variable_9'
p108
ag71
ag20
aS"'"
p109
aS'\\'
p110
ag55
ag109
ag17
aS'variable_6'
p111
ag20
aS'variable_4'
p112
ag62
aS'variable_8'
p113
ag17
aS'if'
p114
ag6
aS'!'
p115
aS'func_8'
p116
ag6
aS'variable_14'
p117
ag14
ag14
aS'uint32_t'
p118
aS'variable_15'
p119
ag17
aS'if'
p120
ag6
aS'func_9'
p121
ag6
aS'variable_1'
p122
ag69
aS'variable_8'
p123
ag62
ag81
ag71
ag14
aS'&&'
p124
aS'variable_4'
p125
aS'>'
p126
aS'variable_8'
p127
aS'&&'
p128
aS'func_10'
p129
ag6
aS'variable_1'
p130
ag69
aS'variable_8'
p131
ag71
ag14
ag14
aS'variable_15'
p132
ag20
aS'func_11'
p133
ag6
aS'variable_1'
p134
ag69
aS'variable_8'
p135
ag62
ag81
ag71
ag11
aS'variable_1'
p136
ag69
aS'variable_8'
p137
ag71
ag14
ag17
aS'variable_8'
p138
aS'++'
p139
ag17
aS'variable_15'
p140
ag20
aS'variable_1'
p141
ag69
aS'variable_8'
p142
ag62
ag81
ag71
ag17
aS'variable_3'
p143
ag20
aS'variable_10'
p144
aS'->'
p145
aS'func_12'
p146
ag6
aS'variable_1'
p147
ag46
aS'variable_8'
p148
ag11
aS'variable_4'
p149
ag62
aS'variable_8'
p150
ag11
ag39
aS'variable_7'
p151
ag14
ag17
aS'if'
p152
ag6
aS'func_13'
p153
ag6
aS'variable_3'
p154
ag14
ag14
aS'variable_3'
p155
ag20
aS'func_14'
p156
ag6
aS'variable_15'
p157
ag11
ag39
aS'variable_11'
p158
ag11
ag39
aS'variable_5'
p159
ag11
ag39
aS'variable_9'
p160
ag11
aS'variable_7'
p161
ag14
ag17
aS'if'
p162
ag6
aS'func_15'
p163
ag6
aS'variable_3'
p164
ag14
ag14
aS'variable_11'
p165
ag69
aS'variable_9'
p166
ag71
ag20
ag109
ag110
ag55
ag109
ag17
aS'if'
p167
ag6
aS'func_16'
p168
ag6
aS'variable_3'
p169
ag14
ag14
aS'variable_7'
p170
ag20
aS'variable_5'
p171
ag62
aS'variable_9'
p172
ag17
aS'variable_3'
p173
ag20
aS'variable_10'
p174
aS'->'
p175
aS'func_17'
p176
ag6
ag39
aS'variable_11'
p177
ag69
aS'variable_9'
p178
ag71
ag11
ag39
aS'variable_7'
p179
ag14
ag17
aS'if'
p180
ag6
aS'func_18'
p181
ag6
aS'variable_3'
p182
ag14
ag14
aS'variable_9'
p183
aS'+='
p184
aS'variable_7'
p185
ag17
aS'variable_11'
p186
ag69
aS'variable_9'
p187
ag71
ag20
ag109
ag110
ag55
ag109
ag17
aS'if'
p188
ag6
aS'func_19'
p189
ag6
aS'variable_3'
p190
ag14
ag14
aS'func_20'
p191
ag6
aS'variable_11'
p192
ag14
ag17
aS'return'
p193
aS'variable_3'
p194
ag17
ag9
aS'variable_2'
p195
ag20
aS'variable_11'
p196
ag17
aS'return'
p197
aS'variable_3'
p198
ag17
aa(lp199
S'variable_0'
p200
ag4
ag4
aS'func_0'
p201
ag6
aS'const'
p202
aS'PRUnichar'
p203
ag9
aS'variable_1'
p204
ag11
aS'char'
p205
ag9
ag9
aS'variable_2'
p206
ag14
aS'nsresult'
p207
aS'variable_3'
p208
ag17
aS'int32_t'
p209
aS'variable_4'
p210
ag20
aS'func_1'
p211
ag6
aS'variable_1'
p212
ag14
ag17
aS'int32_t'
p213
aS'variable_5'
p214
ag17
aS'int32_t'
p215
aS'variable_6'
p216
ag20
aS'variable_4'
p217
ag17
aS'int32_t'
p218
aS'variable_7'
p219
ag17
aS'int32_t'
p220
aS'variable_8'
p221
ag11
aS'variable_9'
p222
ag17
aS'variable_3'
p223
ag20
aS'variable_10'
p224
aS'->'
p225
aS'func_2'
p226
ag6
aS'variable_1'
p227
ag11
aS'variable_4'
p228
ag11
ag39
aS'variable_7'
p229
ag14
ag17
aS'if'
p230
ag6
aS'func_3'
p231
ag6
aS'variable_3'
p232
ag14
ag14
aS'variable_5'
p233
ag20
aS'variable_7'
p234
ag46
aS'512'
p235
ag17
aS'char'
p236
ag9
aS'variable_11'
p237
ag20
ag6
aS'char'
p238
ag9
ag14
aS'func_4'
p239
ag6
aS'variable_5'
p240
ag14
ag17
aS'for'
p241
ag6
aS'variable_8'
p242
ag20
ag55
ag11
aS'variable_9'
p243
ag20
ag55
ag17
aS'variable_8'
p244
ag58
aS'variable_4'
p245
ag17
ag14
aS'variable_7'
p246
ag20
aS'variable_5'
p247
ag62
aS'variable_9'
p248
ag17
aS'variable_3'
p249
ag20
aS'variable_10'
p250
aS'->'
p251
aS'func_5'
p252
ag6
ag39
aS'variable_1'
p253
ag69
aS'variable_8'
p254
ag71
ag11
ag39
aS'variable_6'
p255
ag11
ag39
aS'variable_11'
p256
ag69
aS'variable_9'
p257
ag71
ag11
ag39
aS'variable_7'
p258
ag14
ag17
aS'variable_8'
p259
aS'+='
p260
aS'variable_6'
p261
ag79
aS'variable_6'
p262
ag4
ag81
ag17
aS'variable_9'
p263
aS'+='
p264
aS'variable_7'
p265
ag17
aS'if'
p266
ag6
aS'variable_12'
p267
aS'!='
p268
aS'variable_3'
p269
ag14
aS'variable_3'
p270
ag20
aS'variable_13'
p271
ag17
aS'variable_7'
p272
ag20
aS'variable_5'
p273
ag62
aS'variable_9'
p274
ag17
aS'variable_3'
p275
ag20
aS'variable_10'
p276
aS'->'
p277
aS'func_6'
p278
ag6
ag39
aS'variable_11'
p279
ag69
aS'variable_9'
p280
ag71
ag11
ag39
aS'variable_7'
p281
ag14
ag17
aS'if'
p282
ag6
aS'func_7'
p283
ag6
aS'variable_3'
p284
ag14
ag14
aS'variable_9'
p285
aS'+='
p286
aS'variable_7'
p287
ag17
aS'variable_11'
p288
ag69
aS'variable_9'
p289
ag71
ag20
ag109
ag110
ag55
ag109
ag17
aS'variable_6'
p290
ag20
aS'variable_4'
p291
ag62
aS'variable_8'
p292
ag17
aS'if'
p293
ag6
ag115
aS'func_8'
p294
ag6
aS'variable_14'
p295
ag14
ag14
aS'uint32_t'
p296
aS'variable_15'
p297
ag17
aS'if'
p298
ag6
aS'func_9'
p299
ag6
aS'variable_1'
p300
ag69
aS'variable_8'
p301
ag62
ag81
ag71
ag14
aS'&&'
p302
aS'variable_4'
p303
ag126
aS'variable_8'
p304
aS'&&'
p305
aS'func_10'
p306
ag6
aS'variable_1'
p307
ag69
aS'variable_8'
p308
ag71
ag14
ag14
aS'variable_15'
p309
ag20
aS'func_11'
p310
ag6
aS'variable_1'
p311
ag69
aS'variable_8'
p312
ag62
ag81
ag71
ag11
aS'variable_1'
p313
ag69
aS'variable_8'
p314
ag71
ag14
ag17
aS'variable_8'
p315
aS'++'
p316
ag17
aS'variable_15'
p317
ag20
aS'variable_1'
p318
ag69
aS'variable_8'
p319
ag62
ag81
ag71
ag17
aS'variable_3'
p320
ag20
aS'variable_10'
p321
aS'->'
p322
aS'func_12'
p323
ag6
aS'variable_1'
p324
ag46
aS'variable_8'
p325
ag11
aS'variable_4'
p326
ag62
aS'variable_8'
p327
ag11
ag39
aS'variable_7'
p328
ag14
ag17
aS'if'
p329
ag6
aS'func_13'
p330
ag6
aS'variable_3'
p331
ag14
ag14
aS'variable_3'
p332
ag20
aS'func_14'
p333
ag6
aS'variable_15'
p334
ag11
ag39
aS'variable_11'
p335
ag11
ag39
aS'variable_5'
p336
ag11
ag39
aS'variable_9'
p337
ag11
aS'variable_7'
p338
ag14
ag17
aS'if'
p339
ag6
aS'func_15'
p340
ag6
aS'variable_3'
p341
ag14
ag14
aS'if'
p342
ag6
aS'func_16'
p343
ag6
aS'variable_3'
p344
ag14
ag14
aS'if'
p345
ag6
aS'func_17'
p346
ag6
aS'variable_3'
p347
ag14
ag14
aS'if'
p348
ag6
aS'func_18'
p349
ag6
aS'variable_3'
p350
ag14
ag14
aS'return'
p351
aS'variable_3'
p352
ag17
aS'return'
p353
aS'variable_3'
p354
ag17
aa(lp355
S'variable_0'
p356
ag4
ag4
aS'func_0'
p357
ag6
aS'const'
p358
aS'PRUnichar'
p359
ag9
aS'variable_1'
p360
ag11
aS'char'
p361
ag9
ag9
aS'variable_2'
p362
ag14
aS'nsresult'
p363
aS'variable_3'
p364
ag17
aS'int32_t'
p365
aS'variable_4'
p366
ag20
aS'func_1'
p367
ag6
aS'variable_1'
p368
ag14
ag17
aS'int32_t'
p369
aS'variable_5'
p370
ag17
aS'int32_t'
p371
aS'variable_6'
p372
ag20
aS'variable_4'
p373
ag17
aS'int32_t'
p374
aS'variable_7'
p375
ag17
aS'int32_t'
p376
aS'variable_8'
p377
ag11
aS'variable_9'
p378
ag17
aS'variable_3'
p379
ag20
aS'variable_10'
p380
aS'->'
p381
aS'func_2'
p382
ag6
aS'variable_1'
p383
ag11
aS'variable_4'
p384
ag11
ag39
aS'variable_7'
p385
ag14
ag17
aS'if'
p386
ag6
aS'func_3'
p387
ag6
aS'variable_3'
p388
ag14
ag14
aS'variable_5'
p389
ag20
aS'variable_7'
p390
ag46
aS'512'
p391
ag17
aS'char'
p392
ag9
aS'variable_11'
p393
ag20
ag6
aS'char'
p394
ag9
ag14
aS'func_4'
p395
ag6
aS'variable_5'
p396
ag14
ag17
aS'for'
p397
ag6
aS'variable_8'
p398
ag20
ag55
ag11
aS'variable_9'
p399
ag20
ag55
ag17
aS'variable_8'
p400
ag58
aS'variable_4'
p401
ag17
ag14
aS'variable_7'
p402
ag20
aS'variable_5'
p403
ag62
aS'variable_9'
p404
ag17
aS'variable_3'
p405
ag20
aS'variable_10'
p406
aS'->'
p407
aS'func_5'
p408
ag6
ag39
aS'variable_1'
p409
ag69
aS'variable_8'
p410
ag71
ag11
ag39
aS'variable_6'
p411
ag11
ag39
aS'variable_11'
p412
ag69
aS'variable_9'
p413
ag71
ag11
ag39
aS'variable_7'
p414
ag14
ag17
aS'variable_8'
p415
aS'+='
p416
aS'variable_6'
p417
ag79
aS'variable_6'
p418
ag4
ag81
ag17
aS'variable_9'
p419
aS'+='
p420
aS'variable_7'
p421
ag17
aS'if'
p422
ag6
aS'variable_12'
p423
aS'!='
p424
aS'variable_3'
p425
ag14
aS'variable_13'
p426
ag20
aS'variable_3'
p427
ag17
aS'variable_3'
p428
ag20
aS'variable_14'
p429
ag17
aS'variable_7'
p430
ag20
aS'variable_5'
p431
ag62
aS'variable_9'
p432
ag17
aS'variable_3'
p433
ag20
aS'variable_10'
p434
aS'->'
p435
aS'func_6'
p436
ag6
ag39
aS'variable_11'
p437
ag69
aS'variable_9'
p438
ag71
ag11
ag39
aS'variable_7'
p439
ag14
ag17
aS'if'
p440
ag6
aS'func_7'
p441
ag6
aS'variable_3'
p442
ag14
ag14
aS'variable_9'
p443
aS'+='
p444
aS'variable_7'
p445
ag17
aS'variable_11'
p446
ag69
aS'variable_9'
p447
ag71
ag20
ag109
ag110
ag55
ag109
ag17
aS'variable_6'
p448
ag20
aS'variable_4'
p449
ag62
aS'variable_8'
p450
ag17
aS'if'
p451
ag6
ag115
aS'func_8'
p452
ag6
aS'variable_15'
p453
ag14
ag14
aS'uint32_t'
p454
aS'variable_16'
p455
ag17
aS'if'
p456
ag6
aS'func_9'
p457
ag6
aS'variable_1'
p458
ag69
aS'variable_8'
p459
ag62
ag81
ag71
ag14
aS'&&'
p460
aS'variable_4'
p461
ag126
aS'variable_8'
p462
aS'&&'
p463
aS'func_10'
p464
ag6
aS'variable_1'
p465
ag69
aS'variable_8'
p466
ag71
ag14
ag14
aS'variable_16'
p467
ag20
aS'func_11'
p468
ag6
aS'variable_1'
p469
ag69
aS'variable_8'
p470
ag62
ag81
ag71
ag11
aS'variable_1'
p471
ag69
aS'variable_8'
p472
ag71
ag14
ag17
aS'variable_8'
p473
aS'++'
p474
ag17
aS'variable_16'
p475
ag20
aS'variable_1'
p476
ag69
aS'variable_8'
p477
ag62
ag81
ag71
ag17
aS'variable_3'
p478
ag20
aS'variable_10'
p479
aS'->'
p480
aS'func_12'
p481
ag6
aS'variable_1'
p482
ag46
aS'variable_8'
p483
ag11
aS'variable_4'
p484
ag62
aS'variable_8'
p485
ag11
ag39
aS'variable_7'
p486
ag14
ag17
aS'if'
p487
ag6
aS'func_13'
p488
ag6
aS'variable_3'
p489
ag14
ag14
aS'variable_3'
p490
ag20
aS'func_14'
p491
ag6
aS'variable_16'
p492
ag11
ag39
aS'variable_11'
p493
ag11
ag39
aS'variable_5'
p494
ag11
ag39
aS'variable_9'
p495
ag11
aS'variable_7'
p496
ag14
ag17
aS'if'
p497
ag6
aS'func_15'
p498
ag6
aS'variable_3'
p499
ag14
ag14
aS'if'
p500
ag6
aS'func_16'
p501
ag6
aS'variable_3'
p502
ag14
ag14
aS'if'
p503
ag6
aS'func_17'
p504
ag6
aS'variable_3'
p505
ag14
ag14
aS'if'
p506
ag6
aS'func_18'
p507
ag6
aS'variable_3'
p508
ag14
ag14
aS'return'
p509
aS'variable_3'
p510
ag17
aS'if'
p511
ag6
aS'variable_12'
p512
aS'=='
p513
aS'variable_13'
p514
ag14
aS'return'
p515
aS'variable_3'
p516
ag17
aa(lp517
S'variable_0'
p518
ag4
ag4
aS'func_0'
p519
ag6
aS'const'
p520
aS'PRUnichar'
p521
ag9
aS'variable_1'
p522
ag11
aS'char'
p523
ag9
ag9
aS'variable_2'
p524
ag14
aS'nsresult'
p525
aS'variable_3'
p526
ag17
aS'int32_t'
p527
aS'variable_4'
p528
ag20
aS'func_1'
p529
ag6
aS'variable_1'
p530
ag14
ag17
aS'int32_t'
p531
aS'variable_5'
p532
ag17
aS'int32_t'
p533
aS'variable_6'
p534
ag20
aS'variable_4'
p535
ag17
aS'int32_t'
p536
aS'variable_7'
p537
ag17
aS'int32_t'
p538
aS'variable_8'
p539
ag11
aS'variable_9'
p540
ag17
aS'variable_3'
p541
ag20
aS'variable_10'
p542
aS'->'
p543
aS'func_2'
p544
ag6
aS'variable_1'
p545
ag11
aS'variable_4'
p546
ag11
ag39
aS'variable_7'
p547
ag14
ag17
aS'if'
p548
ag6
aS'func_3'
p549
ag6
aS'variable_3'
p550
ag14
ag14
aS'variable_5'
p551
ag20
aS'variable_7'
p552
ag46
aS'512'
p553
ag17
aS'char'
p554
ag9
aS'variable_11'
p555
ag20
ag6
aS'char'
p556
ag9
ag14
aS'func_4'
p557
ag6
aS'variable_5'
p558
ag14
ag17
aS'for'
p559
ag6
aS'variable_8'
p560
ag20
ag55
ag11
aS'variable_9'
p561
ag20
ag55
ag17
aS'variable_8'
p562
ag58
aS'variable_4'
p563
ag17
ag14
aS'variable_7'
p564
ag20
aS'variable_5'
p565
ag62
aS'variable_9'
p566
ag17
aS'variable_3'
p567
ag20
aS'variable_10'
p568
aS'->'
p569
aS'func_5'
p570
ag6
ag39
aS'variable_1'
p571
ag69
aS'variable_8'
p572
ag71
ag11
ag39
aS'variable_6'
p573
ag11
ag39
aS'variable_11'
p574
ag69
aS'variable_9'
p575
ag71
ag11
ag39
aS'variable_7'
p576
ag14
ag17
aS'variable_8'
p577
aS'+='
p578
aS'variable_6'
p579
ag79
aS'variable_6'
p580
ag4
ag81
ag17
aS'variable_9'
p581
aS'+='
p582
aS'variable_7'
p583
ag17
aS'variable_11'
p584
ag69
aS'variable_9'
p585
ag71
ag20
ag109
ag110
ag55
ag109
ag17
aS'if'
p586
ag6
aS'variable_12'
p587
aS'!='
p588
aS'variable_3'
p589
ag14
aS'variable_13'
p590
ag20
aS'variable_3'
p591
ag17
aS'variable_3'
p592
ag20
aS'variable_14'
p593
ag17
aS'variable_7'
p594
ag20
aS'variable_5'
p595
ag62
aS'variable_9'
p596
ag17
aS'variable_3'
p597
ag20
aS'variable_10'
p598
aS'->'
p599
aS'func_6'
p600
ag6
ag39
aS'variable_11'
p601
ag69
aS'variable_9'
p602
ag71
ag11
ag39
aS'variable_7'
p603
ag14
ag17
aS'if'
p604
ag6
aS'func_7'
p605
ag6
aS'variable_3'
p606
ag14
ag14
aS'variable_9'
p607
aS'+='
p608
aS'variable_7'
p609
ag17
aS'variable_11'
p610
ag69
aS'variable_9'
p611
ag71
ag20
ag109
ag110
ag55
ag109
ag17
aS'variable_6'
p612
ag20
aS'variable_4'
p613
ag62
aS'variable_8'
p614
ag17
aS'if'
p615
ag6
ag115
aS'func_8'
p616
ag6
aS'variable_15'
p617
ag14
ag14
aS'uint32_t'
p618
aS'variable_16'
p619
ag17
aS'if'
p620
ag6
aS'func_9'
p621
ag6
aS'variable_1'
p622
ag69
aS'variable_8'
p623
ag62
ag81
ag71
ag14
aS'&&'
p624
aS'variable_4'
p625
ag126
aS'variable_8'
p626
aS'&&'
p627
aS'func_10'
p628
ag6
aS'variable_1'
p629
ag69
aS'variable_8'
p630
ag71
ag14
ag14
aS'variable_16'
p631
ag20
aS'func_11'
p632
ag6
aS'variable_1'
p633
ag69
aS'variable_8'
p634
ag62
ag81
ag71
ag11
aS'variable_1'
p635
ag69
aS'variable_8'
p636
ag71
ag14
ag17
aS'variable_8'
p637
aS'++'
p638
ag17
aS'variable_16'
p639
ag20
aS'variable_1'
p640
ag69
aS'variable_8'
p641
ag62
ag81
ag71
ag17
aS'variable_3'
p642
ag20
aS'variable_10'
p643
aS'->'
p644
aS'func_12'
p645
ag6
aS'variable_1'
p646
ag46
aS'variable_8'
p647
ag11
aS'variable_4'
p648
ag62
aS'variable_8'
p649
ag11
ag39
aS'variable_7'
p650
ag14
ag17
aS'if'
p651
ag6
aS'func_13'
p652
ag6
aS'variable_3'
p653
ag14
ag14
aS'variable_3'
p654
ag20
aS'func_14'
p655
ag6
aS'variable_16'
p656
ag11
ag39
aS'variable_11'
p657
ag11
ag39
aS'variable_5'
p658
ag11
ag39
aS'variable_9'
p659
ag11
aS'variable_7'
p660
ag14
ag17
aS'if'
p661
ag6
aS'func_15'
p662
ag6
aS'variable_3'
p663
ag14
ag14
aS'variable_11'
p664
ag69
aS'variable_9'
p665
ag71
ag20
ag109
ag110
ag55
ag109
ag17
aS'if'
p666
ag6
aS'func_16'
p667
ag6
aS'variable_3'
p668
ag14
ag14
aS'variable_7'
p669
ag20
aS'variable_5'
p670
ag62
aS'variable_9'
p671
ag17
aS'variable_3'
p672
ag20
aS'variable_10'
p673
aS'->'
p674
aS'func_17'
p675
ag6
ag39
aS'variable_11'
p676
ag69
aS'variable_9'
p677
ag71
ag11
ag39
aS'variable_7'
p678
ag14
ag17
aS'if'
p679
ag6
aS'func_18'
p680
ag6
aS'variable_3'
p681
ag14
ag14
aS'variable_9'
p682
aS'+='
p683
aS'variable_7'
p684
ag17
aS'variable_11'
p685
ag69
aS'variable_9'
p686
ag71
ag20
ag109
ag110
ag55
ag109
ag17
aS'if'
p687
ag6
aS'func_19'
p688
ag6
aS'variable_3'
p689
ag14
ag14
aS'func_20'
p690
ag6
aS'variable_11'
p691
ag14
ag17
aS'return'
p692
aS'variable_3'
p693
ag17
ag9
aS'variable_2'
p694
ag20
aS'variable_11'
p695
ag17
aS'if'
p696
ag6
aS'variable_12'
p697
aS'=='
p698
aS'variable_13'
p699
ag14
aS'return'
p700
aS'variable_3'
p701
ag17
aaa(lp702
I0
aI0
aI0
aI0
aa(lp703
I334
aI279
aI201
aI168
aa(lp704
(lp705
S'main'
p706
aa(lp707
g706
aa(lp708
g706
aa(lp709
g706
aaa(lp710
S'137 ../data/NVD/CVE_2013_0782_VULN_nsSaveAsCharset__DoCharsetConversion.c dstLength = bufferLength - pos2 73'
p711
aS'138 ../data/NVD/CVE_2013_0782_VULN_nsSaveAsCharset__DoCharsetConversion.c rv = mEncoder -> GetMaxLength ( inString + pos1 , inStringLength - pos1 , & dstLength ) 60'
p712
aS'139 ../data/NVD/CVE_2013_0782_VULN_nsSaveAsCharset__DoCharsetConversion.c srcLength = inStringLength - pos1 47'
p713
aS'140 ../data/NVD/CVE_2013_0782_VULN_nsSaveAsCharset__DoCharsetConversion.c dstLength = bufferLength - pos2 40'
p714
aa.