(lp0
(lp1
(lp2
S'static'
p3
aS'int'
p4
aS'func_0'
p5
aS'('
p6
aS'struct'
p7
aS'variable_0'
p8
aS'*'
p9
aS'variable_1'
p10
aS','
p11
aS'u64'
p12
aS'variable_2'
p13
ag11
aS'struct'
p14
aS'iovec'
p15
aS'variable_3'
p16
aS'['
p17
aS']'
p18
ag11
aS'int'
p19
aS'variable_4'
p20
aS')'
p21
aS'const'
p22
aS'struct'
p23
aS'variable_5'
p24
ag9
aS'variable_6'
p25
aS';'
p26
aS'struct'
p27
aS'variable_7'
p28
ag9
aS'variable_8'
p29
ag26
aS'struct'
p30
aS'variable_9'
p31
ag9
aS'variable_10'
p32
ag26
aS'u64'
p33
aS'variable_11'
p34
aS'='
p35
aS'0'
p36
ag26
aS'int'
p37
aS'variable_12'
p38
ag35
ag36
ag26
aS'variable_8'
p39
ag35
aS'func_1'
p40
ag6
aS'variable_1'
p41
aS'->'
p42
aS'variable_13'
p43
ag21
ag26
aS'while'
p44
ag6
ag6
aS'variable_14'
p45
ag21
aS'variable_15'
p46
aS'>'
p47
aS'variable_11'
p48
ag21
aS'u64'
p49
aS'variable_16'
p50
ag26
aS'if'
p51
ag6
aS'func_2'
p52
ag6
aS'variable_12'
p53
ag47
ag35
aS'variable_4'
p54
ag21
ag21
aS'variable_6'
p55
ag35
aS'func_3'
p56
ag6
aS'variable_8'
p57
ag11
aS'variable_2'
p58
ag11
aS'variable_15'
p59
ag21
ag26
aS'if'
p60
ag6
aS'func_4'
p61
ag6
aS'!'
p62
aS'variable_6'
p63
ag21
ag21
aS'variable_10'
p64
ag35
aS'variable_3'
p65
aS'+'
p66
aS'variable_12'
p67
ag26
aS'variable_16'
p68
ag35
aS'variable_6'
p69
aS'->'
p70
aS'variable_17'
p71
aS'-'
p72
aS'variable_2'
p73
ag66
aS'variable_6'
p74
aS'->'
p75
aS'variable_18'
p76
ag26
aS'variable_10'
p77
aS'->'
p78
aS'variable_19'
p79
ag35
aS'min'
p80
ag6
ag6
aS'variable_14'
p81
ag21
aS'variable_15'
p82
ag11
aS'variable_16'
p83
ag21
ag26
aS'variable_10'
p84
aS'->'
p85
aS'variable_20'
p86
ag35
ag6
aS'void'
p87
aS'__user'
p88
ag9
ag21
ag6
aS'unsigned'
p89
aS'long'
p90
ag21
ag6
aS'variable_6'
p91
aS'->'
p92
aS'variable_21'
p93
ag66
aS'variable_2'
p94
ag72
aS'variable_6'
p95
aS'->'
p96
aS'variable_18'
p97
ag21
ag26
aS'variable_11'
p98
aS'+='
p99
aS'variable_16'
p100
ag26
aS'variable_2'
p101
aS'+='
p102
aS'variable_16'
p103
ag26
aa(lp104
S'static'
p105
aS'int'
p106
aS'func_0'
p107
ag6
aS'struct'
p108
aS'variable_0'
p109
ag9
aS'variable_1'
p110
ag11
aS'u64'
p111
aS'variable_2'
p112
ag11
aS'struct'
p113
aS'iovec'
p114
aS'variable_3'
p115
ag17
ag18
ag11
aS'int'
p116
aS'variable_4'
p117
ag21
aS'const'
p118
aS'struct'
p119
aS'variable_5'
p120
ag9
aS'variable_6'
p121
ag26
aS'struct'
p122
aS'variable_7'
p123
ag9
aS'variable_8'
p124
ag26
aS'u64'
p125
aS'variable_9'
p126
ag35
ag36
ag26
aS'int'
p127
aS'variable_10'
p128
ag35
ag36
ag26
aS'variable_8'
p129
ag35
aS'func_1'
p130
ag6
aS'variable_1'
p131
aS'->'
p132
aS'variable_11'
p133
ag21
ag26
aS'while'
p134
ag6
ag6
aS'variable_12'
p135
ag21
aS'variable_13'
p136
ag47
aS'variable_9'
p137
ag21
aS'u64'
p138
aS'variable_14'
p139
ag26
aS'if'
p140
ag6
aS'func_2'
p141
ag6
aS'variable_10'
p142
ag47
ag35
aS'variable_4'
p143
ag21
ag21
aS'variable_6'
p144
ag35
aS'func_3'
p145
ag6
aS'variable_8'
p146
ag11
aS'variable_2'
p147
ag11
aS'variable_13'
p148
ag21
ag26
aS'if'
p149
ag6
aS'func_4'
p150
ag6
ag62
aS'variable_6'
p151
ag21
ag21
aS'variable_14'
p152
ag35
aS'variable_6'
p153
aS'->'
p154
aS'variable_15'
p155
ag72
aS'variable_2'
p156
ag66
aS'variable_6'
p157
aS'->'
p158
aS'variable_16'
p159
ag26
aS'variable_17'
p160
aS'->'
p161
aS'variable_18'
p162
ag35
aS'min'
p163
ag6
ag6
aS'variable_12'
p164
ag21
aS'variable_13'
p165
ag11
aS'variable_14'
p166
ag21
ag26
aS'variable_17'
p167
aS'->'
p168
aS'variable_19'
p169
ag35
ag6
aS'void'
p170
aS'__user'
p171
ag9
ag21
ag6
aS'unsigned'
p172
aS'long'
p173
ag21
ag6
aS'variable_6'
p174
aS'->'
p175
aS'variable_20'
p176
ag66
aS'variable_2'
p177
ag72
aS'variable_6'
p178
aS'->'
p179
aS'variable_16'
p180
ag21
ag26
aS'variable_9'
p181
aS'+='
p182
aS'variable_14'
p183
ag26
aS'variable_2'
p184
aS'+='
p185
aS'variable_14'
p186
ag26
aaa(lp187
I0
aI0
aa(lp188
I136
aI101
aa(lp189
(lp190
S'main'
p191
aa(lp192
g191
aaa(lp193
S'108 ../data/NVD/CVE_2013_0311_VULN_translate_desc.c _iov -> iov_base = ( void __user * ) ( unsigned long ) ( reg -> userspace_addr + addr - reg -> guest_phys_addr ) 27'
p194
aS'109 ../data/NVD/CVE_2013_0311_VULN_translate_desc.c size = reg -> memory_size - addr + reg -> guest_phys_addr 25'
p195
aa.