(lp0
(lp1
(lp2
S'static'
p3
aS'int'
p4
aS'func_0'
p5
aS'('
p6
aS'const'
p7
aS'char'
p8
aS'*'
p9
aS'variable_0'
p10
aS','
p11
aS'variable_1'
p12
ag9
aS'variable_2'
p13
aS')'
p14
aS'variable_3'
p15
ag9
aS'variable_4'
p16
aS';'
p17
aS'if'
p18
ag6
aS'variable_5'
p19
aS'>'
p20
aS'='
p21
aS'variable_6'
p22
aS'/'
p23
aS'sizeof'
p24
ag6
aS'variable_7'
p25
ag14
ag14
aS'if'
p26
ag6
aS'func_1'
p27
ag6
aS'&'
p28
aS'variable_2'
p29
aS'->'
p30
aS'variable_8'
p31
ag14
aS'<'
p32
aS'variable_5'
p33
ag9
aS'sizeof'
p34
ag6
aS'variable_7'
p35
ag14
ag14
aS'variable_4'
p36
ag21
aS'func_2'
p37
ag6
aS'variable_5'
p38
ag9
aS'sizeof'
p39
ag6
aS'variable_3'
p40
ag14
ag14
ag17
aS'if'
p41
ag6
aS'!'
p42
aS'variable_4'
p43
ag14
aS'variable_4'
p44
aS'['
p45
aS'variable_9'
p46
aS']'
p47
ag21
aS'func_3'
p48
ag6
ag28
aS'variable_2'
p49
aS'->'
p50
aS'variable_8'
p51
ag11
aS'variable_2'
p52
aS'->'
p53
aS'variable_10'
p54
ag14
ag17
aS'variable_11'
p55
ag21
aS'func_4'
p56
ag6
aS'variable_4'
p57
ag11
aS'variable_5'
p58
ag11
aS'variable_12'
p59
ag14
ag17
aS'func_5'
p60
ag6
ag28
aS'variable_4'
p61
ag14
ag17
aS'if'
p62
ag6
ag42
aS'variable_11'
p63
ag14
aS'func_6'
p64
ag6
ag28
aS'variable_2'
p65
aS'->'
p66
aS'variable_13'
p67
aS'.'
p68
aS'variable_14'
p69
ag11
aS'variable_0'
p70
ag11
aS'variable_11'
p71
ag11
aS'variable_15'
p72
ag14
ag17
aaa(lp73
I0
aa(lp74
I55
aa(lp75
(lp76
S'main'
p77
aaa(lp78
S'182 ../data/NVD/CVE_2013_0859_VULN_add_doubles_metadata.c dp = av_malloc ( count * sizeof ( double ) ) 14'
p79
aa.