(lp0
(lp1
(lp2
S'static'
p3
aS'func_0'
p4
aS'('
p5
aS'variable_0'
p6
aS'*'
p7
aS'variable_1'
p8
aS','
p9
aS'variable_2'
p10
ag7
aS'variable_3'
p11
ag9
aS'variable_4'
p12
ag7
aS'variable_5'
p13
aS')'
p14
aS'int'
p15
aS'variable_6'
p16
aS'='
p17
aS'0'
p18
aS';'
p19
aS'guint8'
p20
aS'variable_7'
p21
ag9
aS'variable_8'
p22
ag19
aS'variable_6'
p23
aS'+='
p24
aS'4'
p25
ag19
aS'while'
p26
ag5
aS'func_1'
p27
ag5
aS'variable_3'
p28
ag9
aS'variable_6'
p29
ag14
aS'>'
p30
ag18
ag14
aS'variable_8'
p31
ag17
aS'func_2'
p32
ag5
aS'variable_3'
p33
ag9
aS'variable_6'
p34
aS'+'
p35
aS'1'
p36
ag14
ag19
aS'variable_7'
p37
ag17
aS'func_3'
p38
ag5
aS'variable_3'
p39
ag9
aS'variable_6'
p40
ag14
ag19
aS'func_4'
p41
ag5
aS'variable_1'
p42
ag9
aS'variable_9'
p43
ag9
aS'variable_3'
p44
ag9
aS'variable_6'
p45
ag9
ag36
ag9
aS'variable_10'
p46
ag14
ag19
aS'variable_6'
p47
aS'++'
p48
ag19
aS'variable_11'
p49
ag17
aS'func_5'
p50
ag5
aS'variable_1'
p51
ag9
aS'variable_12'
p52
ag9
aS'variable_3'
p53
ag9
aS'variable_6'
p54
ag9
ag36
ag9
aS'variable_10'
p55
ag14
ag19
aS'variable_6'
p56
aS'++'
p57
ag19
aS'if'
p58
ag5
aS'variable_8'
p59
aS'<'
p60
aS'2'
p61
ag14
aS'func_6'
p62
ag5
aS'variable_5'
p63
ag9
aS'variable_11'
p64
ag9
aS'variable_13'
p65
ag9
aS'variable_14'
p66
ag9
aS'"'
p67
aS'Sub'
p68
aS'-'
p69
aS'Type'
p70
aS'Length'
p71
aS'should'
p72
aS'be'
p73
aS'at'
p74
aS'least'
p75
ag61
ag67
ag14
ag19
aS'variable_8'
p76
ag17
ag61
ag19
aS'if'
p77
ag5
aS'variable_7'
p78
aS'=='
p79
ag36
ag14
aS'func_7'
p80
ag5
aS'variable_1'
p81
ag9
aS'variable_15'
p82
ag9
aS'variable_3'
p83
ag9
aS'variable_6'
p84
ag9
ag36
ag9
aS'variable_10'
p85
ag14
ag19
aS'variable_6'
p86
aS'++'
p87
ag19
aS'func_8'
p88
ag5
aS'variable_1'
p89
ag9
aS'variable_16'
p90
ag9
aS'variable_3'
p91
ag9
aS'variable_6'
p92
ag9
ag36
ag9
aS'variable_10'
p93
ag14
ag19
aS'variable_6'
p94
aS'++'
p95
ag19
aS'variable_6'
p96
ag17
aS'variable_6'
p97
ag35
aS'variable_8'
p98
ag69
ag61
ag19
aaa(lp99
I0
aa(lp100
I180
aa(lp101
(lp102
S'main'
p103
aaa(lp104
S'55 ../data/NVD/CVE_2012_6055_PATCHED_dissect_3gpp2_service_option_profile.c offset = offset + sub_type_length - 2 32'
p105
aa.