(lp0
(lp1
(lp2
S'variable_0'
p3
aS':'
p4
ag4
aS'func_0'
p5
aS'('
p6
aS'uint32_t'
p7
aS'variable_1'
p8
aS','
p9
aS'char'
p10
aS'*'
p11
ag11
aS'variable_2'
p12
ag9
aS'variable_3'
p13
ag11
aS'variable_4'
p14
ag9
aS'int32_t'
p15
aS'variable_5'
p16
aS')'
p17
aS'char'
p18
aS'variable_6'
p19
aS'['
p20
aS'256'
p21
aS']'
p22
aS';'
p23
aS'nsresult'
p24
aS'variable_7'
p25
aS'='
p26
aS'func_1'
p27
ag6
aS'variable_1'
p28
ag9
aS'variable_6'
p29
ag9
aS'256'
p30
ag17
ag23
aS'if'
p31
ag6
aS'func_2'
p32
ag6
aS'variable_7'
p33
ag17
ag17
aS'int32_t'
p34
aS'variable_8'
p35
ag26
ag6
aS'variable_3'
p36
ag17
aS'func_3'
p37
ag6
aS'variable_6'
p38
ag17
ag23
aS'if'
p39
ag6
ag6
aS'variable_8'
p40
aS'+'
p41
aS'variable_5'
p42
ag17
aS'>'
p43
ag26
ag6
ag11
aS'variable_9'
p44
aS'-'
p45
ag11
aS'variable_4'
p46
ag17
ag17
aS'char'
p47
ag11
aS'variable_10'
p48
ag26
ag6
aS'char'
p49
ag11
ag17
aS'func_4'
p50
ag6
ag11
aS'variable_2'
p51
ag9
ag11
aS'variable_9'
p52
ag41
aS'variable_8'
p53
ag17
ag23
aS'if'
p54
ag6
aS'variable_10'
p55
ag17
ag11
aS'variable_2'
p56
ag26
aS'variable_10'
p57
ag23
aS'memcpy'
p58
ag6
ag6
ag11
aS'variable_2'
p59
ag41
ag11
aS'variable_4'
p60
ag17
ag9
aS'variable_6'
p61
ag9
aS'variable_8'
p62
ag17
ag23
aaa(lp63
I0
aa(lp64
I100
aa(lp65
(lp66
S'main'
p67
aaa(lp68
S'97 ../data/NVD/CVE_2013_0782_VULN_nsSaveAsCharset__HandleFallBack.c memcpy 27'
p69
aa.