(lp0
(lp1
(lp2
S'static'
p3
aS'int'
p4
aS'func_0'
p5
aS'('
p6
aS'void'
p7
aS'*'
p8
aS'variable_0'
p9
aS','
p10
aS'int'
p11
ag8
aS'variable_1'
p12
ag10
aS'variable_2'
p13
ag8
aS'variable_3'
p14
aS')'
p15
aS'const'
p16
aS'char'
p17
ag8
aS'variable_4'
p18
aS'='
p19
aS'variable_3'
p20
aS'->'
p21
aS'variable_0'
p22
aS';'
p23
aS'const'
p24
aS'char'
p25
ag8
aS'variable_5'
p26
ag23
aS'if'
p27
ag6
aS'!'
p28
aS'variable_4'
p29
aS'||'
p30
aS'variable_3'
p31
aS'->'
p32
aS'variable_6'
p33
aS'<'
p34
aS'2'
p35
ag15
aS'if'
p36
ag6
aS'variable_3'
p37
aS'->'
p38
aS'variable_6'
p39
aS'=='
p40
ag35
ag15
aS'variable_5'
p41
ag19
aS'variable_4'
p42
aS'+'
p43
aS'func_1'
p44
ag6
ag35
ag43
aS'func_2'
p45
ag6
aS'variable_4'
p46
ag15
ag10
aS'variable_3'
p47
aS'->'
p48
aS'variable_6'
p49
ag15
ag23
aS'func_3'
p50
ag6
aS'&'
p51
aS'variable_7'
p52
ag10
aS'variable_4'
p53
ag10
aS'variable_5'
p54
ag15
ag23
aaa(lp55
I0
aa(lp56
I60
aa(lp57
(lp58
S'main'
p59
aaa(lp60
S'94 ../data/NVD/CVE_2012_6616_PATCHED_mov_text_decode_frame.c end = ptr + FFMIN ( 2 + AV_RB16 ( ptr ) , avpkt -> size ) 28'
p61
aa.