(lp0
(lp1
(lp2
S'static'
p3
aS'void'
p4
aS'func_0'
p5
aS'('
p6
aS'variable_0'
p7
aS'*'
p8
aS'variable_1'
p9
aS','
p10
aS'int'
p11
aS'variable_2'
p12
ag10
aS'int'
p13
aS'variable_3'
p14
ag10
aS'int'
p15
aS'variable_4'
p16
ag10
aS'int'
p17
aS'variable_5'
p18
aS')'
p19
aS'int'
p20
aS'variable_6'
p21
aS';'
p22
aS'variable_0'
p23
ag8
aS'variable_7'
p24
aS'='
p25
aS'variable_8'
p26
ag22
ag8
aS'variable_8'
p27
ag25
ag8
aS'variable_1'
p28
ag22
aS'if'
p29
ag6
aS'variable_2'
p30
aS'<'
p31
ag25
aS'1'
p32
ag19
aS'if'
p33
ag6
aS'!'
p34
aS'variable_4'
p35
ag19
aS'if'
p36
ag6
aS'variable_4'
p37
aS'=='
p38
aS'31'
p39
ag19
aS'for'
p40
ag6
aS'variable_6'
p41
ag25
ag32
ag22
aS'variable_6'
p42
ag31
ag25
aS'variable_4'
p43
ag22
aS'variable_6'
p44
aS'++'
p45
ag19
aS'variable_8'
p46
aS'['
p47
aS'variable_6'
p48
aS']'
p49
ag25
aS'func_1'
p50
ag6
aS'variable_8'
p51
ag47
aS'variable_6'
p52
aS'-'
p53
ag32
ag49
aS'+'
p54
aS'variable_1'
p55
ag47
aS'variable_6'
p56
ag49
ag10
aS'variable_3'
p57
ag19
ag22
aS'for'
p58
ag6
ag22
aS'variable_6'
p59
ag31
aS'variable_2'
p60
ag22
aS'variable_6'
p61
aS'++'
p62
ag19
aS'int'
p63
aS'variable_9'
p64
ag22
aS'int'
p65
aS'variable_10'
p66
ag25
aS'0'
p67
ag22
aS'int'
p68
aS'variable_11'
p69
ag25
aS'variable_1'
p70
ag47
aS'variable_6'
p71
ag49
ag22
aS'int'
p72
aS'variable_12'
p73
ag22
aS'int'
p74
aS'variable_13'
p75
ag25
ag8
aS'variable_7'
p76
aS'++'
p77
ag22
aS'for'
p78
ag6
aS'variable_9'
p79
ag25
ag67
ag22
aS'variable_9'
p80
ag31
aS'variable_4'
p81
ag22
aS'variable_9'
p82
aS'++'
p83
ag19
aS'variable_10'
p84
aS'+='
p85
ag6
aS'variable_7'
p86
ag47
aS'variable_9'
p87
ag49
ag53
aS'variable_13'
p88
ag19
ag8
aS'variable_14'
p89
ag47
aS'variable_9'
p90
ag49
ag22
aS'variable_10'
p91
ag25
ag6
aS'variable_10'
p92
ag54
ag6
ag32
aS'<<'
p93
ag6
aS'variable_5'
p94
ag53
ag32
ag19
ag19
ag19
aS'>>'
p95
aS'variable_5'
p96
ag22
aS'variable_10'
p97
aS'+='
p98
aS'variable_13'
p99
ag54
aS'variable_11'
p100
ag22
aS'variable_8'
p101
ag47
aS'variable_6'
p102
ag49
ag25
aS'func_2'
p103
ag6
aS'variable_10'
p104
ag10
aS'variable_3'
p105
ag19
ag22
aS'variable_12'
p106
ag25
aS'func_3'
p107
ag6
aS'variable_11'
p108
ag19
ag22
aS'if'
p109
ag6
aS'variable_12'
p110
ag19
aS'for'
p111
ag6
aS'variable_9'
p112
ag25
ag67
ag22
aS'variable_9'
p113
ag31
aS'variable_4'
p114
aS'&&'
p115
aS'variable_11'
p116
ag8
aS'variable_12'
p117
aS'>'
p118
ag67
ag22
aS'variable_9'
p119
aS'++'
p120
ag19
aS'int'
p121
aS'variable_15'
p122
ag22
aS'variable_10'
p123
ag25
aS'variable_13'
p124
ag53
aS'variable_7'
p125
ag47
aS'variable_9'
p126
ag49
ag22
aS'variable_15'
p127
ag25
aS'func_4'
p128
ag6
aS'variable_10'
p129
ag19
ag8
aS'variable_12'
p130
ag22
aS'variable_14'
p131
ag47
aS'variable_9'
p132
ag49
aS'-='
p133
aS'variable_15'
p134
ag22
aS'variable_10'
p135
ag8
ag25
aS'variable_15'
p136
ag22
aS'variable_11'
p137
aS'-='
p138
ag6
aS'variable_10'
p139
aS'>>'
p140
aS'variable_5'
p141
ag19
ag8
ag6
aS'variable_9'
p142
ag54
ag32
ag19
ag22
aaa(lp143
I0
aa(lp144
I228
aa(lp145
(lp146
S'main'
p147
aaa(lp148
S'180 ../data/NVD/CVE_2013_0856_VULN_lpc_prediction.c val = d - pred [ j ] 54'
p149
aa.