(lp0
(lp1
(lp2
S'static'
p3
aS'int'
p4
aS'func_0'
p5
aS'('
p6
aS'variable_0'
p7
aS'*'
p8
aS'variable_1'
p9
aS','
p10
aS'struct'
p11
aS'in_addr'
p12
aS'variable_2'
p13
aS')'
p14
aS'variable_3'
p15
ag8
aS'variable_4'
p16
aS';'
p17
aS'variable_5'
p18
ag8
aS'variable_6'
p19
aS'='
p20
aS'NULL'
p21
ag17
aS'variable_7'
p22
ag8
aS'variable_8'
p23
ag20
aS'func_1'
p24
ag6
aS'"'
p25
aS'rtp'
p26
ag25
ag10
aS'NULL'
p27
ag10
aS'NULL'
p28
ag14
ag17
aS'variable_4'
p29
ag20
aS'func_2'
p30
ag6
ag14
ag17
aS'if'
p31
ag6
aS'variable_4'
p32
aS'=='
p33
aS'NULL'
p34
aS'||'
p35
aS'!'
p36
aS'variable_8'
p37
ag14
aS'variable_4'
p38
aS'->'
p39
aS'variable_9'
p40
ag20
aS'variable_8'
p41
ag17
aS'variable_4'
p42
aS'->'
p43
aS'variable_10'
p44
ag20
aS'variable_1'
p45
aS'->'
p46
aS'variable_10'
p47
ag17
aS'if'
p48
ag6
aS'variable_1'
p49
aS'->'
p50
aS'variable_11'
p51
ag14
aS'snprintf'
p52
ag6
aS'variable_4'
p53
aS'->'
p54
aS'variable_12'
p55
ag10
aS'1024'
p56
ag10
aS'if'
p57
ag6
aS'variable_4'
p58
aS'->'
p59
aS'variable_10'
p60
aS'>'
p61
ag20
aS'variable_13'
p62
aS'/'
p63
aS'sizeof'
p64
ag6
ag8
aS'variable_4'
p65
aS'->'
p66
aS'variable_14'
p67
ag14
aS'||'
p68
ag36
ag6
aS'variable_4'
p69
aS'->'
p70
aS'variable_14'
p71
ag20
aS'func_3'
p72
ag6
aS'variable_4'
p73
aS'->'
p74
aS'variable_10'
p75
ag8
aS'sizeof'
p76
ag6
ag8
aS'variable_4'
p77
aS'->'
p78
aS'variable_14'
p79
ag14
ag14
ag14
ag14
aS'if'
p80
ag6
aS'variable_4'
p81
aS'->'
p82
aS'variable_10'
p83
ag61
ag20
aS'variable_13'
p84
ag63
aS'sizeof'
p85
ag6
ag8
aS'variable_6'
p86
ag14
aS'||'
p87
ag36
ag6
aS'variable_6'
p88
ag20
aS'func_4'
p89
ag6
aS'variable_4'
p90
aS'->'
p91
aS'variable_10'
p92
ag8
aS'sizeof'
p93
ag6
ag8
aS'variable_6'
p94
ag14
ag14
ag14
ag14
ag8
aS'variable_15'
p95
ag20
aS'func_5'
p96
ag6
aS'2048'
p97
ag14
ag17
aS'return'
p98
aS'strlen'
p99
ag6
ag8
aS'variable_15'
p100
ag14
ag17
aaa(lp101
I0
aa(lp102
I162
aa(lp103
(lp104
S'main'
p105
aaa(lp106
S'69 ../data/NVD/CVE_2012_6617_PATCHED_prepare_sdp_description.c strlen 45'
p107
aa.