(lp0
(lp1
(lp2
S'static'
p3
aS'long'
p4
aS'func_0'
p5
aS'('
p6
aS'struct'
p7
aS'variable_0'
p8
aS'*'
p9
aS'variable_0'
p10
aS','
p11
aS'unsigned'
p12
aS'long'
p13
aS'variable_1'
p14
ag11
aS'int'
p15
aS'variable_2'
p16
aS')'
p17
aS'struct'
p18
aS'variable_3'
p19
ag9
aS'variable_4'
p20
aS'='
p21
aS'variable_0'
p22
aS'->'
p23
aS'variable_5'
p24
aS';'
p25
aS'struct'
p26
aS'variable_6'
p27
ag9
aS'variable_7'
p28
ag25
aS'void'
p29
aS'variable_8'
p30
ag9
aS'variable_9'
p31
ag21
ag6
aS'void'
p32
aS'__user'
p33
ag9
ag17
aS'variable_1'
p34
ag25
aS'struct'
p35
aS'ifreq'
p36
aS'variable_10'
p37
ag25
aS'if'
p38
ag6
aS'variable_11'
p39
aS'=='
p40
aS'variable_12'
p41
aS'||'
p42
aS'func_1'
p43
ag6
aS'variable_11'
p44
ag17
aS'=='
p45
aS'0x89'
p46
ag17
aS'if'
p47
ag6
aS'func_2'
p48
ag6
aS'&'
p49
aS'variable_10'
p50
ag11
aS'variable_9'
p51
ag11
aS'variable_2'
p52
ag17
ag17
aS'if'
p53
ag6
aS'variable_11'
p54
aS'=='
p55
aS'variable_13'
p56
ag17
aS'variable_7'
p57
ag21
aS'func_3'
p58
ag6
aS'variable_4'
p59
ag17
ag25
aS'if'
p60
ag6
aS'variable_11'
p61
aS'=='
p62
aS'variable_12'
p63
aS'&&'
p64
aS'!'
p65
aS'variable_7'
p66
ag17
aS'if'
p67
ag6
ag65
aS'variable_7'
p68
ag17
aS'switch'
p69
ag6
aS'variable_11'
p70
ag17
aS'memcpy'
p71
ag6
aS'variable_10'
p72
aS'.'
p73
aS'variable_14'
p74
ag73
aS'variable_15'
p75
ag11
aS'variable_7'
p76
aS'->'
p77
aS'variable_16'
p78
aS'->'
p79
aS'variable_17'
p80
ag11
aS'variable_18'
p81
ag17
ag25
aS'variable_10'
p82
ag73
aS'variable_14'
p83
ag73
aS'variable_19'
p84
ag21
aS'variable_7'
p85
aS'->'
p86
aS'variable_16'
p87
aS'->'
p88
aS'variable_20'
p89
ag25
aS'if'
p90
ag6
aS'func_4'
p91
ag6
aS'variable_9'
p92
ag11
ag49
aS'variable_10'
p93
ag11
aS'variable_2'
p94
ag17
ag17
aS'func_5'
p95
ag6
aS'variable_21'
p96
aS'"'
p97
aS'%'
p98
aS's'
p99
aS':'
p100
aS'set'
p101
aS'hw'
p102
aS'address'
p103
ag100
ag98
aS'pM'
p104
aS'\\'
p105
aS'n'
p106
ag97
aS'variable_7'
p107
aS'->'
p108
aS'variable_16'
p109
aS'->'
p110
aS'variable_22'
p111
ag11
aS'variable_10'
p112
ag73
aS'variable_14'
p113
ag73
aS'variable_15'
p114
ag17
aS'variable_23'
p115
ag21
aS'func_6'
p116
ag6
aS'variable_7'
p117
aS'->'
p118
aS'variable_16'
p119
ag11
ag49
aS'variable_10'
p120
ag73
aS'variable_14'
p121
ag17
ag25
aS'return'
p122
aS'variable_23'
p123
ag25
aaa(lp124
I0
aa(lp125
I103
aa(lp126
(lp127
S'main'
p128
aaa(lp129
S'92 ../data/NVD/CVE_2012_6547_PATCHED___tun_chr_ioctl.c memcpy 129'
p130
aa.