(lp0
(lp1
(lp2
S'static'
p3
aS'int'
p4
aS'func_0'
p5
aS'('
p6
aS'variable_0'
p7
aS'*'
p8
aS'variable_1'
p9
aS')'
p10
aS'int'
p11
aS'variable_2'
p12
aS'='
p13
aS'variable_1'
p14
aS'->'
p15
aS'variable_3'
p16
ag8
aS'sizeof'
p17
ag6
aS'variable_4'
p18
ag10
aS';'
p19
aS'func_1'
p20
ag6
aS'variable_1'
p21
aS'->'
p22
aS'variable_5'
p23
aS','
p24
aS'variable_1'
p25
aS'->'
p26
aS'variable_6'
p27
aS'['
p28
aS'variable_7'
p29
aS']'
p30
ag24
aS'variable_2'
p31
ag24
aS'variable_8'
p32
ag10
ag19
aS'func_2'
p33
ag6
aS'variable_1'
p34
aS'->'
p35
aS'variable_5'
p36
ag24
aS'variable_1'
p37
aS'->'
p38
aS'variable_9'
p39
ag28
aS'variable_7'
p40
ag30
ag24
aS'variable_2'
p41
ag24
aS'variable_8'
p42
ag10
ag19
aS'func_3'
p43
ag6
aS'variable_1'
p44
aS'->'
p45
aS'variable_5'
p46
ag24
aS'variable_1'
p47
aS'->'
p48
aS'variable_10'
p49
ag28
aS'variable_7'
p50
ag30
ag24
aS'variable_2'
p51
ag24
aS'variable_8'
p52
ag10
ag19
aaa(lp53
I0
aa(lp54
I19
aa(lp55
(lp56
S'main'
p57
aaa(lp58
S'230 ../data/NVD/CVE_2013_0855_VULN_allocate_buffers.c int buf_size = alac -> max_samples_per_frame * sizeof ( int32_t ) ; 4'
p59
aa.