(lp0
(lp1
(lp2
S'static'
p3
aS'int'
p4
aS'func_0'
p5
aS'('
p6
aS'struct'
p7
aS'variable_0'
p8
aS'*'
p9
aS'variable_1'
p10
aS','
p11
aS'struct'
p12
aS'variable_2'
p13
ag9
aS'variable_3'
p14
aS')'
p15
aS'struct'
p16
aS'variable_4'
p17
ag9
aS'variable_5'
p18
aS';'
p19
aS'struct'
p20
aS'variable_6'
p21
ag9
aS'variable_7'
p22
ag19
aS'variable_7'
p23
aS'='
p24
aS'func_1'
p25
ag6
aS'variable_3'
p26
ag11
aS'variable_8'
p27
ag11
aS'sizeof'
p28
ag6
ag9
aS'variable_5'
p29
ag15
aS'+'
p30
ag6
aS'variable_1'
p31
aS'->'
p32
aS'variable_9'
p33
ag30
aS'7'
p34
ag15
aS'/'
p35
aS'8'
p36
ag15
ag19
aS'if'
p37
ag6
aS'!'
p38
aS'variable_7'
p39
ag15
aS'variable_5'
p40
ag24
aS'func_2'
p41
ag6
aS'variable_7'
p42
ag15
ag19
aS'strcpy'
p43
ag6
aS'variable_5'
p44
aS'->'
p45
aS'variable_10'
p46
ag11
aS'variable_1'
p47
aS'->'
p48
aS'variable_10'
p49
ag15
ag19
aS'memcpy'
p50
ag6
aS'variable_5'
p51
aS'->'
p52
aS'variable_11'
p53
ag11
aS'variable_1'
p54
aS'->'
p55
aS'variable_11'
p56
ag11
ag6
aS'variable_1'
p57
aS'->'
p58
aS'variable_9'
p59
ag30
ag34
ag15
ag35
ag36
ag15
ag19
aS'variable_5'
p60
aS'->'
p61
aS'variable_9'
p62
ag24
aS'variable_1'
p63
aS'->'
p64
aS'variable_9'
p65
ag19
aaa(lp66
I0
aa(lp67
I72
aa(lp68
(lp69
S'main'
p70
aaa(lp71
S'85 ../data/NVD/CVE_2012_6538_VULN_copy_to_user_auth.c memcpy 13'
p72
aa.