(lp0
(lp1
(lp2
S'static'
p3
aS'int'
p4
aS'func_0'
p5
aS'('
p6
aS'void'
p7
aS'*'
p8
aS'variable_0'
p9
aS','
p10
aS'variable_1'
p11
ag8
aS'variable_2'
p12
aS')'
p13
aS'const'
p14
aS'uint8_t'
p15
ag8
aS'variable_3'
p16
aS'='
p17
aS'variable_2'
p18
aS'->'
p19
aS'variable_0'
p20
aS';'
p21
aS'int'
p22
aS'variable_4'
p23
ag17
aS'variable_2'
p24
aS'->'
p25
aS'variable_5'
p26
ag21
aS'const'
p27
aS'uint8_t'
p28
ag8
aS'variable_6'
p29
ag17
aS'variable_3'
p30
aS'+'
p31
aS'variable_4'
p32
ag21
aS'variable_7'
p33
ag8
aS'variable_8'
p34
ag17
aS'variable_9'
p35
aS'->'
p36
aS'variable_10'
p37
ag21
aS'int'
p38
aS'variable_11'
p39
ag10
aS'variable_12'
p40
ag21
aS'if'
p41
ag6
aS'variable_4'
p42
aS'<'
p43
aS'26'
p44
ag13
aS'variable_3'
p45
aS'+='
p46
aS'8'
p47
ag21
aS'variable_11'
p48
ag17
aS'func_1'
p49
ag6
aS'&'
p50
aS'variable_3'
p51
aS'['
p52
ag47
aS']'
p53
ag13
ag21
aS'variable_12'
p54
ag17
aS'func_2'
p55
ag6
ag50
aS'variable_3'
p56
ag52
aS'10'
p57
ag53
ag13
ag21
aS'variable_3'
p58
aS'+='
p59
aS'16'
p60
ag21
aS'if'
p61
ag6
aS'variable_9'
p62
aS'->'
p63
aS'variable_11'
p64
aS'!='
p65
aS'variable_11'
p66
aS'||'
p67
aS'variable_9'
p68
aS'->'
p69
aS'variable_12'
p70
aS'!='
p71
aS'variable_12'
p72
ag13
aS'if'
p73
ag6
ag6
aS'variable_11'
p74
ag8
aS'variable_12'
p75
ag13
aS'/'
p76
aS'2048'
p77
ag8
aS'7'
p78
aS'>'
p79
aS'variable_6'
p80
aS'-'
p81
aS'variable_3'
p82
ag13
aS'if'
p83
ag6
aS'func_3'
p84
ag6
aS'variable_11'
p85
ag10
aS'variable_12'
p86
ag10
aS'0'
p87
ag10
aS'variable_9'
p88
ag13
ag43
ag87
ag13
aS'variable_8'
p89
aS'->'
p90
aS'variable_13'
p91
aS'.'
p92
aS'variable_14'
p93
ag17
aS'3'
p94
ag21
aS'if'
p95
ag6
aS'!'
p96
aS'variable_8'
p97
aS'->'
p98
aS'variable_13'
p99
ag92
aS'variable_0'
p100
ag52
ag87
ag53
ag13
aS'if'
p101
ag6
aS'variable_9'
p102
aS'->'
p103
aS'func_4'
p104
ag6
aS'variable_9'
p105
ag10
ag50
aS'variable_8'
p106
aS'->'
p107
aS'variable_13'
p108
ag13
ag43
ag87
ag13
aS'if'
p109
ag6
ag96
aS'variable_8'
p110
aS'->'
p111
aS'variable_15'
p112
ag13
aS'memset'
p113
ag6
ag6
aS'uint8_t'
p114
ag8
ag13
aS'variable_8'
p115
aS'->'
p116
aS'variable_15'
p117
ag31
ag6
aS'variable_6'
p118
ag81
aS'variable_3'
p119
ag13
ag10
ag87
ag10
aS'variable_16'
p120
ag13
ag21
aaa(lp121
I0
aa(lp122
I174
aa(lp123
(lp124
S'main'
p125
aaa(lp126
S'23 ../data/NVD/CVE_2013_0851_PATCHED_decode_frame.c memset 55'
p127
aa.