(lp0
(lp1
(lp2
S'static'
p3
aS'int'
p4
aS'func_0'
p5
aS'('
p6
aS'void'
p7
aS'*'
p8
aS'variable_0'
p9
aS','
p10
aS'variable_1'
p11
ag8
aS'variable_2'
p12
aS')'
p13
aS'const'
p14
aS'uint8_t'
p15
ag8
aS'variable_3'
p16
aS'='
p17
aS'variable_2'
p18
aS'->'
p19
aS'variable_0'
p20
aS';'
p21
aS'int'
p22
aS'variable_4'
p23
ag17
aS'variable_2'
p24
aS'->'
p25
aS'variable_5'
p26
ag21
aS'const'
p27
aS'uint8_t'
p28
ag8
aS'variable_6'
p29
ag17
aS'variable_3'
p30
aS'+'
p31
aS'variable_4'
p32
ag21
aS'if'
p33
ag6
ag6
aS'variable_7'
p34
ag8
aS'variable_8'
p35
ag13
aS'/'
p36
aS'2048'
p37
ag8
aS'7'
p38
aS'>'
p39
aS'variable_6'
p40
aS'-'
p41
aS'variable_3'
p42
ag13
aS'func_1'
p43
ag6
aS'&'
p44
aS'variable_9'
p45
aS'->'
p46
aS'variable_10'
p47
ag10
ag44
aS'variable_9'
p48
aS'->'
p49
aS'variable_11'
p50
ag10
ag6
aS'variable_6'
p51
ag41
aS'variable_3'
p52
ag13
ag31
aS'variable_12'
p53
ag13
ag21
aS'variable_9'
p54
aS'->'
p55
aS'variable_13'
p56
aS'.'
p57
aS'func_2'
p58
ag6
aS'variable_9'
p59
aS'->'
p60
aS'variable_10'
p61
ag10
ag6
aS'const'
p62
aS'uint16_t'
p63
ag8
ag13
aS'variable_3'
p64
ag10
ag6
aS'variable_6'
p65
ag41
aS'variable_3'
p66
ag13
ag36
aS'2'
p67
ag13
ag21
aS'memset'
p68
ag6
ag6
aS'uint8_t'
p69
ag8
ag13
aS'variable_9'
p70
aS'->'
p71
aS'variable_10'
p72
ag31
ag6
aS'variable_6'
p73
ag41
aS'variable_3'
p74
ag13
ag10
aS'0'
p75
ag10
aS'variable_12'
p76
ag13
ag21
aS'func_3'
p77
ag6
ag44
aS'variable_9'
p78
aS'->'
p79
aS'variable_14'
p80
ag10
aS'variable_9'
p81
aS'->'
p82
aS'variable_10'
p83
ag10
aS'8'
p84
ag8
ag6
aS'variable_6'
p85
ag41
aS'variable_3'
p86
ag13
ag13
ag21
aaa(lp87
I0
aa(lp88
I36
aa(lp89
(lp90
S'main'
p91
aaa(lp92
S'228 ../data/NVD/CVE_2013_0851_PATCHED_decode_frame.c const uint8_t * buf_end = buf + buf_size ; 7'
p93
aa.