(lp0
(lp1
(lp2
S'func_0'
p3
aS'('
p4
aS')'
p5
aS'static'
p6
aS'LPCWSTR'
p7
aS'variable_0'
p8
aS'['
p9
aS']'
p10
aS'='
p11
aS'variable_1'
p12
aS'"'
p13
aS'wsock32'
p14
aS'.'
p15
aS'dll'
p16
ag13
aS','
p17
aS'WCHAR'
p18
aS'variable_2'
p19
ag9
aS'variable_3'
p20
aS'+'
p21
aS'1'
p22
ag10
ag11
aS'variable_1'
p23
aS"'"
p24
aS'\\'
p25
aS'0'
p26
ag24
aS'for'
p27
ag4
aS'size_t'
p28
aS'variable_4'
p29
ag11
ag26
aS';'
p30
aS'variable_4'
p31
aS'<'
p32
aS'sizeof'
p33
ag4
aS'variable_0'
p34
ag5
aS'/'
p35
aS'sizeof'
p36
ag4
aS'variable_0'
p37
ag9
ag26
ag10
ag5
ag30
aS'++'
p38
aS'variable_4'
p39
ag5
aS'size_t'
p40
aS'variable_5'
p41
ag11
aS'wcslen'
p42
ag4
aS'variable_0'
p43
ag9
aS'variable_4'
p44
ag10
ag5
ag30
aS'if'
p45
ag4
aS'variable_6'
p46
ag21
aS'variable_5'
p47
ag32
ag11
aS'variable_3'
p48
ag5
aa(lp49
S'func_0'
p50
ag4
ag5
aS'size_t'
p51
aS'variable_0'
p52
ag11
aS'wcslen'
p53
ag4
aS'variable_1'
p54
ag5
ag30
aS'wcsncpy'
p55
ag4
aS'variable_1'
p56
ag21
aS'variable_0'
p57
ag17
aS'variable_2'
p58
ag9
aS'variable_3'
p59
ag10
ag17
aS'variable_4'
p60
aS'-'
p61
aS'variable_0'
p62
ag5
ag30
aS'if'
p63
ag4
aS'variable_0'
p64
ag21
aS'variable_5'
p65
ag32
ag11
aS'variable_4'
p66
ag5
aS'LPCWSTR'
p67
aS'variable_6'
p68
ag11
aS'variable_1'
p69
ag30
aS'func_1'
p70
ag4
aS'variable_6'
p71
ag5
ag30
aaa(lp72
I0
aI0
aa(lp73
I57
aI6
aa(lp74
(lp75
S'main'
p76
aa(lp77
g76
aaa(lp78
S'197 ../data/NVD/CVE_2013_0797_VULN_AutoLoadSystemDependencies.c wcslen 19'
p79
aS'198 ../data/NVD/CVE_2013_0797_VULN_AutoLoadSystemDependencies.c wcslen 8'
p80
aa.