(lp0
(lp1
(lp2
S'void'
p3
aS'func_0'
p4
aS'('
p5
aS'uint32_t'
p6
aS'variable_0'
p7
aS','
p8
aS'GraphTime'
p9
aS'variable_1'
p10
ag8
aS'bool'
p11
aS'*'
p12
aS'variable_2'
p13
aS')'
p14
aS'variable_3'
p15
ag12
aS'variable_4'
p16
aS'='
p17
aS'&'
p18
aS'variable_5'
p19
aS'['
p20
aS'variable_0'
p21
aS']'
p22
aS';'
p23
aS'variable_6'
p24
aS':'
p25
ag25
aS'variable_7'
p26
ag12
aS'variable_8'
p27
ag17
aS'variable_4'
p28
aS'->'
p29
aS'variable_9'
p30
ag23
aS'TrackRate'
p31
aS'variable_10'
p32
ag17
aS'variable_8'
p33
aS'->'
p34
aS'func_1'
p35
ag5
ag14
ag23
aS'variable_11'
p36
ag12
aS'variable_12'
p37
ag17
aS'variable_4'
p38
aS'->'
p39
aS'variable_13'
p40
aS'->'
p41
aS'func_2'
p42
ag5
ag14
ag23
aS'GraphTime'
p43
aS'variable_14'
p44
ag23
aS'for'
p45
ag5
aS'GraphTime'
p46
aS'variable_15'
p47
ag17
aS'variable_1'
p48
ag23
aS'variable_15'
p49
aS'<'
p50
aS'variable_16'
p51
ag23
aS'variable_15'
p52
ag17
aS'variable_14'
p53
ag14
aS'variable_17'
p54
ag25
ag25
aS'InputInterval'
p55
aS'variable_18'
p56
ag17
aS'variable_4'
p57
aS'->'
p58
aS'variable_13'
p59
aS'->'
p60
aS'func_3'
p61
ag5
aS'variable_15'
p62
ag14
ag23
aS'variable_18'
p63
aS'.'
p64
aS'variable_19'
p65
ag17
aS'func_4'
p66
ag5
aS'variable_18'
p67
ag64
aS'variable_19'
p68
ag8
aS'variable_16'
p69
ag14
ag23
aS'if'
p70
ag5
aS'variable_18'
p71
ag64
aS'variable_20'
p72
aS'>'
p73
ag17
aS'variable_18'
p74
ag64
aS'variable_19'
p75
ag14
aS'variable_14'
p76
ag17
aS'variable_18'
p77
ag64
aS'variable_19'
p78
ag23
aS'StreamTime'
p79
aS'variable_21'
p80
ag17
aS'func_5'
p81
ag5
aS'variable_18'
p82
ag64
aS'variable_19'
p83
ag14
ag23
aS'TrackTicks'
p84
aS'variable_22'
p85
ag17
aS'variable_8'
p86
aS'->'
p87
aS'func_6'
p88
ag5
ag14
ag23
aS'TrackTicks'
p89
aS'variable_23'
p90
ag17
aS'func_7'
p91
ag5
aS'variable_10'
p92
ag8
aS'variable_21'
p93
ag14
ag23
aS'TrackTicks'
p94
aS'variable_24'
p95
ag17
aS'variable_23'
p96
aS'-'
p97
aS'variable_22'
p98
ag23
aS'StreamTime'
p99
aS'variable_25'
p100
ag17
aS'variable_12'
p101
aS'->'
p102
aS'func_8'
p103
ag5
aS'variable_18'
p104
ag64
aS'variable_19'
p105
ag14
ag23
aS'if'
p106
ag5
aS'variable_18'
p107
ag64
aS'variable_26'
p108
ag14
aS'TrackTicks'
p109
aS'variable_27'
p110
ag17
aS'func_9'
p111
ag5
aS'variable_10'
p112
ag8
aS'variable_25'
p113
ag14
ag23
aS'TrackTicks'
p114
aS'variable_28'
p115
ag17
aS'variable_27'
p116
ag97
aS'variable_24'
p117
ag23
aS'variable_29'
p118
aS'->'
p119
aS'func_10'
p120
ag5
ag12
aS'variable_30'
p121
aS'->'
p122
aS'func_11'
p123
ag5
ag14
ag8
aS'func_12'
p124
ag5
aS'variable_31'
p125
ag8
aS'variable_28'
p126
ag14
ag8
aS'func_13'
p127
ag5
aS'variable_31'
p128
ag8
aS'variable_27'
p129
ag14
ag14
ag23
aS'func_14'
p130
ag5
aS'variable_32'
p131
ag8
ag5
aS'"'
p132
aS'TrackUnionStream'
p133
aS'%'
p134
aS'p'
p135
aS'appending'
p136
ag134
aS'lld'
p137
aS'ticks'
p138
aS'of'
p139
aS'input'
p140
aS'data'
p141
aS'to'
p142
aS'track'
p143
ag134
aS'd'
p144
ag132
ag8
aS'variable_33'
p145
ag8
ag5
aS'long'
p146
aS'long'
p147
ag14
ag5
aS'func_15'
p148
ag5
aS'variable_31'
p149
ag8
aS'variable_27'
p150
ag14
ag97
aS'func_16'
p151
ag5
aS'variable_31'
p152
ag8
aS'variable_28'
p153
ag14
ag14
ag8
aS'variable_8'
p154
aS'->'
p155
aS'func_17'
p156
ag5
ag14
ag14
ag14
ag23
aa(lp157
S'void'
p158
aS'func_0'
p159
ag5
aS'uint32_t'
p160
aS'variable_0'
p161
ag8
aS'GraphTime'
p162
aS'variable_1'
p163
ag8
aS'bool'
p164
ag12
aS'variable_2'
p165
ag14
aS'variable_3'
p166
ag12
aS'variable_4'
p167
ag17
ag18
aS'variable_5'
p168
ag20
aS'variable_0'
p169
ag22
ag23
aS'variable_6'
p170
ag25
ag25
aS'variable_7'
p171
ag12
aS'variable_8'
p172
ag17
aS'variable_4'
p173
aS'->'
p174
aS'variable_9'
p175
ag23
aS'TrackRate'
p176
aS'variable_10'
p177
ag17
aS'variable_8'
p178
aS'->'
p179
aS'func_1'
p180
ag5
ag14
ag23
aS'GraphTime'
p181
aS'variable_11'
p182
ag23
aS'for'
p183
ag5
aS'GraphTime'
p184
aS'variable_12'
p185
ag17
aS'variable_1'
p186
ag23
aS'variable_12'
p187
ag50
aS'variable_13'
p188
ag23
aS'variable_12'
p189
ag17
aS'variable_11'
p190
ag14
aS'variable_14'
p191
ag25
ag25
aS'InputInterval'
p192
aS'variable_15'
p193
ag17
aS'variable_4'
p194
aS'->'
p195
aS'variable_16'
p196
aS'->'
p197
aS'func_2'
p198
ag5
aS'variable_12'
p199
ag14
ag23
aS'variable_15'
p200
ag64
aS'variable_17'
p201
ag17
aS'func_3'
p202
ag5
aS'variable_15'
p203
ag64
aS'variable_17'
p204
ag8
aS'variable_13'
p205
ag14
ag23
aS'if'
p206
ag5
aS'variable_15'
p207
ag64
aS'variable_18'
p208
ag73
ag17
aS'variable_15'
p209
ag64
aS'variable_17'
p210
ag14
aS'variable_11'
p211
ag17
aS'variable_15'
p212
ag64
aS'variable_17'
p213
ag23
aS'StreamTime'
p214
aS'variable_19'
p215
ag17
aS'func_4'
p216
ag5
aS'variable_15'
p217
ag64
aS'variable_17'
p218
ag14
ag23
aS'TrackTicks'
p219
aS'variable_20'
p220
ag17
aS'variable_8'
p221
aS'->'
p222
aS'func_5'
p223
ag5
ag14
ag23
aS'TrackTicks'
p224
aS'variable_21'
p225
ag17
aS'func_6'
p226
ag5
aS'variable_10'
p227
ag8
aS'variable_19'
p228
ag14
ag23
aS'TrackTicks'
p229
aS'variable_22'
p230
ag17
aS'variable_21'
p231
ag97
aS'variable_20'
p232
ag23
aS'variable_23'
p233
aS'->'
p234
aS'func_7'
p235
ag5
aS'variable_22'
p236
ag14
ag23
aS'func_8'
p237
ag5
aS'variable_24'
p238
ag8
ag5
ag132
aS'TrackUnionStream'
p239
ag134
ag135
aS'appending'
p240
ag134
aS'lld'
p241
aS'ticks'
p242
aS'of'
p243
aS'null'
p244
aS'data'
p245
aS'to'
p246
aS'track'
p247
ag134
ag144
ag132
ag8
aS'variable_25'
p248
ag8
ag5
aS'long'
p249
aS'long'
p250
ag14
aS'variable_22'
p251
ag8
aS'variable_8'
p252
aS'->'
p253
aS'func_9'
p254
ag5
ag14
ag14
ag14
ag23
aS'TrackTicks'
p255
aS'variable_26'
p256
ag17
aS'variable_27'
p257
ag97
aS'variable_22'
p258
ag23
aS'variable_23'
p259
aS'->'
p260
aS'func_10'
p261
ag5
ag12
aS'variable_28'
p262
aS'->'
p263
aS'func_11'
p264
ag5
ag14
ag8
aS'func_12'
p265
ag5
aS'variable_29'
p266
ag8
aS'variable_26'
p267
ag14
ag8
aS'func_13'
p268
ag5
aS'variable_29'
p269
ag8
aS'variable_27'
p270
ag14
ag14
ag23
aS'func_14'
p271
ag5
aS'variable_24'
p272
ag8
ag5
ag132
aS'TrackUnionStream'
p273
ag134
ag135
aS'appending'
p274
ag134
aS'lld'
p275
aS'ticks'
p276
aS'of'
p277
aS'input'
p278
aS'data'
p279
aS'to'
p280
aS'track'
p281
ag134
ag144
ag132
ag8
aS'variable_25'
p282
ag8
ag5
aS'long'
p283
aS'long'
p284
ag14
ag5
aS'func_15'
p285
ag5
aS'variable_29'
p286
ag8
aS'variable_27'
p287
ag14
ag97
aS'func_16'
p288
ag5
aS'variable_29'
p289
ag8
aS'variable_26'
p290
ag14
ag14
ag8
aS'variable_8'
p291
aS'->'
p292
aS'func_17'
p293
ag5
ag14
ag14
ag14
ag23
aaa(lp294
I0
aI0
aa(lp295
I187
aI140
aa(lp296
(lp297
S'main'
p298
aa(lp299
g298
aaa(lp300
S'207 ../data/NVD/CVE_2013_0761_VULN_CopyTrackData.c TrackTicks inputStartTicks = inputEndTicks - ticks ; 58'
p301
aS'208 ../data/NVD/CVE_2013_0761_VULN_CopyTrackData.c TrackTicks ticks = endTicks - startTicks ; 31'
p302
aa.