(lp0
(lp1
(lp2
S'func_0'
p3
aS'('
p4
aS'variable_0'
p5
aS'*'
p6
aS'variable_1'
p7
aS','
p8
aS'guint'
p9
aS'variable_2'
p10
ag8
aS'variable_3'
p11
ag6
aS'variable_4'
p12
ag8
aS'int'
p13
aS'variable_5'
p14
aS')'
p15
aS'gint32'
p16
aS'variable_6'
p17
aS';'
p18
aS'guint'
p19
aS'variable_7'
p20
ag18
aS'variable_6'
p21
aS'='
p22
aS'func_1'
p23
ag4
aS'variable_1'
p24
ag8
aS'variable_2'
p25
ag15
ag18
aS'if'
p26
ag4
aS'variable_6'
p27
aS'=='
p28
aS'5'
p29
ag15
aS'variable_7'
p30
ag22
aS'variable_2'
p31
aS'+'
p32
aS'variable_6'
p33
ag18
aS'while'
p34
ag4
aS'variable_2'
p35
aS'<'
p36
aS'variable_7'
p37
aS'-'
p38
aS'1'
p39
ag15
aaa(lp40
I0
aa(lp41
I41
aa(lp42
(lp43
S'main'
p44
aaa(lp45
S'4 ../data/NVD/CVE_2012_4287_VULN_dissect_bson_document.c final_offset = offset + document_length 22'
p46
aa.